((iNavigator_0_0663
PLAT
p0
(dp1
S'ChosenList'
p2
(lp3
(I18
I15
tp4
a(I19
I15
tp5
a(I20
I15
tp6
a(I21
I15
tp7
a(I22
I15
tp8
a(I23
I15
tp9
a(I17
I15
tp10
a(I17
I16
tp11
a(I19
I16
tp12
a(I23
I16
tp13
a(I18
I16
tp14
a(I20
I16
tp15
a(I22
I16
tp16
a(I18
I17
tp17
a(I20
I17
tp18
a(I22
I17
tp19
a(I15
I17
tp20
a(I16
I17
tp21
a(I17
I17
tp22
a(I21
I17
tp23
a(I15
I18
tp24
a(I17
I18
tp25
a(I20
I18
tp26
a(I14
I18
tp27
a(I16
I18
tp28
a(I18
I18
tp29
a(I19
I18
tp30
a(I15
I19
tp31
a(I16
I19
tp32
a(I17
I19
tp33
a(I19
I19
tp34
a(I13
I19
tp35
a(I14
I19
tp36
a(I18
I19
tp37
a(I14
I20
tp38
a(I15
I20
tp39
a(I19
I20
tp40
a(I20
I20
tp41
asS'Nodes'
p42
(lp43
(lp44
(iNavigator_0_0663
NODE
p45
(dp46
S'View'
p47
(lp48
I0
aI0
aI0
aI0
asS'Linked'
p49
(lp50
sS'ProspectList'
p51
(lp52
(I1
I0
tp53
a(I0
I1
tp54
asS'Active'
p55
I0
sba(iNavigator_0_0663
NODE
p56
(dp57
g47
(lp58
I0
aI0
aI0
aI0
asg49
(lp59
sg51
(lp60
(I1
I1
tp61
a(I0
I2
tp62
a(I0
I0
tp63
asg55
I0
sba(iNavigator_0_0663
NODE
p64
(dp65
g47
(lp66
I0
aI0
aI0
aI0
asg49
(lp67
sg51
(lp68
(I1
I2
tp69
a(I0
I3
tp70
a(I0
I1
tp71
asg55
I0
sba(iNavigator_0_0663
NODE
p72
(dp73
g47
(lp74
I0
aI0
aI0
aI0
asg49
(lp75
sg51
(lp76
(I1
I3
tp77
a(I0
I4
tp78
a(I0
I2
tp79
asg55
I0
sba(iNavigator_0_0663
NODE
p80
(dp81
g47
(lp82
I0
aI0
aI0
aI0
asg49
(lp83
sg51
(lp84
(I1
I4
tp85
a(I0
I5
tp86
a(I0
I3
tp87
asg55
I0
sba(iNavigator_0_0663
NODE
p88
(dp89
g47
(lp90
I0
aI0
aI0
aI0
asg49
(lp91
sg51
(lp92
(I1
I5
tp93
a(I0
I6
tp94
a(I0
I4
tp95
asg55
I0
sba(iNavigator_0_0663
NODE
p96
(dp97
g47
(lp98
I0
aI0
aI0
aI0
asg49
(lp99
sg51
(lp100
(I1
I6
tp101
a(I0
I7
tp102
a(I0
I5
tp103
asg55
I0
sba(iNavigator_0_0663
NODE
p104
(dp105
g47
(lp106
I0
aI0
aI0
aI0
asg49
(lp107
sg51
(lp108
(I1
I7
tp109
a(I0
I8
tp110
a(I0
I6
tp111
asg55
I0
sba(iNavigator_0_0663
NODE
p112
(dp113
g47
(lp114
I0
aI0
aI0
aI0
asg49
(lp115
sg51
(lp116
(I1
I8
tp117
a(I0
I9
tp118
a(I0
I7
tp119
asg55
I0
sba(iNavigator_0_0663
NODE
p120
(dp121
g47
(lp122
I0
aI0
aI0
aI0
asg49
(lp123
sg51
(lp124
(I1
I9
tp125
a(I0
I10
tp126
a(I0
I8
tp127
asg55
I0
sba(iNavigator_0_0663
NODE
p128
(dp129
g47
(lp130
I0
aI0
aI0
aI0
asg49
(lp131
sg51
(lp132
(I1
I10
tp133
a(I0
I11
tp134
a(I0
I9
tp135
asg55
I0
sba(iNavigator_0_0663
NODE
p136
(dp137
g47
(lp138
I0
aI0
aI0
aI0
asg49
(lp139
sg51
(lp140
(I1
I11
tp141
a(I0
I12
tp142
a(I0
I10
tp143
asg55
I0
sba(iNavigator_0_0663
NODE
p144
(dp145
g47
(lp146
I0
aI0
aI0
aI0
asg49
(lp147
sg51
(lp148
(I1
I12
tp149
a(I0
I13
tp150
a(I0
I11
tp151
asg55
I0
sba(iNavigator_0_0663
NODE
p152
(dp153
g47
(lp154
I0
aI0
aI0
aI0
asg49
(lp155
sg51
(lp156
(I1
I13
tp157
a(I0
I14
tp158
a(I0
I12
tp159
asg55
I0
sba(iNavigator_0_0663
NODE
p160
(dp161
g47
(lp162
I0
aI0
aI0
aI0
asg49
(lp163
sg51
(lp164
(I1
I14
tp165
a(I0
I15
tp166
a(I0
I13
tp167
asg55
I0
sba(iNavigator_0_0663
NODE
p168
(dp169
g47
(lp170
I0
aI0
aI0
aI0
asg49
(lp171
sg51
(lp172
(I1
I15
tp173
a(I0
I16
tp174
a(I0
I14
tp175
asg55
I0
sba(iNavigator_0_0663
NODE
p176
(dp177
g47
(lp178
I0
aI0
aI0
aI0
asg49
(lp179
sg51
(lp180
(I1
I16
tp181
a(I0
I17
tp182
a(I0
I15
tp183
asg55
I0
sba(iNavigator_0_0663
NODE
p184
(dp185
g47
(lp186
I0
aI0
aI0
aI0
asg49
(lp187
sg51
(lp188
(I1
I17
tp189
a(I0
I18
tp190
a(I0
I16
tp191
asg55
I0
sba(iNavigator_0_0663
NODE
p192
(dp193
g47
(lp194
I0
aI0
aI0
aI0
asg49
(lp195
sg51
(lp196
(I1
I18
tp197
a(I0
I19
tp198
a(I0
I17
tp199
asg55
I0
sba(iNavigator_0_0663
NODE
p200
(dp201
g47
(lp202
I0
aI0
aI0
aI0
asg49
(lp203
sg51
(lp204
(I1
I19
tp205
a(I0
I20
tp206
a(I0
I18
tp207
asg55
I0
sba(iNavigator_0_0663
NODE
p208
(dp209
g47
(lp210
I0
aI0
aI0
aI0
asg49
(lp211
sg51
(lp212
(I1
I20
tp213
a(I0
I21
tp214
a(I0
I19
tp215
asg55
I0
sba(iNavigator_0_0663
NODE
p216
(dp217
g47
(lp218
I0
aI0
aI0
aI0
asg49
(lp219
sg51
(lp220
(I1
I21
tp221
a(I0
I22
tp222
a(I0
I20
tp223
asg55
I0
sba(iNavigator_0_0663
NODE
p224
(dp225
g47
(lp226
I0
aI0
aI0
aI0
asg49
(lp227
sg51
(lp228
(I1
I22
tp229
a(I0
I23
tp230
a(I0
I21
tp231
asg55
I0
sba(iNavigator_0_0663
NODE
p232
(dp233
g47
(lp234
I0
aI0
aI0
aI0
asg49
(lp235
sg51
(lp236
(I1
I23
tp237
a(I0
I24
tp238
a(I0
I22
tp239
asg55
I0
sba(iNavigator_0_0663
NODE
p240
(dp241
g47
(lp242
I0
aI0
aI0
aI0
asg49
(lp243
sg51
(lp244
(I1
I24
tp245
a(I0
I23
tp246
asg55
I0
sbaa(lp247
(iNavigator_0_0663
NODE
p248
(dp249
g47
(lp250
I0
aI0
aI0
aI0
asg49
(lp251
sg51
(lp252
(I2
I0
tp253
a(I0
I0
tp254
a(I1
I1
tp255
asg55
I0
sba(iNavigator_0_0663
NODE
p256
(dp257
g47
(lp258
I0
aI0
aI0
aI0
asg49
(lp259
sg51
(lp260
(I2
I1
tp261
a(I0
I1
tp262
a(I1
I2
tp263
a(I1
I0
tp264
asg55
I0
sba(iNavigator_0_0663
NODE
p265
(dp266
g47
(lp267
I0
aI0
aI0
aI0
asg49
(lp268
sg51
(lp269
(I2
I2
tp270
a(I0
I2
tp271
a(I1
I3
tp272
a(I1
I1
tp273
asg55
I0
sba(iNavigator_0_0663
NODE
p274
(dp275
g47
(lp276
I0
aI0
aI0
aI0
asg49
(lp277
sg51
(lp278
(I2
I3
tp279
a(I0
I3
tp280
a(I1
I4
tp281
a(I1
I2
tp282
asg55
I0
sba(iNavigator_0_0663
NODE
p283
(dp284
g47
(lp285
I0
aI0
aI0
aI0
asg49
(lp286
sg51
(lp287
(I2
I4
tp288
a(I0
I4
tp289
a(I1
I5
tp290
a(I1
I3
tp291
asg55
I0
sba(iNavigator_0_0663
NODE
p292
(dp293
g47
(lp294
I0
aI0
aI0
aI0
asg49
(lp295
sg51
(lp296
(I2
I5
tp297
a(I0
I5
tp298
a(I1
I6
tp299
a(I1
I4
tp300
asg55
I0
sba(iNavigator_0_0663
NODE
p301
(dp302
g47
(lp303
I0
aI0
aI0
aI0
asg49
(lp304
sg51
(lp305
(I2
I6
tp306
a(I0
I6
tp307
a(I1
I7
tp308
a(I1
I5
tp309
asg55
I0
sba(iNavigator_0_0663
NODE
p310
(dp311
g47
(lp312
I0
aI0
aI0
aI0
asg49
(lp313
sg51
(lp314
(I2
I7
tp315
a(I0
I7
tp316
a(I1
I8
tp317
a(I1
I6
tp318
asg55
I0
sba(iNavigator_0_0663
NODE
p319
(dp320
g47
(lp321
I0
aI0
aI0
aI0
asg49
(lp322
sg51
(lp323
(I2
I8
tp324
a(I0
I8
tp325
a(I1
I9
tp326
a(I1
I7
tp327
asg55
I0
sba(iNavigator_0_0663
NODE
p328
(dp329
g47
(lp330
I0
aI0
aI0
aI0
asg49
(lp331
sg51
(lp332
(I2
I9
tp333
a(I0
I9
tp334
a(I1
I10
tp335
a(I1
I8
tp336
asg55
I0
sba(iNavigator_0_0663
NODE
p337
(dp338
g47
(lp339
I0
aI0
aI0
aI0
asg49
(lp340
sg51
(lp341
(I2
I10
tp342
a(I0
I10
tp343
a(I1
I11
tp344
a(I1
I9
tp345
asg55
I0
sba(iNavigator_0_0663
NODE
p346
(dp347
g47
(lp348
I0
aI0
aI0
aI0
asg49
(lp349
sg51
(lp350
(I2
I11
tp351
a(I0
I11
tp352
a(I1
I12
tp353
a(I1
I10
tp354
asg55
I0
sba(iNavigator_0_0663
NODE
p355
(dp356
g47
(lp357
I0
aI0
aI0
aI0
asg49
(lp358
sg51
(lp359
(I2
I12
tp360
a(I0
I12
tp361
a(I1
I13
tp362
a(I1
I11
tp363
asg55
I0
sba(iNavigator_0_0663
NODE
p364
(dp365
g47
(lp366
I0
aI0
aI0
aI0
asg49
(lp367
sg51
(lp368
(I2
I13
tp369
a(I0
I13
tp370
a(I1
I14
tp371
a(I1
I12
tp372
asg55
I0
sba(iNavigator_0_0663
NODE
p373
(dp374
g47
(lp375
I0
aI0
aI0
aI0
asg49
(lp376
sg51
(lp377
(I2
I14
tp378
a(I0
I14
tp379
a(I1
I15
tp380
a(I1
I13
tp381
asg55
I0
sba(iNavigator_0_0663
NODE
p382
(dp383
g47
(lp384
I0
aI0
aI0
aI0
asg49
(lp385
sg51
(lp386
(I2
I15
tp387
a(I0
I15
tp388
a(I1
I16
tp389
a(I1
I14
tp390
asg55
I0
sba(iNavigator_0_0663
NODE
p391
(dp392
g47
(lp393
I0
aI0
aI0
aI0
asg49
(lp394
sg51
(lp395
(I2
I16
tp396
a(I0
I16
tp397
a(I1
I17
tp398
a(I1
I15
tp399
asg55
I0
sba(iNavigator_0_0663
NODE
p400
(dp401
g47
(lp402
I0
aI0
aI0
aI0
asg49
(lp403
sg51
(lp404
(I2
I17
tp405
a(I0
I17
tp406
a(I1
I18
tp407
a(I1
I16
tp408
asg55
I0
sba(iNavigator_0_0663
NODE
p409
(dp410
g47
(lp411
I0
aI0
aI0
aI0
asg49
(lp412
sg51
(lp413
(I2
I18
tp414
a(I0
I18
tp415
a(I1
I19
tp416
a(I1
I17
tp417
asg55
I0
sba(iNavigator_0_0663
NODE
p418
(dp419
g47
(lp420
I0
aI0
aI0
aI0
asg49
(lp421
sg51
(lp422
(I2
I19
tp423
a(I0
I19
tp424
a(I1
I20
tp425
a(I1
I18
tp426
asg55
I0
sba(iNavigator_0_0663
NODE
p427
(dp428
g47
(lp429
I0
aI0
aI0
aI0
asg49
(lp430
sg51
(lp431
(I2
I20
tp432
a(I0
I20
tp433
a(I1
I21
tp434
a(I1
I19
tp435
asg55
I0
sba(iNavigator_0_0663
NODE
p436
(dp437
g47
(lp438
I0
aI0
aI0
aI0
asg49
(lp439
sg51
(lp440
(I2
I21
tp441
a(I0
I21
tp442
a(I1
I22
tp443
a(I1
I20
tp444
asg55
I0
sba(iNavigator_0_0663
NODE
p445
(dp446
g47
(lp447
I0
aI0
aI0
aI0
asg49
(lp448
sg51
(lp449
(I2
I22
tp450
a(I0
I22
tp451
a(I1
I23
tp452
a(I1
I21
tp453
asg55
I0
sba(iNavigator_0_0663
NODE
p454
(dp455
g47
(lp456
I0
aI0
aI0
aI0
asg49
(lp457
sg51
(lp458
(I2
I23
tp459
a(I0
I23
tp460
a(I1
I24
tp461
a(I1
I22
tp462
asg55
I0
sba(iNavigator_0_0663
NODE
p463
(dp464
g47
(lp465
I0
aI0
aI0
aI0
asg49
(lp466
sg51
(lp467
(I2
I24
tp468
a(I0
I24
tp469
a(I1
I23
tp470
asg55
I0
sbaa(lp471
(iNavigator_0_0663
NODE
p472
(dp473
g47
(lp474
I0
aI0
aI0
aI0
asg49
(lp475
sg51
(lp476
(I3
I0
tp477
a(I1
I0
tp478
a(I2
I1
tp479
asg55
I0
sba(iNavigator_0_0663
NODE
p480
(dp481
g47
(lp482
I0
aI0
aI0
aI0
asg49
(lp483
sg51
(lp484
(I3
I1
tp485
a(I1
I1
tp486
a(I2
I2
tp487
a(I2
I0
tp488
asg55
I0
sba(iNavigator_0_0663
NODE
p489
(dp490
g47
(lp491
I0
aI0
aI0
aI0
asg49
(lp492
sg51
(lp493
(I3
I2
tp494
a(I1
I2
tp495
a(I2
I3
tp496
a(I2
I1
tp497
asg55
I0
sba(iNavigator_0_0663
NODE
p498
(dp499
g47
(lp500
I0
aI0
aI0
aI0
asg49
(lp501
sg51
(lp502
(I3
I3
tp503
a(I1
I3
tp504
a(I2
I4
tp505
a(I2
I2
tp506
asg55
I0
sba(iNavigator_0_0663
NODE
p507
(dp508
g47
(lp509
I0
aI0
aI0
aI0
asg49
(lp510
sg51
(lp511
(I3
I4
tp512
a(I1
I4
tp513
a(I2
I5
tp514
a(I2
I3
tp515
asg55
I0
sba(iNavigator_0_0663
NODE
p516
(dp517
g47
(lp518
I0
aI0
aI0
aI0
asg49
(lp519
sg51
(lp520
(I3
I5
tp521
a(I1
I5
tp522
a(I2
I6
tp523
a(I2
I4
tp524
asg55
I0
sba(iNavigator_0_0663
NODE
p525
(dp526
g47
(lp527
I0
aI0
aI0
aI0
asg49
(lp528
sg51
(lp529
(I3
I6
tp530
a(I1
I6
tp531
a(I2
I7
tp532
a(I2
I5
tp533
asg55
I0
sba(iNavigator_0_0663
NODE
p534
(dp535
g47
(lp536
I0
aI0
aI0
aI0
asg49
(lp537
sg51
(lp538
(I3
I7
tp539
a(I1
I7
tp540
a(I2
I8
tp541
a(I2
I6
tp542
asg55
I0
sba(iNavigator_0_0663
NODE
p543
(dp544
g47
(lp545
I0
aI0
aI0
aI0
asg49
(lp546
sg51
(lp547
(I3
I8
tp548
a(I1
I8
tp549
a(I2
I9
tp550
a(I2
I7
tp551
asg55
I0
sba(iNavigator_0_0663
NODE
p552
(dp553
g47
(lp554
I0
aI0
aI0
aI0
asg49
(lp555
sg51
(lp556
(I3
I9
tp557
a(I1
I9
tp558
a(I2
I10
tp559
a(I2
I8
tp560
asg55
I0
sba(iNavigator_0_0663
NODE
p561
(dp562
g47
(lp563
I0
aI0
aI0
aI0
asg49
(lp564
sg51
(lp565
(I3
I10
tp566
a(I1
I10
tp567
a(I2
I11
tp568
a(I2
I9
tp569
asg55
I0
sba(iNavigator_0_0663
NODE
p570
(dp571
g47
(lp572
I0
aI0
aI0
aI0
asg49
(lp573
sg51
(lp574
(I3
I11
tp575
a(I1
I11
tp576
a(I2
I12
tp577
a(I2
I10
tp578
asg55
I0
sba(iNavigator_0_0663
NODE
p579
(dp580
g47
(lp581
I0
aI0
aI0
aI0
asg49
(lp582
sg51
(lp583
(I3
I12
tp584
a(I1
I12
tp585
a(I2
I13
tp586
a(I2
I11
tp587
asg55
I0
sba(iNavigator_0_0663
NODE
p588
(dp589
g47
(lp590
I0
aI0
aI0
aI0
asg49
(lp591
sg51
(lp592
(I3
I13
tp593
a(I1
I13
tp594
a(I2
I14
tp595
a(I2
I12
tp596
asg55
I0
sba(iNavigator_0_0663
NODE
p597
(dp598
g47
(lp599
I0
aI0
aI0
aI0
asg49
(lp600
sg51
(lp601
(I3
I14
tp602
a(I1
I14
tp603
a(I2
I15
tp604
a(I2
I13
tp605
asg55
I0
sba(iNavigator_0_0663
NODE
p606
(dp607
g47
(lp608
I0
aI0
aI0
aI0
asg49
(lp609
sg51
(lp610
(I3
I15
tp611
a(I1
I15
tp612
a(I2
I16
tp613
a(I2
I14
tp614
asg55
I0
sba(iNavigator_0_0663
NODE
p615
(dp616
g47
(lp617
I0
aI0
aI0
aI0
asg49
(lp618
sg51
(lp619
(I3
I16
tp620
a(I1
I16
tp621
a(I2
I17
tp622
a(I2
I15
tp623
asg55
I0
sba(iNavigator_0_0663
NODE
p624
(dp625
g47
(lp626
I0
aI0
aI0
aI0
asg49
(lp627
sg51
(lp628
(I3
I17
tp629
a(I1
I17
tp630
a(I2
I18
tp631
a(I2
I16
tp632
asg55
I0
sba(iNavigator_0_0663
NODE
p633
(dp634
g47
(lp635
I0
aI0
aI0
aI0
asg49
(lp636
sg51
(lp637
(I3
I18
tp638
a(I1
I18
tp639
a(I2
I19
tp640
a(I2
I17
tp641
asg55
I0
sba(iNavigator_0_0663
NODE
p642
(dp643
g47
(lp644
I0
aI0
aI0
aI0
asg49
(lp645
sg51
(lp646
(I3
I19
tp647
a(I1
I19
tp648
a(I2
I20
tp649
a(I2
I18
tp650
asg55
I0
sba(iNavigator_0_0663
NODE
p651
(dp652
g47
(lp653
I0
aI0
aI0
aI0
asg49
(lp654
sg51
(lp655
(I3
I20
tp656
a(I1
I20
tp657
a(I2
I21
tp658
a(I2
I19
tp659
asg55
I0
sba(iNavigator_0_0663
NODE
p660
(dp661
g47
(lp662
I0
aI0
aI0
aI0
asg49
(lp663
sg51
(lp664
(I3
I21
tp665
a(I1
I21
tp666
a(I2
I22
tp667
a(I2
I20
tp668
asg55
I0
sba(iNavigator_0_0663
NODE
p669
(dp670
g47
(lp671
I0
aI0
aI0
aI0
asg49
(lp672
sg51
(lp673
(I3
I22
tp674
a(I1
I22
tp675
a(I2
I23
tp676
a(I2
I21
tp677
asg55
I0
sba(iNavigator_0_0663
NODE
p678
(dp679
g47
(lp680
I0
aI0
aI0
aI0
asg49
(lp681
sg51
(lp682
(I3
I23
tp683
a(I1
I23
tp684
a(I2
I24
tp685
a(I2
I22
tp686
asg55
I0
sba(iNavigator_0_0663
NODE
p687
(dp688
g47
(lp689
I0
aI0
aI0
aI0
asg49
(lp690
sg51
(lp691
(I3
I24
tp692
a(I1
I24
tp693
a(I2
I23
tp694
asg55
I0
sbaa(lp695
(iNavigator_0_0663
NODE
p696
(dp697
g47
(lp698
I0
aI0
aI0
aI0
asg49
(lp699
sg51
(lp700
(I4
I0
tp701
a(I2
I0
tp702
a(I3
I1
tp703
asg55
I0
sba(iNavigator_0_0663
NODE
p704
(dp705
g47
(lp706
I0
aI0
aI0
aI0
asg49
(lp707
sg51
(lp708
(I4
I1
tp709
a(I2
I1
tp710
a(I3
I2
tp711
a(I3
I0
tp712
asg55
I0
sba(iNavigator_0_0663
NODE
p713
(dp714
g47
(lp715
I0
aI0
aI0
aI0
asg49
(lp716
sg51
(lp717
(I4
I2
tp718
a(I2
I2
tp719
a(I3
I3
tp720
a(I3
I1
tp721
asg55
I0
sba(iNavigator_0_0663
NODE
p722
(dp723
g47
(lp724
I0
aI0
aI0
aI0
asg49
(lp725
sg51
(lp726
(I4
I3
tp727
a(I2
I3
tp728
a(I3
I4
tp729
a(I3
I2
tp730
asg55
I0
sba(iNavigator_0_0663
NODE
p731
(dp732
g47
(lp733
I0
aI0
aI0
aI0
asg49
(lp734
sg51
(lp735
(I4
I4
tp736
a(I2
I4
tp737
a(I3
I5
tp738
a(I3
I3
tp739
asg55
I0
sba(iNavigator_0_0663
NODE
p740
(dp741
g47
(lp742
I0
aI0
aI0
aI0
asg49
(lp743
sg51
(lp744
(I4
I5
tp745
a(I2
I5
tp746
a(I3
I6
tp747
a(I3
I4
tp748
asg55
I0
sba(iNavigator_0_0663
NODE
p749
(dp750
g47
(lp751
I0
aI0
aI0
aI0
asg49
(lp752
sg51
(lp753
(I4
I6
tp754
a(I2
I6
tp755
a(I3
I7
tp756
a(I3
I5
tp757
asg55
I0
sba(iNavigator_0_0663
NODE
p758
(dp759
g47
(lp760
I0
aI0
aI0
aI0
asg49
(lp761
sg51
(lp762
(I4
I7
tp763
a(I2
I7
tp764
a(I3
I8
tp765
a(I3
I6
tp766
asg55
I0
sba(iNavigator_0_0663
NODE
p767
(dp768
g47
(lp769
I0
aI0
aI0
aI0
asg49
(lp770
sg51
(lp771
(I4
I8
tp772
a(I2
I8
tp773
a(I3
I9
tp774
a(I3
I7
tp775
asg55
I0
sba(iNavigator_0_0663
NODE
p776
(dp777
g47
(lp778
I0
aI0
aI0
aI0
asg49
(lp779
sg51
(lp780
(I4
I9
tp781
a(I2
I9
tp782
a(I3
I10
tp783
a(I3
I8
tp784
asg55
I0
sba(iNavigator_0_0663
NODE
p785
(dp786
g47
(lp787
I0
aI0
aI0
aI0
asg49
(lp788
sg51
(lp789
(I4
I10
tp790
a(I2
I10
tp791
a(I3
I11
tp792
a(I3
I9
tp793
asg55
I0
sba(iNavigator_0_0663
NODE
p794
(dp795
g47
(lp796
I0
aI0
aI0
aI0
asg49
(lp797
sg51
(lp798
(I4
I11
tp799
a(I2
I11
tp800
a(I3
I12
tp801
a(I3
I10
tp802
asg55
I0
sba(iNavigator_0_0663
NODE
p803
(dp804
g47
(lp805
I0
aI0
aI0
aI0
asg49
(lp806
sg51
(lp807
(I4
I12
tp808
a(I2
I12
tp809
a(I3
I13
tp810
a(I3
I11
tp811
asg55
I0
sba(iNavigator_0_0663
NODE
p812
(dp813
g47
(lp814
I0
aI0
aI0
aI0
asg49
(lp815
sg51
(lp816
(I4
I13
tp817
a(I2
I13
tp818
a(I3
I14
tp819
a(I3
I12
tp820
asg55
I0
sba(iNavigator_0_0663
NODE
p821
(dp822
g47
(lp823
I0
aI0
aI0
aI0
asg49
(lp824
sg51
(lp825
(I4
I14
tp826
a(I2
I14
tp827
a(I3
I15
tp828
a(I3
I13
tp829
asg55
I0
sba(iNavigator_0_0663
NODE
p830
(dp831
g47
(lp832
I0
aI0
aI0
aI0
asg49
(lp833
sg51
(lp834
(I4
I15
tp835
a(I2
I15
tp836
a(I3
I16
tp837
a(I3
I14
tp838
asg55
I0
sba(iNavigator_0_0663
NODE
p839
(dp840
g47
(lp841
I0
aI0
aI0
aI0
asg49
(lp842
sg51
(lp843
(I4
I16
tp844
a(I2
I16
tp845
a(I3
I17
tp846
a(I3
I15
tp847
asg55
I0
sba(iNavigator_0_0663
NODE
p848
(dp849
g47
(lp850
I0
aI0
aI0
aI0
asg49
(lp851
sg51
(lp852
(I4
I17
tp853
a(I2
I17
tp854
a(I3
I18
tp855
a(I3
I16
tp856
asg55
I0
sba(iNavigator_0_0663
NODE
p857
(dp858
g47
(lp859
I0
aI0
aI0
aI0
asg49
(lp860
sg51
(lp861
(I4
I18
tp862
a(I2
I18
tp863
a(I3
I19
tp864
a(I3
I17
tp865
asg55
I0
sba(iNavigator_0_0663
NODE
p866
(dp867
g47
(lp868
I0
aI0
aI0
aI0
asg49
(lp869
sg51
(lp870
(I4
I19
tp871
a(I2
I19
tp872
a(I3
I20
tp873
a(I3
I18
tp874
asg55
I0
sba(iNavigator_0_0663
NODE
p875
(dp876
g47
(lp877
I0
aI0
aI0
aI0
asg49
(lp878
sg51
(lp879
(I4
I20
tp880
a(I2
I20
tp881
a(I3
I21
tp882
a(I3
I19
tp883
asg55
I0
sba(iNavigator_0_0663
NODE
p884
(dp885
g47
(lp886
I0
aI0
aI0
aI0
asg49
(lp887
sg51
(lp888
(I4
I21
tp889
a(I2
I21
tp890
a(I3
I22
tp891
a(I3
I20
tp892
asg55
I0
sba(iNavigator_0_0663
NODE
p893
(dp894
g47
(lp895
I0
aI0
aI0
aI0
asg49
(lp896
sg51
(lp897
(I4
I22
tp898
a(I2
I22
tp899
a(I3
I23
tp900
a(I3
I21
tp901
asg55
I0
sba(iNavigator_0_0663
NODE
p902
(dp903
g47
(lp904
I0
aI0
aI0
aI0
asg49
(lp905
sg51
(lp906
(I4
I23
tp907
a(I2
I23
tp908
a(I3
I24
tp909
a(I3
I22
tp910
asg55
I0
sba(iNavigator_0_0663
NODE
p911
(dp912
g47
(lp913
I0
aI0
aI0
aI0
asg49
(lp914
sg51
(lp915
(I4
I24
tp916
a(I2
I24
tp917
a(I3
I23
tp918
asg55
I0
sbaa(lp919
(iNavigator_0_0663
NODE
p920
(dp921
g47
(lp922
I0
aI0
aI0
aI0
asg49
(lp923
sg51
(lp924
(I5
I0
tp925
a(I3
I0
tp926
a(I4
I1
tp927
asg55
I0
sba(iNavigator_0_0663
NODE
p928
(dp929
g47
(lp930
I0
aI0
aI0
aI0
asg49
(lp931
sg51
(lp932
(I5
I1
tp933
a(I3
I1
tp934
a(I4
I2
tp935
a(I4
I0
tp936
asg55
I0
sba(iNavigator_0_0663
NODE
p937
(dp938
g47
(lp939
I0
aI0
aI0
aI0
asg49
(lp940
sg51
(lp941
(I5
I2
tp942
a(I3
I2
tp943
a(I4
I3
tp944
a(I4
I1
tp945
asg55
I0
sba(iNavigator_0_0663
NODE
p946
(dp947
g47
(lp948
I0
aI0
aI0
aI0
asg49
(lp949
sg51
(lp950
(I5
I3
tp951
a(I3
I3
tp952
a(I4
I4
tp953
a(I4
I2
tp954
asg55
I0
sba(iNavigator_0_0663
NODE
p955
(dp956
g47
(lp957
I0
aI0
aI0
aI0
asg49
(lp958
sg51
(lp959
(I5
I4
tp960
a(I3
I4
tp961
a(I4
I5
tp962
a(I4
I3
tp963
asg55
I0
sba(iNavigator_0_0663
NODE
p964
(dp965
g47
(lp966
I0
aI0
aI0
aI0
asg49
(lp967
sg51
(lp968
(I5
I5
tp969
a(I3
I5
tp970
a(I4
I6
tp971
a(I4
I4
tp972
asg55
I0
sba(iNavigator_0_0663
NODE
p973
(dp974
g47
(lp975
I0
aI0
aI0
aI0
asg49
(lp976
sg51
(lp977
(I5
I6
tp978
a(I3
I6
tp979
a(I4
I7
tp980
a(I4
I5
tp981
asg55
I0
sba(iNavigator_0_0663
NODE
p982
(dp983
g47
(lp984
I0
aI0
aI0
aI0
asg49
(lp985
sg51
(lp986
(I5
I7
tp987
a(I3
I7
tp988
a(I4
I8
tp989
a(I4
I6
tp990
asg55
I0
sba(iNavigator_0_0663
NODE
p991
(dp992
g47
(lp993
I0
aI0
aI0
aI0
asg49
(lp994
sg51
(lp995
(I5
I8
tp996
a(I3
I8
tp997
a(I4
I9
tp998
a(I4
I7
tp999
asg55
I0
sba(iNavigator_0_0663
NODE
p1000
(dp1001
g47
(lp1002
I0
aI0
aI0
aI0
asg49
(lp1003
sg51
(lp1004
(I5
I9
tp1005
a(I3
I9
tp1006
a(I4
I10
tp1007
a(I4
I8
tp1008
asg55
I0
sba(iNavigator_0_0663
NODE
p1009
(dp1010
g47
(lp1011
I0
aI0
aI0
aI0
asg49
(lp1012
sg51
(lp1013
(I5
I10
tp1014
a(I3
I10
tp1015
a(I4
I11
tp1016
a(I4
I9
tp1017
asg55
I0
sba(iNavigator_0_0663
NODE
p1018
(dp1019
g47
(lp1020
I0
aI0
aI0
aI0
asg49
(lp1021
sg51
(lp1022
(I5
I11
tp1023
a(I3
I11
tp1024
a(I4
I12
tp1025
a(I4
I10
tp1026
asg55
I0
sba(iNavigator_0_0663
NODE
p1027
(dp1028
g47
(lp1029
I0
aI0
aI0
aI0
asg49
(lp1030
sg51
(lp1031
(I5
I12
tp1032
a(I3
I12
tp1033
a(I4
I13
tp1034
a(I4
I11
tp1035
asg55
I0
sba(iNavigator_0_0663
NODE
p1036
(dp1037
g47
(lp1038
I0
aI0
aI0
aI0
asg49
(lp1039
sg51
(lp1040
(I5
I13
tp1041
a(I3
I13
tp1042
a(I4
I14
tp1043
a(I4
I12
tp1044
asg55
I0
sba(iNavigator_0_0663
NODE
p1045
(dp1046
g47
(lp1047
I0
aI0
aI0
aI0
asg49
(lp1048
sg51
(lp1049
(I5
I14
tp1050
a(I3
I14
tp1051
a(I4
I15
tp1052
a(I4
I13
tp1053
asg55
I0
sba(iNavigator_0_0663
NODE
p1054
(dp1055
g47
(lp1056
I0
aI0
aI0
aI0
asg49
(lp1057
sg51
(lp1058
(I5
I15
tp1059
a(I3
I15
tp1060
a(I4
I16
tp1061
a(I4
I14
tp1062
asg55
I0
sba(iNavigator_0_0663
NODE
p1063
(dp1064
g47
(lp1065
I0
aI0
aI0
aI0
asg49
(lp1066
sg51
(lp1067
(I5
I16
tp1068
a(I3
I16
tp1069
a(I4
I17
tp1070
a(I4
I15
tp1071
asg55
I0
sba(iNavigator_0_0663
NODE
p1072
(dp1073
g47
(lp1074
I0
aI0
aI0
aI0
asg49
(lp1075
sg51
(lp1076
(I5
I17
tp1077
a(I3
I17
tp1078
a(I4
I18
tp1079
a(I4
I16
tp1080
asg55
I0
sba(iNavigator_0_0663
NODE
p1081
(dp1082
g47
(lp1083
I0
aI0
aI0
aI0
asg49
(lp1084
sg51
(lp1085
(I5
I18
tp1086
a(I3
I18
tp1087
a(I4
I19
tp1088
a(I4
I17
tp1089
asg55
I0
sba(iNavigator_0_0663
NODE
p1090
(dp1091
g47
(lp1092
I0
aI0
aI0
aI0
asg49
(lp1093
sg51
(lp1094
(I5
I19
tp1095
a(I3
I19
tp1096
a(I4
I20
tp1097
a(I4
I18
tp1098
asg55
I0
sba(iNavigator_0_0663
NODE
p1099
(dp1100
g47
(lp1101
I0
aI0
aI0
aI0
asg49
(lp1102
sg51
(lp1103
(I5
I20
tp1104
a(I3
I20
tp1105
a(I4
I21
tp1106
a(I4
I19
tp1107
asg55
I0
sba(iNavigator_0_0663
NODE
p1108
(dp1109
g47
(lp1110
I0
aI0
aI0
aI0
asg49
(lp1111
sg51
(lp1112
(I5
I21
tp1113
a(I3
I21
tp1114
a(I4
I22
tp1115
a(I4
I20
tp1116
asg55
I0
sba(iNavigator_0_0663
NODE
p1117
(dp1118
g47
(lp1119
I0
aI0
aI0
aI0
asg49
(lp1120
sg51
(lp1121
(I5
I22
tp1122
a(I3
I22
tp1123
a(I4
I23
tp1124
a(I4
I21
tp1125
asg55
I0
sba(iNavigator_0_0663
NODE
p1126
(dp1127
g47
(lp1128
I0
aI0
aI0
aI0
asg49
(lp1129
sg51
(lp1130
(I5
I23
tp1131
a(I3
I23
tp1132
a(I4
I24
tp1133
a(I4
I22
tp1134
asg55
I0
sba(iNavigator_0_0663
NODE
p1135
(dp1136
g47
(lp1137
I0
aI0
aI0
aI0
asg49
(lp1138
sg51
(lp1139
(I5
I24
tp1140
a(I3
I24
tp1141
a(I4
I23
tp1142
asg55
I0
sbaa(lp1143
(iNavigator_0_0663
NODE
p1144
(dp1145
g47
(lp1146
I0
aI0
aI0
aI0
asg49
(lp1147
sg51
(lp1148
(I6
I0
tp1149
a(I4
I0
tp1150
a(I5
I1
tp1151
asg55
I0
sba(iNavigator_0_0663
NODE
p1152
(dp1153
g47
(lp1154
I0
aI0
aI0
aI0
asg49
(lp1155
sg51
(lp1156
(I6
I1
tp1157
a(I4
I1
tp1158
a(I5
I2
tp1159
a(I5
I0
tp1160
asg55
I0
sba(iNavigator_0_0663
NODE
p1161
(dp1162
g47
(lp1163
I0
aI0
aI0
aI0
asg49
(lp1164
sg51
(lp1165
(I6
I2
tp1166
a(I4
I2
tp1167
a(I5
I3
tp1168
a(I5
I1
tp1169
asg55
I0
sba(iNavigator_0_0663
NODE
p1170
(dp1171
g47
(lp1172
I0
aI0
aI0
aI0
asg49
(lp1173
sg51
(lp1174
(I6
I3
tp1175
a(I4
I3
tp1176
a(I5
I4
tp1177
a(I5
I2
tp1178
asg55
I0
sba(iNavigator_0_0663
NODE
p1179
(dp1180
g47
(lp1181
I0
aI0
aI0
aI0
asg49
(lp1182
sg51
(lp1183
(I6
I4
tp1184
a(I4
I4
tp1185
a(I5
I5
tp1186
a(I5
I3
tp1187
asg55
I0
sba(iNavigator_0_0663
NODE
p1188
(dp1189
g47
(lp1190
I0
aI0
aI0
aI0
asg49
(lp1191
sg51
(lp1192
(I6
I5
tp1193
a(I4
I5
tp1194
a(I5
I6
tp1195
a(I5
I4
tp1196
asg55
I0
sba(iNavigator_0_0663
NODE
p1197
(dp1198
g47
(lp1199
I0
aI0
aI0
aI0
asg49
(lp1200
sg51
(lp1201
(I6
I6
tp1202
a(I4
I6
tp1203
a(I5
I7
tp1204
a(I5
I5
tp1205
asg55
I0
sba(iNavigator_0_0663
NODE
p1206
(dp1207
g47
(lp1208
I0
aI0
aI0
aI0
asg49
(lp1209
sg51
(lp1210
(I6
I7
tp1211
a(I4
I7
tp1212
a(I5
I8
tp1213
a(I5
I6
tp1214
asg55
I0
sba(iNavigator_0_0663
NODE
p1215
(dp1216
g47
(lp1217
I0
aI0
aI0
aI0
asg49
(lp1218
sg51
(lp1219
(I6
I8
tp1220
a(I4
I8
tp1221
a(I5
I9
tp1222
a(I5
I7
tp1223
asg55
I0
sba(iNavigator_0_0663
NODE
p1224
(dp1225
g47
(lp1226
I0
aI0
aI0
aI0
asg49
(lp1227
sg51
(lp1228
(I6
I9
tp1229
a(I4
I9
tp1230
a(I5
I10
tp1231
a(I5
I8
tp1232
asg55
I0
sba(iNavigator_0_0663
NODE
p1233
(dp1234
g47
(lp1235
I0
aI0
aI0
aI0
asg49
(lp1236
sg51
(lp1237
(I6
I10
tp1238
a(I4
I10
tp1239
a(I5
I11
tp1240
a(I5
I9
tp1241
asg55
I0
sba(iNavigator_0_0663
NODE
p1242
(dp1243
g47
(lp1244
I0
aI0
aI0
aI0
asg49
(lp1245
sg51
(lp1246
(I6
I11
tp1247
a(I4
I11
tp1248
a(I5
I12
tp1249
a(I5
I10
tp1250
asg55
I0
sba(iNavigator_0_0663
NODE
p1251
(dp1252
g47
(lp1253
I0
aI0
aI0
aI0
asg49
(lp1254
sg51
(lp1255
(I6
I12
tp1256
a(I4
I12
tp1257
a(I5
I13
tp1258
a(I5
I11
tp1259
asg55
I0
sba(iNavigator_0_0663
NODE
p1260
(dp1261
g47
(lp1262
I0
aI0
aI0
aI0
asg49
(lp1263
sg51
(lp1264
(I6
I13
tp1265
a(I4
I13
tp1266
a(I5
I14
tp1267
a(I5
I12
tp1268
asg55
I0
sba(iNavigator_0_0663
NODE
p1269
(dp1270
g47
(lp1271
I0
aI0
aI0
aI0
asg49
(lp1272
sg51
(lp1273
(I6
I14
tp1274
a(I4
I14
tp1275
a(I5
I15
tp1276
a(I5
I13
tp1277
asg55
I0
sba(iNavigator_0_0663
NODE
p1278
(dp1279
g47
(lp1280
I0
aI0
aI0
aI0
asg49
(lp1281
sg51
(lp1282
(I6
I15
tp1283
a(I4
I15
tp1284
a(I5
I16
tp1285
a(I5
I14
tp1286
asg55
I0
sba(iNavigator_0_0663
NODE
p1287
(dp1288
g47
(lp1289
I0
aI0
aI0
aI0
asg49
(lp1290
sg51
(lp1291
(I6
I16
tp1292
a(I4
I16
tp1293
a(I5
I17
tp1294
a(I5
I15
tp1295
asg55
I0
sba(iNavigator_0_0663
NODE
p1296
(dp1297
g47
(lp1298
I0
aI0
aI0
aI0
asg49
(lp1299
sg51
(lp1300
(I6
I17
tp1301
a(I4
I17
tp1302
a(I5
I18
tp1303
a(I5
I16
tp1304
asg55
I0
sba(iNavigator_0_0663
NODE
p1305
(dp1306
g47
(lp1307
I0
aI0
aI0
aI0
asg49
(lp1308
sg51
(lp1309
(I6
I18
tp1310
a(I4
I18
tp1311
a(I5
I19
tp1312
a(I5
I17
tp1313
asg55
I0
sba(iNavigator_0_0663
NODE
p1314
(dp1315
g47
(lp1316
I0
aI0
aI0
aI0
asg49
(lp1317
sg51
(lp1318
(I6
I19
tp1319
a(I4
I19
tp1320
a(I5
I20
tp1321
a(I5
I18
tp1322
asg55
I0
sba(iNavigator_0_0663
NODE
p1323
(dp1324
g47
(lp1325
I0
aI0
aI0
aI0
asg49
(lp1326
sg51
(lp1327
(I6
I20
tp1328
a(I4
I20
tp1329
a(I5
I21
tp1330
a(I5
I19
tp1331
asg55
I0
sba(iNavigator_0_0663
NODE
p1332
(dp1333
g47
(lp1334
I0
aI0
aI0
aI0
asg49
(lp1335
sg51
(lp1336
(I6
I21
tp1337
a(I4
I21
tp1338
a(I5
I22
tp1339
a(I5
I20
tp1340
asg55
I0
sba(iNavigator_0_0663
NODE
p1341
(dp1342
g47
(lp1343
I0
aI0
aI0
aI0
asg49
(lp1344
sg51
(lp1345
(I6
I22
tp1346
a(I4
I22
tp1347
a(I5
I23
tp1348
a(I5
I21
tp1349
asg55
I0
sba(iNavigator_0_0663
NODE
p1350
(dp1351
g47
(lp1352
I0
aI0
aI0
aI0
asg49
(lp1353
sg51
(lp1354
(I6
I23
tp1355
a(I4
I23
tp1356
a(I5
I24
tp1357
a(I5
I22
tp1358
asg55
I0
sba(iNavigator_0_0663
NODE
p1359
(dp1360
g47
(lp1361
I0
aI0
aI0
aI0
asg49
(lp1362
sg51
(lp1363
(I6
I24
tp1364
a(I4
I24
tp1365
a(I5
I23
tp1366
asg55
I0
sbaa(lp1367
(iNavigator_0_0663
NODE
p1368
(dp1369
g47
(lp1370
I0
aI0
aI0
aI0
asg49
(lp1371
sg51
(lp1372
(I7
I0
tp1373
a(I5
I0
tp1374
a(I6
I1
tp1375
asg55
I0
sba(iNavigator_0_0663
NODE
p1376
(dp1377
g47
(lp1378
I0
aI0
aI0
aI0
asg49
(lp1379
sg51
(lp1380
(I7
I1
tp1381
a(I5
I1
tp1382
a(I6
I2
tp1383
a(I6
I0
tp1384
asg55
I0
sba(iNavigator_0_0663
NODE
p1385
(dp1386
g47
(lp1387
I0
aI0
aI0
aI0
asg49
(lp1388
sg51
(lp1389
(I7
I2
tp1390
a(I5
I2
tp1391
a(I6
I3
tp1392
a(I6
I1
tp1393
asg55
I0
sba(iNavigator_0_0663
NODE
p1394
(dp1395
g47
(lp1396
I0
aI0
aI0
aI0
asg49
(lp1397
sg51
(lp1398
(I7
I3
tp1399
a(I5
I3
tp1400
a(I6
I4
tp1401
a(I6
I2
tp1402
asg55
I0
sba(iNavigator_0_0663
NODE
p1403
(dp1404
g47
(lp1405
I0
aI0
aI0
aI0
asg49
(lp1406
sg51
(lp1407
(I7
I4
tp1408
a(I5
I4
tp1409
a(I6
I5
tp1410
a(I6
I3
tp1411
asg55
I0
sba(iNavigator_0_0663
NODE
p1412
(dp1413
g47
(lp1414
I0
aI0
aI0
aI0
asg49
(lp1415
sg51
(lp1416
(I7
I5
tp1417
a(I5
I5
tp1418
a(I6
I6
tp1419
a(I6
I4
tp1420
asg55
I0
sba(iNavigator_0_0663
NODE
p1421
(dp1422
g47
(lp1423
I0
aI0
aI0
aI0
asg49
(lp1424
sg51
(lp1425
(I7
I6
tp1426
a(I5
I6
tp1427
a(I6
I7
tp1428
a(I6
I5
tp1429
asg55
I0
sba(iNavigator_0_0663
NODE
p1430
(dp1431
g47
(lp1432
I0
aI0
aI0
aI0
asg49
(lp1433
sg51
(lp1434
(I7
I7
tp1435
a(I5
I7
tp1436
a(I6
I8
tp1437
a(I6
I6
tp1438
asg55
I0
sba(iNavigator_0_0663
NODE
p1439
(dp1440
g47
(lp1441
I0
aI0
aI0
aI0
asg49
(lp1442
sg51
(lp1443
(I7
I8
tp1444
a(I5
I8
tp1445
a(I6
I9
tp1446
a(I6
I7
tp1447
asg55
I0
sba(iNavigator_0_0663
NODE
p1448
(dp1449
g47
(lp1450
I0
aI0
aI0
aI0
asg49
(lp1451
sg51
(lp1452
(I7
I9
tp1453
a(I5
I9
tp1454
a(I6
I10
tp1455
a(I6
I8
tp1456
asg55
I0
sba(iNavigator_0_0663
NODE
p1457
(dp1458
g47
(lp1459
I0
aI0
aI0
aI0
asg49
(lp1460
sg51
(lp1461
(I7
I10
tp1462
a(I5
I10
tp1463
a(I6
I11
tp1464
a(I6
I9
tp1465
asg55
I0
sba(iNavigator_0_0663
NODE
p1466
(dp1467
g47
(lp1468
I0
aI0
aI0
aI0
asg49
(lp1469
sg51
(lp1470
(I7
I11
tp1471
a(I5
I11
tp1472
a(I6
I12
tp1473
a(I6
I10
tp1474
asg55
I0
sba(iNavigator_0_0663
NODE
p1475
(dp1476
g47
(lp1477
I0
aI0
aI0
aI0
asg49
(lp1478
sg51
(lp1479
(I7
I12
tp1480
a(I5
I12
tp1481
a(I6
I13
tp1482
a(I6
I11
tp1483
asg55
I0
sba(iNavigator_0_0663
NODE
p1484
(dp1485
g47
(lp1486
I0
aI0
aI0
aI0
asg49
(lp1487
sg51
(lp1488
(I7
I13
tp1489
a(I5
I13
tp1490
a(I6
I14
tp1491
a(I6
I12
tp1492
asg55
I0
sba(iNavigator_0_0663
NODE
p1493
(dp1494
g47
(lp1495
I0
aI0
aI0
aI0
asg49
(lp1496
sg51
(lp1497
(I7
I14
tp1498
a(I5
I14
tp1499
a(I6
I15
tp1500
a(I6
I13
tp1501
asg55
I0
sba(iNavigator_0_0663
NODE
p1502
(dp1503
g47
(lp1504
I0
aI0
aI0
aI0
asg49
(lp1505
sg51
(lp1506
(I7
I15
tp1507
a(I5
I15
tp1508
a(I6
I16
tp1509
a(I6
I14
tp1510
asg55
I0
sba(iNavigator_0_0663
NODE
p1511
(dp1512
g47
(lp1513
I0
aI0
aI0
aI0
asg49
(lp1514
sg51
(lp1515
(I7
I16
tp1516
a(I5
I16
tp1517
a(I6
I17
tp1518
a(I6
I15
tp1519
asg55
I0
sba(iNavigator_0_0663
NODE
p1520
(dp1521
g47
(lp1522
I0
aI0
aI0
aI0
asg49
(lp1523
sg51
(lp1524
(I7
I17
tp1525
a(I5
I17
tp1526
a(I6
I18
tp1527
a(I6
I16
tp1528
asg55
I0
sba(iNavigator_0_0663
NODE
p1529
(dp1530
g47
(lp1531
I0
aI0
aI0
aI0
asg49
(lp1532
sg51
(lp1533
(I7
I18
tp1534
a(I5
I18
tp1535
a(I6
I19
tp1536
a(I6
I17
tp1537
asg55
I0
sba(iNavigator_0_0663
NODE
p1538
(dp1539
g47
(lp1540
I0
aI0
aI0
aI0
asg49
(lp1541
sg51
(lp1542
(I7
I19
tp1543
a(I5
I19
tp1544
a(I6
I20
tp1545
a(I6
I18
tp1546
asg55
I0
sba(iNavigator_0_0663
NODE
p1547
(dp1548
g47
(lp1549
I0
aI0
aI0
aI0
asg49
(lp1550
sg51
(lp1551
(I7
I20
tp1552
a(I5
I20
tp1553
a(I6
I21
tp1554
a(I6
I19
tp1555
asg55
I0
sba(iNavigator_0_0663
NODE
p1556
(dp1557
g47
(lp1558
I0
aI0
aI0
aI0
asg49
(lp1559
sg51
(lp1560
(I7
I21
tp1561
a(I5
I21
tp1562
a(I6
I22
tp1563
a(I6
I20
tp1564
asg55
I0
sba(iNavigator_0_0663
NODE
p1565
(dp1566
g47
(lp1567
I0
aI0
aI0
aI0
asg49
(lp1568
sg51
(lp1569
(I7
I22
tp1570
a(I5
I22
tp1571
a(I6
I23
tp1572
a(I6
I21
tp1573
asg55
I0
sba(iNavigator_0_0663
NODE
p1574
(dp1575
g47
(lp1576
I0
aI0
aI0
aI0
asg49
(lp1577
sg51
(lp1578
(I7
I23
tp1579
a(I5
I23
tp1580
a(I6
I24
tp1581
a(I6
I22
tp1582
asg55
I0
sba(iNavigator_0_0663
NODE
p1583
(dp1584
g47
(lp1585
I0
aI0
aI0
aI0
asg49
(lp1586
sg51
(lp1587
(I7
I24
tp1588
a(I5
I24
tp1589
a(I6
I23
tp1590
asg55
I0
sbaa(lp1591
(iNavigator_0_0663
NODE
p1592
(dp1593
g47
(lp1594
I0
aI0
aI0
aI0
asg49
(lp1595
sg51
(lp1596
(I8
I0
tp1597
a(I6
I0
tp1598
a(I7
I1
tp1599
asg55
I0
sba(iNavigator_0_0663
NODE
p1600
(dp1601
g47
(lp1602
I0
aI0
aI0
aI0
asg49
(lp1603
sg51
(lp1604
(I8
I1
tp1605
a(I6
I1
tp1606
a(I7
I2
tp1607
a(I7
I0
tp1608
asg55
I0
sba(iNavigator_0_0663
NODE
p1609
(dp1610
g47
(lp1611
I0
aI0
aI0
aI0
asg49
(lp1612
sg51
(lp1613
(I8
I2
tp1614
a(I6
I2
tp1615
a(I7
I3
tp1616
a(I7
I1
tp1617
asg55
I0
sba(iNavigator_0_0663
NODE
p1618
(dp1619
g47
(lp1620
I0
aI0
aI0
aI0
asg49
(lp1621
sg51
(lp1622
(I8
I3
tp1623
a(I6
I3
tp1624
a(I7
I4
tp1625
a(I7
I2
tp1626
asg55
I0
sba(iNavigator_0_0663
NODE
p1627
(dp1628
g47
(lp1629
I0
aI0
aI0
aI0
asg49
(lp1630
sg51
(lp1631
(I8
I4
tp1632
a(I6
I4
tp1633
a(I7
I5
tp1634
a(I7
I3
tp1635
asg55
I0
sba(iNavigator_0_0663
NODE
p1636
(dp1637
g47
(lp1638
I0
aI0
aI0
aI0
asg49
(lp1639
sg51
(lp1640
(I8
I5
tp1641
a(I6
I5
tp1642
a(I7
I6
tp1643
a(I7
I4
tp1644
asg55
I0
sba(iNavigator_0_0663
NODE
p1645
(dp1646
g47
(lp1647
I0
aI0
aI0
aI0
asg49
(lp1648
sg51
(lp1649
(I8
I6
tp1650
a(I6
I6
tp1651
a(I7
I7
tp1652
a(I7
I5
tp1653
asg55
I0
sba(iNavigator_0_0663
NODE
p1654
(dp1655
g47
(lp1656
I0
aI0
aI0
aI0
asg49
(lp1657
sg51
(lp1658
(I8
I7
tp1659
a(I6
I7
tp1660
a(I7
I8
tp1661
a(I7
I6
tp1662
asg55
I0
sba(iNavigator_0_0663
NODE
p1663
(dp1664
g47
(lp1665
I0
aI0
aI0
aI0
asg49
(lp1666
sg51
(lp1667
(I8
I8
tp1668
a(I6
I8
tp1669
a(I7
I9
tp1670
a(I7
I7
tp1671
asg55
I0
sba(iNavigator_0_0663
NODE
p1672
(dp1673
g47
(lp1674
I0
aI0
aI0
aI0
asg49
(lp1675
sg51
(lp1676
(I8
I9
tp1677
a(I6
I9
tp1678
a(I7
I10
tp1679
a(I7
I8
tp1680
asg55
I0
sba(iNavigator_0_0663
NODE
p1681
(dp1682
g47
(lp1683
I0
aI0
aI0
aI0
asg49
(lp1684
sg51
(lp1685
(I8
I10
tp1686
a(I6
I10
tp1687
a(I7
I11
tp1688
a(I7
I9
tp1689
asg55
I0
sba(iNavigator_0_0663
NODE
p1690
(dp1691
g47
(lp1692
I0
aI0
aI0
aI0
asg49
(lp1693
sg51
(lp1694
(I8
I11
tp1695
a(I6
I11
tp1696
a(I7
I12
tp1697
a(I7
I10
tp1698
asg55
I0
sba(iNavigator_0_0663
NODE
p1699
(dp1700
g47
(lp1701
I0
aI0
aI0
aI0
asg49
(lp1702
sg51
(lp1703
(I8
I12
tp1704
a(I6
I12
tp1705
a(I7
I13
tp1706
a(I7
I11
tp1707
asg55
I0
sba(iNavigator_0_0663
NODE
p1708
(dp1709
g47
(lp1710
I0
aI0
aI0
aI0
asg49
(lp1711
sg51
(lp1712
(I8
I13
tp1713
a(I6
I13
tp1714
a(I7
I14
tp1715
a(I7
I12
tp1716
asg55
I0
sba(iNavigator_0_0663
NODE
p1717
(dp1718
g47
(lp1719
I0
aI0
aI0
aI0
asg49
(lp1720
sg51
(lp1721
(I8
I14
tp1722
a(I6
I14
tp1723
a(I7
I15
tp1724
a(I7
I13
tp1725
asg55
I0
sba(iNavigator_0_0663
NODE
p1726
(dp1727
g47
(lp1728
I0
aI0
aI0
aI0
asg49
(lp1729
sg51
(lp1730
(I8
I15
tp1731
a(I6
I15
tp1732
a(I7
I16
tp1733
a(I7
I14
tp1734
asg55
I0
sba(iNavigator_0_0663
NODE
p1735
(dp1736
g47
(lp1737
I0
aI0
aI0
aI0
asg49
(lp1738
sg51
(lp1739
(I8
I16
tp1740
a(I6
I16
tp1741
a(I7
I17
tp1742
a(I7
I15
tp1743
asg55
I0
sba(iNavigator_0_0663
NODE
p1744
(dp1745
g47
(lp1746
I0
aI0
aI0
aI0
asg49
(lp1747
sg51
(lp1748
(I8
I17
tp1749
a(I6
I17
tp1750
a(I7
I18
tp1751
a(I7
I16
tp1752
asg55
I0
sba(iNavigator_0_0663
NODE
p1753
(dp1754
g47
(lp1755
I0
aI0
aI0
aI0
asg49
(lp1756
sg51
(lp1757
(I8
I18
tp1758
a(I6
I18
tp1759
a(I7
I19
tp1760
a(I7
I17
tp1761
asg55
I0
sba(iNavigator_0_0663
NODE
p1762
(dp1763
g47
(lp1764
I0
aI0
aI0
aI0
asg49
(lp1765
sg51
(lp1766
(I8
I19
tp1767
a(I6
I19
tp1768
a(I7
I20
tp1769
a(I7
I18
tp1770
asg55
I0
sba(iNavigator_0_0663
NODE
p1771
(dp1772
g47
(lp1773
I0
aI0
aI0
aI0
asg49
(lp1774
sg51
(lp1775
(I8
I20
tp1776
a(I6
I20
tp1777
a(I7
I21
tp1778
a(I7
I19
tp1779
asg55
I0
sba(iNavigator_0_0663
NODE
p1780
(dp1781
g47
(lp1782
I0
aI0
aI0
aI0
asg49
(lp1783
sg51
(lp1784
(I8
I21
tp1785
a(I6
I21
tp1786
a(I7
I22
tp1787
a(I7
I20
tp1788
asg55
I0
sba(iNavigator_0_0663
NODE
p1789
(dp1790
g47
(lp1791
I0
aI0
aI0
aI0
asg49
(lp1792
sg51
(lp1793
(I8
I22
tp1794
a(I6
I22
tp1795
a(I7
I23
tp1796
a(I7
I21
tp1797
asg55
I0
sba(iNavigator_0_0663
NODE
p1798
(dp1799
g47
(lp1800
I0
aI0
aI0
aI0
asg49
(lp1801
sg51
(lp1802
(I8
I23
tp1803
a(I6
I23
tp1804
a(I7
I24
tp1805
a(I7
I22
tp1806
asg55
I0
sba(iNavigator_0_0663
NODE
p1807
(dp1808
g47
(lp1809
I0
aI0
aI0
aI0
asg49
(lp1810
sg51
(lp1811
(I8
I24
tp1812
a(I6
I24
tp1813
a(I7
I23
tp1814
asg55
I0
sbaa(lp1815
(iNavigator_0_0663
NODE
p1816
(dp1817
g47
(lp1818
I0
aI0
aI0
aI0
asg49
(lp1819
sg51
(lp1820
(I9
I0
tp1821
a(I7
I0
tp1822
a(I8
I1
tp1823
asg55
I0
sba(iNavigator_0_0663
NODE
p1824
(dp1825
g47
(lp1826
I0
aI0
aI0
aI0
asg49
(lp1827
sg51
(lp1828
(I9
I1
tp1829
a(I7
I1
tp1830
a(I8
I2
tp1831
a(I8
I0
tp1832
asg55
I0
sba(iNavigator_0_0663
NODE
p1833
(dp1834
g47
(lp1835
I0
aI0
aI0
aI0
asg49
(lp1836
sg51
(lp1837
(I9
I2
tp1838
a(I7
I2
tp1839
a(I8
I3
tp1840
a(I8
I1
tp1841
asg55
I0
sba(iNavigator_0_0663
NODE
p1842
(dp1843
g47
(lp1844
I0
aI0
aI0
aI0
asg49
(lp1845
sg51
(lp1846
(I9
I3
tp1847
a(I7
I3
tp1848
a(I8
I4
tp1849
a(I8
I2
tp1850
asg55
I0
sba(iNavigator_0_0663
NODE
p1851
(dp1852
g47
(lp1853
I0
aI0
aI0
aI0
asg49
(lp1854
sg51
(lp1855
(I9
I4
tp1856
a(I7
I4
tp1857
a(I8
I5
tp1858
a(I8
I3
tp1859
asg55
I0
sba(iNavigator_0_0663
NODE
p1860
(dp1861
g47
(lp1862
I0
aI0
aI0
aI0
asg49
(lp1863
sg51
(lp1864
(I9
I5
tp1865
a(I7
I5
tp1866
a(I8
I6
tp1867
a(I8
I4
tp1868
asg55
I0
sba(iNavigator_0_0663
NODE
p1869
(dp1870
g47
(lp1871
I0
aI0
aI0
aI0
asg49
(lp1872
sg51
(lp1873
(I9
I6
tp1874
a(I7
I6
tp1875
a(I8
I7
tp1876
a(I8
I5
tp1877
asg55
I0
sba(iNavigator_0_0663
NODE
p1878
(dp1879
g47
(lp1880
I0
aI0
aI0
aI0
asg49
(lp1881
sg51
(lp1882
(I9
I7
tp1883
a(I7
I7
tp1884
a(I8
I8
tp1885
a(I8
I6
tp1886
asg55
I0
sba(iNavigator_0_0663
NODE
p1887
(dp1888
g47
(lp1889
I0
aI0
aI0
aI0
asg49
(lp1890
sg51
(lp1891
(I9
I8
tp1892
a(I7
I8
tp1893
a(I8
I9
tp1894
a(I8
I7
tp1895
asg55
I0
sba(iNavigator_0_0663
NODE
p1896
(dp1897
g47
(lp1898
I0
aI0
aI0
aI0
asg49
(lp1899
sg51
(lp1900
(I9
I9
tp1901
a(I7
I9
tp1902
a(I8
I10
tp1903
a(I8
I8
tp1904
asg55
I0
sba(iNavigator_0_0663
NODE
p1905
(dp1906
g47
(lp1907
I0
aI0
aI0
aI0
asg49
(lp1908
sg51
(lp1909
(I9
I10
tp1910
a(I7
I10
tp1911
a(I8
I11
tp1912
a(I8
I9
tp1913
asg55
I0
sba(iNavigator_0_0663
NODE
p1914
(dp1915
g47
(lp1916
I0
aI0
aI0
aI0
asg49
(lp1917
sg51
(lp1918
(I9
I11
tp1919
a(I7
I11
tp1920
a(I8
I12
tp1921
a(I8
I10
tp1922
asg55
I0
sba(iNavigator_0_0663
NODE
p1923
(dp1924
g47
(lp1925
I0
aI0
aI0
aI0
asg49
(lp1926
sg51
(lp1927
(I9
I12
tp1928
a(I7
I12
tp1929
a(I8
I13
tp1930
a(I8
I11
tp1931
asg55
I0
sba(iNavigator_0_0663
NODE
p1932
(dp1933
g47
(lp1934
I0
aI0
aI0
aI0
asg49
(lp1935
sg51
(lp1936
(I9
I13
tp1937
a(I7
I13
tp1938
a(I8
I14
tp1939
a(I8
I12
tp1940
asg55
I0
sba(iNavigator_0_0663
NODE
p1941
(dp1942
g47
(lp1943
I0
aI0
aI0
aI0
asg49
(lp1944
sg51
(lp1945
(I9
I14
tp1946
a(I7
I14
tp1947
a(I8
I15
tp1948
a(I8
I13
tp1949
asg55
I0
sba(iNavigator_0_0663
NODE
p1950
(dp1951
g47
(lp1952
I0
aI0
aI0
aI0
asg49
(lp1953
sg51
(lp1954
(I9
I15
tp1955
a(I7
I15
tp1956
a(I8
I16
tp1957
a(I8
I14
tp1958
asg55
I0
sba(iNavigator_0_0663
NODE
p1959
(dp1960
g47
(lp1961
I0
aI0
aI0
aI0
asg49
(lp1962
sg51
(lp1963
(I9
I16
tp1964
a(I7
I16
tp1965
a(I8
I17
tp1966
a(I8
I15
tp1967
asg55
I0
sba(iNavigator_0_0663
NODE
p1968
(dp1969
g47
(lp1970
I0
aI0
aI0
aI0
asg49
(lp1971
sg51
(lp1972
(I9
I17
tp1973
a(I7
I17
tp1974
a(I8
I18
tp1975
a(I8
I16
tp1976
asg55
I0
sba(iNavigator_0_0663
NODE
p1977
(dp1978
g47
(lp1979
I0
aI0
aI0
aI0
asg49
(lp1980
sg51
(lp1981
(I9
I18
tp1982
a(I7
I18
tp1983
a(I8
I19
tp1984
a(I8
I17
tp1985
asg55
I0
sba(iNavigator_0_0663
NODE
p1986
(dp1987
g47
(lp1988
I0
aI0
aI0
aI0
asg49
(lp1989
sg51
(lp1990
(I9
I19
tp1991
a(I7
I19
tp1992
a(I8
I20
tp1993
a(I8
I18
tp1994
asg55
I0
sba(iNavigator_0_0663
NODE
p1995
(dp1996
g47
(lp1997
I0
aI0
aI0
aI0
asg49
(lp1998
sg51
(lp1999
(I9
I20
tp2000
a(I7
I20
tp2001
a(I8
I21
tp2002
a(I8
I19
tp2003
asg55
I0
sba(iNavigator_0_0663
NODE
p2004
(dp2005
g47
(lp2006
I0
aI0
aI0
aI0
asg49
(lp2007
sg51
(lp2008
(I9
I21
tp2009
a(I7
I21
tp2010
a(I8
I22
tp2011
a(I8
I20
tp2012
asg55
I0
sba(iNavigator_0_0663
NODE
p2013
(dp2014
g47
(lp2015
I0
aI0
aI0
aI0
asg49
(lp2016
sg51
(lp2017
(I9
I22
tp2018
a(I7
I22
tp2019
a(I8
I23
tp2020
a(I8
I21
tp2021
asg55
I0
sba(iNavigator_0_0663
NODE
p2022
(dp2023
g47
(lp2024
I0
aI0
aI0
aI0
asg49
(lp2025
sg51
(lp2026
(I9
I23
tp2027
a(I7
I23
tp2028
a(I8
I24
tp2029
a(I8
I22
tp2030
asg55
I0
sba(iNavigator_0_0663
NODE
p2031
(dp2032
g47
(lp2033
I0
aI0
aI0
aI0
asg49
(lp2034
sg51
(lp2035
(I9
I24
tp2036
a(I7
I24
tp2037
a(I8
I23
tp2038
asg55
I0
sbaa(lp2039
(iNavigator_0_0663
NODE
p2040
(dp2041
g47
(lp2042
I0
aI0
aI0
aI0
asg49
(lp2043
sg51
(lp2044
(I10
I0
tp2045
a(I8
I0
tp2046
a(I9
I1
tp2047
asg55
I0
sba(iNavigator_0_0663
NODE
p2048
(dp2049
g47
(lp2050
I0
aI0
aI0
aI0
asg49
(lp2051
sg51
(lp2052
(I10
I1
tp2053
a(I8
I1
tp2054
a(I9
I2
tp2055
a(I9
I0
tp2056
asg55
I0
sba(iNavigator_0_0663
NODE
p2057
(dp2058
g47
(lp2059
I0
aI0
aI0
aI0
asg49
(lp2060
sg51
(lp2061
(I10
I2
tp2062
a(I8
I2
tp2063
a(I9
I3
tp2064
a(I9
I1
tp2065
asg55
I0
sba(iNavigator_0_0663
NODE
p2066
(dp2067
g47
(lp2068
I0
aI0
aI0
aI0
asg49
(lp2069
sg51
(lp2070
(I10
I3
tp2071
a(I8
I3
tp2072
a(I9
I4
tp2073
a(I9
I2
tp2074
asg55
I0
sba(iNavigator_0_0663
NODE
p2075
(dp2076
g47
(lp2077
I0
aI0
aI0
aI0
asg49
(lp2078
sg51
(lp2079
(I10
I4
tp2080
a(I8
I4
tp2081
a(I9
I5
tp2082
a(I9
I3
tp2083
asg55
I0
sba(iNavigator_0_0663
NODE
p2084
(dp2085
g47
(lp2086
I0
aI0
aI0
aI0
asg49
(lp2087
sg51
(lp2088
(I10
I5
tp2089
a(I8
I5
tp2090
a(I9
I6
tp2091
a(I9
I4
tp2092
asg55
I0
sba(iNavigator_0_0663
NODE
p2093
(dp2094
g47
(lp2095
I0
aI0
aI0
aI0
asg49
(lp2096
sg51
(lp2097
(I10
I6
tp2098
a(I8
I6
tp2099
a(I9
I7
tp2100
a(I9
I5
tp2101
asg55
I0
sba(iNavigator_0_0663
NODE
p2102
(dp2103
g47
(lp2104
I0
aI0
aI0
aI0
asg49
(lp2105
sg51
(lp2106
(I10
I7
tp2107
a(I8
I7
tp2108
a(I9
I8
tp2109
a(I9
I6
tp2110
asg55
I0
sba(iNavigator_0_0663
NODE
p2111
(dp2112
g47
(lp2113
I0
aI0
aI0
aI0
asg49
(lp2114
sg51
(lp2115
(I10
I8
tp2116
a(I8
I8
tp2117
a(I9
I9
tp2118
a(I9
I7
tp2119
asg55
I0
sba(iNavigator_0_0663
NODE
p2120
(dp2121
g47
(lp2122
I0
aI0
aI0
aI0
asg49
(lp2123
sg51
(lp2124
(I10
I9
tp2125
a(I8
I9
tp2126
a(I9
I10
tp2127
a(I9
I8
tp2128
asg55
I0
sba(iNavigator_0_0663
NODE
p2129
(dp2130
g47
(lp2131
I0
aI0
aI0
aI0
asg49
(lp2132
sg51
(lp2133
(I10
I10
tp2134
a(I8
I10
tp2135
a(I9
I11
tp2136
a(I9
I9
tp2137
asg55
I0
sba(iNavigator_0_0663
NODE
p2138
(dp2139
g47
(lp2140
I0
aI0
aI0
aI0
asg49
(lp2141
sg51
(lp2142
(I10
I11
tp2143
a(I8
I11
tp2144
a(I9
I12
tp2145
a(I9
I10
tp2146
asg55
I0
sba(iNavigator_0_0663
NODE
p2147
(dp2148
g47
(lp2149
I0
aI0
aI0
aI0
asg49
(lp2150
sg51
(lp2151
(I10
I12
tp2152
a(I8
I12
tp2153
a(I9
I13
tp2154
a(I9
I11
tp2155
asg55
I0
sba(iNavigator_0_0663
NODE
p2156
(dp2157
g47
(lp2158
I0
aI0
aI0
aI0
asg49
(lp2159
sg51
(lp2160
(I10
I13
tp2161
a(I8
I13
tp2162
a(I9
I14
tp2163
a(I9
I12
tp2164
asg55
I0
sba(iNavigator_0_0663
NODE
p2165
(dp2166
g47
(lp2167
I0
aI0
aI0
aI0
asg49
(lp2168
sg51
(lp2169
(I10
I14
tp2170
a(I8
I14
tp2171
a(I9
I15
tp2172
a(I9
I13
tp2173
asg55
I0
sba(iNavigator_0_0663
NODE
p2174
(dp2175
g47
(lp2176
I0
aI0
aI0
aI0
asg49
(lp2177
sg51
(lp2178
(I10
I15
tp2179
a(I8
I15
tp2180
a(I9
I16
tp2181
a(I9
I14
tp2182
asg55
I0
sba(iNavigator_0_0663
NODE
p2183
(dp2184
g47
(lp2185
I0
aI0
aI0
aI0
asg49
(lp2186
sg51
(lp2187
(I10
I16
tp2188
a(I8
I16
tp2189
a(I9
I17
tp2190
a(I9
I15
tp2191
asg55
I0
sba(iNavigator_0_0663
NODE
p2192
(dp2193
g47
(lp2194
I0
aI0
aI0
aI0
asg49
(lp2195
sg51
(lp2196
(I10
I17
tp2197
a(I8
I17
tp2198
a(I9
I18
tp2199
a(I9
I16
tp2200
asg55
I0
sba(iNavigator_0_0663
NODE
p2201
(dp2202
g47
(lp2203
I0
aI0
aI0
aI0
asg49
(lp2204
sg51
(lp2205
(I10
I18
tp2206
a(I8
I18
tp2207
a(I9
I19
tp2208
a(I9
I17
tp2209
asg55
I0
sba(iNavigator_0_0663
NODE
p2210
(dp2211
g47
(lp2212
I0
aI0
aI0
aI0
asg49
(lp2213
sg51
(lp2214
(I10
I19
tp2215
a(I8
I19
tp2216
a(I9
I20
tp2217
a(I9
I18
tp2218
asg55
I0
sba(iNavigator_0_0663
NODE
p2219
(dp2220
g47
(lp2221
I0
aI0
aI0
aI0
asg49
(lp2222
sg51
(lp2223
(I10
I20
tp2224
a(I8
I20
tp2225
a(I9
I21
tp2226
a(I9
I19
tp2227
asg55
I0
sba(iNavigator_0_0663
NODE
p2228
(dp2229
g47
(lp2230
I0
aI0
aI0
aI0
asg49
(lp2231
sg51
(lp2232
(I10
I21
tp2233
a(I8
I21
tp2234
a(I9
I22
tp2235
a(I9
I20
tp2236
asg55
I0
sba(iNavigator_0_0663
NODE
p2237
(dp2238
g47
(lp2239
I0
aI0
aI0
aI0
asg49
(lp2240
sg51
(lp2241
(I10
I22
tp2242
a(I8
I22
tp2243
a(I9
I23
tp2244
a(I9
I21
tp2245
asg55
I0
sba(iNavigator_0_0663
NODE
p2246
(dp2247
g47
(lp2248
I0
aI0
aI0
aI0
asg49
(lp2249
sg51
(lp2250
(I10
I23
tp2251
a(I8
I23
tp2252
a(I9
I24
tp2253
a(I9
I22
tp2254
asg55
I0
sba(iNavigator_0_0663
NODE
p2255
(dp2256
g47
(lp2257
I0
aI0
aI0
aI0
asg49
(lp2258
sg51
(lp2259
(I10
I24
tp2260
a(I8
I24
tp2261
a(I9
I23
tp2262
asg55
I0
sbaa(lp2263
(iNavigator_0_0663
NODE
p2264
(dp2265
g47
(lp2266
I0
aI0
aI0
aI0
asg49
(lp2267
sg51
(lp2268
(I11
I0
tp2269
a(I9
I0
tp2270
a(I10
I1
tp2271
asg55
I0
sba(iNavigator_0_0663
NODE
p2272
(dp2273
g47
(lp2274
I0
aI0
aI0
aI0
asg49
(lp2275
sg51
(lp2276
(I11
I1
tp2277
a(I9
I1
tp2278
a(I10
I2
tp2279
a(I10
I0
tp2280
asg55
I0
sba(iNavigator_0_0663
NODE
p2281
(dp2282
g47
(lp2283
I0
aI0
aI0
aI0
asg49
(lp2284
sg51
(lp2285
(I11
I2
tp2286
a(I9
I2
tp2287
a(I10
I3
tp2288
a(I10
I1
tp2289
asg55
I0
sba(iNavigator_0_0663
NODE
p2290
(dp2291
g47
(lp2292
I0
aI0
aI0
aI0
asg49
(lp2293
sg51
(lp2294
(I11
I3
tp2295
a(I9
I3
tp2296
a(I10
I4
tp2297
a(I10
I2
tp2298
asg55
I0
sba(iNavigator_0_0663
NODE
p2299
(dp2300
g47
(lp2301
I0
aI0
aI0
aI0
asg49
(lp2302
sg51
(lp2303
(I11
I4
tp2304
a(I9
I4
tp2305
a(I10
I5
tp2306
a(I10
I3
tp2307
asg55
I0
sba(iNavigator_0_0663
NODE
p2308
(dp2309
g47
(lp2310
I0
aI0
aI0
aI0
asg49
(lp2311
sg51
(lp2312
(I11
I5
tp2313
a(I9
I5
tp2314
a(I10
I6
tp2315
a(I10
I4
tp2316
asg55
I0
sba(iNavigator_0_0663
NODE
p2317
(dp2318
g47
(lp2319
I0
aI0
aI0
aI0
asg49
(lp2320
sg51
(lp2321
(I11
I6
tp2322
a(I9
I6
tp2323
a(I10
I7
tp2324
a(I10
I5
tp2325
asg55
I0
sba(iNavigator_0_0663
NODE
p2326
(dp2327
g47
(lp2328
I0
aI0
aI0
aI0
asg49
(lp2329
sg51
(lp2330
(I11
I7
tp2331
a(I9
I7
tp2332
a(I10
I8
tp2333
a(I10
I6
tp2334
asg55
I0
sba(iNavigator_0_0663
NODE
p2335
(dp2336
g47
(lp2337
I0
aI0
aI0
aI0
asg49
(lp2338
sg51
(lp2339
(I11
I8
tp2340
a(I9
I8
tp2341
a(I10
I9
tp2342
a(I10
I7
tp2343
asg55
I0
sba(iNavigator_0_0663
NODE
p2344
(dp2345
g47
(lp2346
I0
aI0
aI0
aI0
asg49
(lp2347
sg51
(lp2348
(I11
I9
tp2349
a(I9
I9
tp2350
a(I10
I10
tp2351
a(I10
I8
tp2352
asg55
I0
sba(iNavigator_0_0663
NODE
p2353
(dp2354
g47
(lp2355
I0
aI0
aI0
aI0
asg49
(lp2356
sg51
(lp2357
(I11
I10
tp2358
a(I9
I10
tp2359
a(I10
I11
tp2360
a(I10
I9
tp2361
asg55
I0
sba(iNavigator_0_0663
NODE
p2362
(dp2363
g47
(lp2364
I0
aI0
aI0
aI0
asg49
(lp2365
sg51
(lp2366
(I11
I11
tp2367
a(I9
I11
tp2368
a(I10
I12
tp2369
a(I10
I10
tp2370
asg55
I0
sba(iNavigator_0_0663
NODE
p2371
(dp2372
g47
(lp2373
I0
aI0
aI0
aI0
asg49
(lp2374
sg51
(lp2375
(I11
I12
tp2376
a(I9
I12
tp2377
a(I10
I13
tp2378
a(I10
I11
tp2379
asg55
I0
sba(iNavigator_0_0663
NODE
p2380
(dp2381
g47
(lp2382
I0
aI0
aI0
aI0
asg49
(lp2383
sg51
(lp2384
(I11
I13
tp2385
a(I9
I13
tp2386
a(I10
I14
tp2387
a(I10
I12
tp2388
asg55
I0
sba(iNavigator_0_0663
NODE
p2389
(dp2390
g47
(lp2391
I0
aI0
aI0
aI0
asg49
(lp2392
sg51
(lp2393
(I11
I14
tp2394
a(I9
I14
tp2395
a(I10
I15
tp2396
a(I10
I13
tp2397
asg55
I0
sba(iNavigator_0_0663
NODE
p2398
(dp2399
g47
(lp2400
I0
aI0
aI0
aI0
asg49
(lp2401
sg51
(lp2402
(I11
I15
tp2403
a(I9
I15
tp2404
a(I10
I16
tp2405
a(I10
I14
tp2406
asg55
I0
sba(iNavigator_0_0663
NODE
p2407
(dp2408
g47
(lp2409
I0
aI0
aI0
aI0
asg49
(lp2410
sg51
(lp2411
(I11
I16
tp2412
a(I9
I16
tp2413
a(I10
I17
tp2414
a(I10
I15
tp2415
asg55
I0
sba(iNavigator_0_0663
NODE
p2416
(dp2417
g47
(lp2418
I0
aI0
aI0
aI0
asg49
(lp2419
sg51
(lp2420
(I11
I17
tp2421
a(I9
I17
tp2422
a(I10
I18
tp2423
a(I10
I16
tp2424
asg55
I0
sba(iNavigator_0_0663
NODE
p2425
(dp2426
g47
(lp2427
I0
aI0
aI0
aI0
asg49
(lp2428
sg51
(lp2429
(I11
I18
tp2430
a(I9
I18
tp2431
a(I10
I19
tp2432
a(I10
I17
tp2433
asg55
I0
sba(iNavigator_0_0663
NODE
p2434
(dp2435
g47
(lp2436
I0
aI0
aI0
aI0
asg49
(lp2437
sg51
(lp2438
(I11
I19
tp2439
a(I9
I19
tp2440
a(I10
I20
tp2441
a(I10
I18
tp2442
asg55
I0
sba(iNavigator_0_0663
NODE
p2443
(dp2444
g47
(lp2445
I0
aI0
aI0
aI0
asg49
(lp2446
sg51
(lp2447
(I11
I20
tp2448
a(I9
I20
tp2449
a(I10
I21
tp2450
a(I10
I19
tp2451
asg55
I0
sba(iNavigator_0_0663
NODE
p2452
(dp2453
g47
(lp2454
I0
aI0
aI0
aI0
asg49
(lp2455
sg51
(lp2456
(I11
I21
tp2457
a(I9
I21
tp2458
a(I10
I22
tp2459
a(I10
I20
tp2460
asg55
I0
sba(iNavigator_0_0663
NODE
p2461
(dp2462
g47
(lp2463
I0
aI0
aI0
aI0
asg49
(lp2464
sg51
(lp2465
(I11
I22
tp2466
a(I9
I22
tp2467
a(I10
I23
tp2468
a(I10
I21
tp2469
asg55
I0
sba(iNavigator_0_0663
NODE
p2470
(dp2471
g47
(lp2472
I0
aI0
aI0
aI0
asg49
(lp2473
sg51
(lp2474
(I11
I23
tp2475
a(I9
I23
tp2476
a(I10
I24
tp2477
a(I10
I22
tp2478
asg55
I0
sba(iNavigator_0_0663
NODE
p2479
(dp2480
g47
(lp2481
I0
aI0
aI0
aI0
asg49
(lp2482
sg51
(lp2483
(I11
I24
tp2484
a(I9
I24
tp2485
a(I10
I23
tp2486
asg55
I0
sbaa(lp2487
(iNavigator_0_0663
NODE
p2488
(dp2489
g47
(lp2490
I0
aI0
aI0
aI0
asg49
(lp2491
sg51
(lp2492
(I12
I0
tp2493
a(I10
I0
tp2494
a(I11
I1
tp2495
asg55
I0
sba(iNavigator_0_0663
NODE
p2496
(dp2497
g47
(lp2498
I0
aI0
aI0
aI0
asg49
(lp2499
sg51
(lp2500
(I12
I1
tp2501
a(I10
I1
tp2502
a(I11
I2
tp2503
a(I11
I0
tp2504
asg55
I0
sba(iNavigator_0_0663
NODE
p2505
(dp2506
g47
(lp2507
I0
aI0
aI0
aI0
asg49
(lp2508
sg51
(lp2509
(I12
I2
tp2510
a(I10
I2
tp2511
a(I11
I3
tp2512
a(I11
I1
tp2513
asg55
I0
sba(iNavigator_0_0663
NODE
p2514
(dp2515
g47
(lp2516
I0
aI0
aI0
aI0
asg49
(lp2517
sg51
(lp2518
(I12
I3
tp2519
a(I10
I3
tp2520
a(I11
I4
tp2521
a(I11
I2
tp2522
asg55
I0
sba(iNavigator_0_0663
NODE
p2523
(dp2524
g47
(lp2525
I0
aI0
aI0
aI0
asg49
(lp2526
sg51
(lp2527
(I12
I4
tp2528
a(I10
I4
tp2529
a(I11
I5
tp2530
a(I11
I3
tp2531
asg55
I0
sba(iNavigator_0_0663
NODE
p2532
(dp2533
g47
(lp2534
I0
aI0
aI0
aI0
asg49
(lp2535
sg51
(lp2536
(I12
I5
tp2537
a(I10
I5
tp2538
a(I11
I6
tp2539
a(I11
I4
tp2540
asg55
I0
sba(iNavigator_0_0663
NODE
p2541
(dp2542
g47
(lp2543
I0
aI0
aI0
aI0
asg49
(lp2544
sg51
(lp2545
(I12
I6
tp2546
a(I10
I6
tp2547
a(I11
I7
tp2548
a(I11
I5
tp2549
asg55
I0
sba(iNavigator_0_0663
NODE
p2550
(dp2551
g47
(lp2552
I0
aI0
aI0
aI0
asg49
(lp2553
sg51
(lp2554
(I12
I7
tp2555
a(I10
I7
tp2556
a(I11
I8
tp2557
a(I11
I6
tp2558
asg55
I0
sba(iNavigator_0_0663
NODE
p2559
(dp2560
g47
(lp2561
I0
aI0
aI0
aI0
asg49
(lp2562
sg51
(lp2563
(I12
I8
tp2564
a(I10
I8
tp2565
a(I11
I9
tp2566
a(I11
I7
tp2567
asg55
I0
sba(iNavigator_0_0663
NODE
p2568
(dp2569
g47
(lp2570
I0
aI0
aI0
aI0
asg49
(lp2571
sg51
(lp2572
(I12
I9
tp2573
a(I10
I9
tp2574
a(I11
I10
tp2575
a(I11
I8
tp2576
asg55
I0
sba(iNavigator_0_0663
NODE
p2577
(dp2578
g47
(lp2579
I0
aI0
aI0
aI0
asg49
(lp2580
sg51
(lp2581
(I12
I10
tp2582
a(I10
I10
tp2583
a(I11
I11
tp2584
a(I11
I9
tp2585
asg55
I0
sba(iNavigator_0_0663
NODE
p2586
(dp2587
g47
(lp2588
I0
aI0
aI0
aI0
asg49
(lp2589
sg51
(lp2590
(I12
I11
tp2591
a(I10
I11
tp2592
a(I11
I12
tp2593
a(I11
I10
tp2594
asg55
I0
sba(iNavigator_0_0663
NODE
p2595
(dp2596
g47
(lp2597
I0
aI0
aI0
aI0
asg49
(lp2598
sg51
(lp2599
(I12
I12
tp2600
a(I10
I12
tp2601
a(I11
I13
tp2602
a(I11
I11
tp2603
asg55
I0
sba(iNavigator_0_0663
NODE
p2604
(dp2605
g47
(lp2606
I0
aI0
aI0
aI0
asg49
(lp2607
sg51
(lp2608
(I12
I13
tp2609
a(I10
I13
tp2610
a(I11
I14
tp2611
a(I11
I12
tp2612
asg55
I0
sba(iNavigator_0_0663
NODE
p2613
(dp2614
g47
(lp2615
I0
aI0
aI0
aI0
asg49
(lp2616
sg51
(lp2617
(I12
I14
tp2618
a(I10
I14
tp2619
a(I11
I15
tp2620
a(I11
I13
tp2621
asg55
I0
sba(iNavigator_0_0663
NODE
p2622
(dp2623
g47
(lp2624
I0
aI0
aI0
aI0
asg49
(lp2625
sg51
(lp2626
(I12
I15
tp2627
a(I10
I15
tp2628
a(I11
I16
tp2629
a(I11
I14
tp2630
asg55
I0
sba(iNavigator_0_0663
NODE
p2631
(dp2632
g47
(lp2633
I0
aI0
aI0
aI0
asg49
(lp2634
sg51
(lp2635
(I12
I16
tp2636
a(I10
I16
tp2637
a(I11
I17
tp2638
a(I11
I15
tp2639
asg55
I0
sba(iNavigator_0_0663
NODE
p2640
(dp2641
g47
(lp2642
I0
aI0
aI0
aI0
asg49
(lp2643
sg51
(lp2644
(I12
I17
tp2645
a(I10
I17
tp2646
a(I11
I18
tp2647
a(I11
I16
tp2648
asg55
I0
sba(iNavigator_0_0663
NODE
p2649
(dp2650
g47
(lp2651
I0
aI0
aI0
aI0
asg49
(lp2652
sg51
(lp2653
(I12
I18
tp2654
a(I10
I18
tp2655
a(I11
I19
tp2656
a(I11
I17
tp2657
asg55
I0
sba(iNavigator_0_0663
NODE
p2658
(dp2659
g47
(lp2660
I0
aI0
aI0
aI0
asg49
(lp2661
sg51
(lp2662
(I12
I19
tp2663
a(I10
I19
tp2664
a(I11
I20
tp2665
a(I11
I18
tp2666
asg55
I0
sba(iNavigator_0_0663
NODE
p2667
(dp2668
g47
(lp2669
I0
aI0
aI0
aI0
asg49
(lp2670
sg51
(lp2671
(I12
I20
tp2672
a(I10
I20
tp2673
a(I11
I21
tp2674
a(I11
I19
tp2675
asg55
I0
sba(iNavigator_0_0663
NODE
p2676
(dp2677
g47
(lp2678
I0
aI0
aI0
aI0
asg49
(lp2679
sg51
(lp2680
(I12
I21
tp2681
a(I10
I21
tp2682
a(I11
I22
tp2683
a(I11
I20
tp2684
asg55
I0
sba(iNavigator_0_0663
NODE
p2685
(dp2686
g47
(lp2687
I0
aI0
aI0
aI0
asg49
(lp2688
sg51
(lp2689
(I12
I22
tp2690
a(I10
I22
tp2691
a(I11
I23
tp2692
a(I11
I21
tp2693
asg55
I0
sba(iNavigator_0_0663
NODE
p2694
(dp2695
g47
(lp2696
I0
aI0
aI0
aI0
asg49
(lp2697
sg51
(lp2698
(I12
I23
tp2699
a(I10
I23
tp2700
a(I11
I24
tp2701
a(I11
I22
tp2702
asg55
I0
sba(iNavigator_0_0663
NODE
p2703
(dp2704
g47
(lp2705
I0
aI0
aI0
aI0
asg49
(lp2706
sg51
(lp2707
(I12
I24
tp2708
a(I10
I24
tp2709
a(I11
I23
tp2710
asg55
I0
sbaa(lp2711
(iNavigator_0_0663
NODE
p2712
(dp2713
g47
(lp2714
I0
aI0
aI0
aI0
asg49
(lp2715
sg51
(lp2716
(I13
I0
tp2717
a(I11
I0
tp2718
a(I12
I1
tp2719
asg55
I0
sba(iNavigator_0_0663
NODE
p2720
(dp2721
g47
(lp2722
I0
aI0
aI0
aI0
asg49
(lp2723
sg51
(lp2724
(I13
I1
tp2725
a(I11
I1
tp2726
a(I12
I2
tp2727
a(I12
I0
tp2728
asg55
I0
sba(iNavigator_0_0663
NODE
p2729
(dp2730
g47
(lp2731
I0
aI0
aI0
aI0
asg49
(lp2732
sg51
(lp2733
(I13
I2
tp2734
a(I11
I2
tp2735
a(I12
I3
tp2736
a(I12
I1
tp2737
asg55
I0
sba(iNavigator_0_0663
NODE
p2738
(dp2739
g47
(lp2740
I0
aI0
aI0
aI0
asg49
(lp2741
sg51
(lp2742
(I13
I3
tp2743
a(I11
I3
tp2744
a(I12
I4
tp2745
a(I12
I2
tp2746
asg55
I0
sba(iNavigator_0_0663
NODE
p2747
(dp2748
g47
(lp2749
I0
aI0
aI0
aI0
asg49
(lp2750
sg51
(lp2751
(I13
I4
tp2752
a(I11
I4
tp2753
a(I12
I5
tp2754
a(I12
I3
tp2755
asg55
I0
sba(iNavigator_0_0663
NODE
p2756
(dp2757
g47
(lp2758
I0
aI0
aI0
aI0
asg49
(lp2759
sg51
(lp2760
(I13
I5
tp2761
a(I11
I5
tp2762
a(I12
I6
tp2763
a(I12
I4
tp2764
asg55
I0
sba(iNavigator_0_0663
NODE
p2765
(dp2766
g47
(lp2767
I0
aI0
aI0
aI0
asg49
(lp2768
sg51
(lp2769
(I13
I6
tp2770
a(I11
I6
tp2771
a(I12
I7
tp2772
a(I12
I5
tp2773
asg55
I0
sba(iNavigator_0_0663
NODE
p2774
(dp2775
g47
(lp2776
I0
aI0
aI0
aI0
asg49
(lp2777
sg51
(lp2778
(I13
I7
tp2779
a(I11
I7
tp2780
a(I12
I8
tp2781
a(I12
I6
tp2782
asg55
I0
sba(iNavigator_0_0663
NODE
p2783
(dp2784
g47
(lp2785
I0
aI0
aI0
aI0
asg49
(lp2786
sg51
(lp2787
(I13
I8
tp2788
a(I11
I8
tp2789
a(I12
I9
tp2790
a(I12
I7
tp2791
asg55
I0
sba(iNavigator_0_0663
NODE
p2792
(dp2793
g47
(lp2794
I0
aI0
aI0
aI0
asg49
(lp2795
sg51
(lp2796
(I13
I9
tp2797
a(I11
I9
tp2798
a(I12
I10
tp2799
a(I12
I8
tp2800
asg55
I0
sba(iNavigator_0_0663
NODE
p2801
(dp2802
g47
(lp2803
I0
aI0
aI0
aI0
asg49
(lp2804
sg51
(lp2805
(I13
I10
tp2806
a(I11
I10
tp2807
a(I12
I11
tp2808
a(I12
I9
tp2809
asg55
I0
sba(iNavigator_0_0663
NODE
p2810
(dp2811
g47
(lp2812
I0
aI0
aI0
aI0
asg49
(lp2813
sg51
(lp2814
(I13
I11
tp2815
a(I11
I11
tp2816
a(I12
I12
tp2817
a(I12
I10
tp2818
asg55
I0
sba(iNavigator_0_0663
NODE
p2819
(dp2820
g47
(lp2821
I0
aI0
aI0
aI0
asg49
(lp2822
sg51
(lp2823
(I13
I12
tp2824
a(I11
I12
tp2825
a(I12
I13
tp2826
a(I12
I11
tp2827
asg55
I0
sba(iNavigator_0_0663
NODE
p2828
(dp2829
g47
(lp2830
I0
aI0
aI0
aI0
asg49
(lp2831
sg51
(lp2832
(I13
I13
tp2833
a(I11
I13
tp2834
a(I12
I14
tp2835
a(I12
I12
tp2836
asg55
I0
sba(iNavigator_0_0663
NODE
p2837
(dp2838
g47
(lp2839
I0
aI0
aI0
aI0
asg49
(lp2840
sg51
(lp2841
(I13
I14
tp2842
a(I11
I14
tp2843
a(I12
I15
tp2844
a(I12
I13
tp2845
asg55
I0
sba(iNavigator_0_0663
NODE
p2846
(dp2847
g47
(lp2848
I0
aI0
aI0
aI0
asg49
(lp2849
sg51
(lp2850
(I13
I15
tp2851
a(I11
I15
tp2852
a(I12
I16
tp2853
a(I12
I14
tp2854
asg55
I0
sba(iNavigator_0_0663
NODE
p2855
(dp2856
g47
(lp2857
I0
aI0
aI0
aI0
asg49
(lp2858
sg51
(lp2859
(I13
I16
tp2860
a(I11
I16
tp2861
a(I12
I17
tp2862
a(I12
I15
tp2863
asg55
I0
sba(iNavigator_0_0663
NODE
p2864
(dp2865
g47
(lp2866
I0
aI0
aI0
aI0
asg49
(lp2867
sg51
(lp2868
(I13
I17
tp2869
a(I11
I17
tp2870
a(I12
I18
tp2871
a(I12
I16
tp2872
asg55
I0
sba(iNavigator_0_0663
NODE
p2873
(dp2874
g47
(lp2875
I0
aI0
aI0
aI0
asg49
(lp2876
sg51
(lp2877
(I13
I18
tp2878
a(I11
I18
tp2879
a(I12
I19
tp2880
a(I12
I17
tp2881
asg55
I0
sba(iNavigator_0_0663
NODE
p2882
(dp2883
g47
(lp2884
I0
aI0
aI0
aI0
asg49
(lp2885
sg51
(lp2886
(I13
I19
tp2887
a(I11
I19
tp2888
a(I12
I20
tp2889
a(I12
I18
tp2890
asg55
I0
sba(iNavigator_0_0663
NODE
p2891
(dp2892
g47
(lp2893
I0
aI0
aI0
aI0
asg49
(lp2894
sg51
(lp2895
(I13
I20
tp2896
a(I11
I20
tp2897
a(I12
I21
tp2898
a(I12
I19
tp2899
asg55
I0
sba(iNavigator_0_0663
NODE
p2900
(dp2901
g47
(lp2902
I0
aI0
aI0
aI0
asg49
(lp2903
sg51
(lp2904
(I13
I21
tp2905
a(I11
I21
tp2906
a(I12
I22
tp2907
a(I12
I20
tp2908
asg55
I0
sba(iNavigator_0_0663
NODE
p2909
(dp2910
g47
(lp2911
I0
aI0
aI0
aI0
asg49
(lp2912
sg51
(lp2913
(I13
I22
tp2914
a(I11
I22
tp2915
a(I12
I23
tp2916
a(I12
I21
tp2917
asg55
I0
sba(iNavigator_0_0663
NODE
p2918
(dp2919
g47
(lp2920
I0
aI0
aI0
aI0
asg49
(lp2921
sg51
(lp2922
(I13
I23
tp2923
a(I11
I23
tp2924
a(I12
I24
tp2925
a(I12
I22
tp2926
asg55
I0
sba(iNavigator_0_0663
NODE
p2927
(dp2928
g47
(lp2929
I0
aI0
aI0
aI0
asg49
(lp2930
sg51
(lp2931
(I13
I24
tp2932
a(I11
I24
tp2933
a(I12
I23
tp2934
asg55
I0
sbaa(lp2935
(iNavigator_0_0663
NODE
p2936
(dp2937
g47
(lp2938
I0
aI0
aI0
aI0
asg49
(lp2939
sg51
(lp2940
(I14
I0
tp2941
a(I12
I0
tp2942
a(I13
I1
tp2943
asg55
I0
sba(iNavigator_0_0663
NODE
p2944
(dp2945
g47
(lp2946
I0
aI0
aI0
aI0
asg49
(lp2947
sg51
(lp2948
(I14
I1
tp2949
a(I12
I1
tp2950
a(I13
I2
tp2951
a(I13
I0
tp2952
asg55
I0
sba(iNavigator_0_0663
NODE
p2953
(dp2954
g47
(lp2955
I0
aI0
aI0
aI0
asg49
(lp2956
sg51
(lp2957
(I14
I2
tp2958
a(I12
I2
tp2959
a(I13
I3
tp2960
a(I13
I1
tp2961
asg55
I0
sba(iNavigator_0_0663
NODE
p2962
(dp2963
g47
(lp2964
I0
aI0
aI0
aI0
asg49
(lp2965
sg51
(lp2966
(I14
I3
tp2967
a(I12
I3
tp2968
a(I13
I4
tp2969
a(I13
I2
tp2970
asg55
I0
sba(iNavigator_0_0663
NODE
p2971
(dp2972
g47
(lp2973
I0
aI0
aI0
aI0
asg49
(lp2974
sg51
(lp2975
(I14
I4
tp2976
a(I12
I4
tp2977
a(I13
I5
tp2978
a(I13
I3
tp2979
asg55
I0
sba(iNavigator_0_0663
NODE
p2980
(dp2981
g47
(lp2982
I0
aI0
aI0
aI0
asg49
(lp2983
sg51
(lp2984
(I14
I5
tp2985
a(I12
I5
tp2986
a(I13
I6
tp2987
a(I13
I4
tp2988
asg55
I0
sba(iNavigator_0_0663
NODE
p2989
(dp2990
g47
(lp2991
I0
aI0
aI0
aI0
asg49
(lp2992
sg51
(lp2993
(I14
I6
tp2994
a(I12
I6
tp2995
a(I13
I7
tp2996
a(I13
I5
tp2997
asg55
I0
sba(iNavigator_0_0663
NODE
p2998
(dp2999
g47
(lp3000
I0
aI0
aI0
aI0
asg49
(lp3001
sg51
(lp3002
(I14
I7
tp3003
a(I12
I7
tp3004
a(I13
I8
tp3005
a(I13
I6
tp3006
asg55
I0
sba(iNavigator_0_0663
NODE
p3007
(dp3008
g47
(lp3009
I0
aI0
aI0
aI0
asg49
(lp3010
sg51
(lp3011
(I14
I8
tp3012
a(I12
I8
tp3013
a(I13
I9
tp3014
a(I13
I7
tp3015
asg55
I0
sba(iNavigator_0_0663
NODE
p3016
(dp3017
g47
(lp3018
I0
aI0
aI0
aI0
asg49
(lp3019
sg51
(lp3020
(I14
I9
tp3021
a(I12
I9
tp3022
a(I13
I10
tp3023
a(I13
I8
tp3024
asg55
I0
sba(iNavigator_0_0663
NODE
p3025
(dp3026
g47
(lp3027
I0
aI0
aI0
aI0
asg49
(lp3028
sg51
(lp3029
(I14
I10
tp3030
a(I12
I10
tp3031
a(I13
I11
tp3032
a(I13
I9
tp3033
asg55
I0
sba(iNavigator_0_0663
NODE
p3034
(dp3035
g47
(lp3036
I0
aI0
aI0
aI0
asg49
(lp3037
sg51
(lp3038
(I14
I11
tp3039
a(I12
I11
tp3040
a(I13
I12
tp3041
a(I13
I10
tp3042
asg55
I0
sba(iNavigator_0_0663
NODE
p3043
(dp3044
g47
(lp3045
I0
aI0
aI0
aI0
asg49
(lp3046
sg51
(lp3047
(I14
I12
tp3048
a(I12
I12
tp3049
a(I13
I13
tp3050
a(I13
I11
tp3051
asg55
I0
sba(iNavigator_0_0663
NODE
p3052
(dp3053
g47
(lp3054
I0
aI0
aI0
aI0
asg49
(lp3055
sg51
(lp3056
(I14
I13
tp3057
a(I12
I13
tp3058
a(I13
I14
tp3059
a(I13
I12
tp3060
asg55
I0
sba(iNavigator_0_0663
NODE
p3061
(dp3062
g47
(lp3063
I0
aI0
aI0
aI0
asg49
(lp3064
sg51
(lp3065
(I14
I14
tp3066
a(I12
I14
tp3067
a(I13
I15
tp3068
a(I13
I13
tp3069
asg55
I0
sba(iNavigator_0_0663
NODE
p3070
(dp3071
g47
(lp3072
I0
aI0
aI0
aI0
asg49
(lp3073
sg51
(lp3074
(I14
I15
tp3075
a(I12
I15
tp3076
a(I13
I16
tp3077
a(I13
I14
tp3078
asg55
I0
sba(iNavigator_0_0663
NODE
p3079
(dp3080
g47
(lp3081
I0
aI0
aI0
aI0
asg49
(lp3082
sg51
(lp3083
(I14
I16
tp3084
a(I12
I16
tp3085
a(I13
I17
tp3086
a(I13
I15
tp3087
asg55
I0
sba(iNavigator_0_0663
NODE
p3088
(dp3089
g47
(lp3090
I0
aI0
aI0
aI0
asg49
(lp3091
sg51
(lp3092
(I14
I17
tp3093
a(I12
I17
tp3094
a(I13
I18
tp3095
a(I13
I16
tp3096
asg55
I0
sba(iNavigator_0_0663
NODE
p3097
(dp3098
g47
(lp3099
I0
aI0
aI0
aI0
asg49
(lp3100
sg51
(lp3101
(I14
I18
tp3102
a(I12
I18
tp3103
a(I13
I19
tp3104
a(I13
I17
tp3105
asg55
I0
sba(iNavigator_0_0663
NODE
p3106
(dp3107
g47
(lp3108
I0
aI0
aI0
aI0
asg49
(lp3109
(I14
I19
tp3110
asg51
(lp3111
(I14
I19
tp3112
a(I12
I19
tp3113
a(I13
I20
tp3114
a(I13
I18
tp3115
asg55
I0
sba(iNavigator_0_0663
NODE
p3116
(dp3117
g47
(lp3118
I0
aI0
aI0
aI0
asg49
(lp3119
sg51
(lp3120
(I14
I20
tp3121
a(I12
I20
tp3122
a(I13
I21
tp3123
a(I13
I19
tp3124
asg55
I0
sba(iNavigator_0_0663
NODE
p3125
(dp3126
g47
(lp3127
I0
aI0
aI0
aI0
asg49
(lp3128
sg51
(lp3129
(I14
I21
tp3130
a(I12
I21
tp3131
a(I13
I22
tp3132
a(I13
I20
tp3133
asg55
I0
sba(iNavigator_0_0663
NODE
p3134
(dp3135
g47
(lp3136
I0
aI0
aI0
aI0
asg49
(lp3137
sg51
(lp3138
(I14
I22
tp3139
a(I12
I22
tp3140
a(I13
I23
tp3141
a(I13
I21
tp3142
asg55
I0
sba(iNavigator_0_0663
NODE
p3143
(dp3144
g47
(lp3145
I0
aI0
aI0
aI0
asg49
(lp3146
sg51
(lp3147
(I14
I23
tp3148
a(I12
I23
tp3149
a(I13
I24
tp3150
a(I13
I22
tp3151
asg55
I0
sba(iNavigator_0_0663
NODE
p3152
(dp3153
g47
(lp3154
I0
aI0
aI0
aI0
asg49
(lp3155
sg51
(lp3156
(I14
I24
tp3157
a(I12
I24
tp3158
a(I13
I23
tp3159
asg55
I0
sbaa(lp3160
(iNavigator_0_0663
NODE
p3161
(dp3162
g47
(lp3163
I0
aI0
aI0
aI0
asg49
(lp3164
sg51
(lp3165
(I15
I0
tp3166
a(I13
I0
tp3167
a(I14
I1
tp3168
asg55
I0
sba(iNavigator_0_0663
NODE
p3169
(dp3170
g47
(lp3171
I0
aI0
aI0
aI0
asg49
(lp3172
sg51
(lp3173
(I15
I1
tp3174
a(I13
I1
tp3175
a(I14
I2
tp3176
a(I14
I0
tp3177
asg55
I0
sba(iNavigator_0_0663
NODE
p3178
(dp3179
g47
(lp3180
I0
aI0
aI0
aI0
asg49
(lp3181
sg51
(lp3182
(I15
I2
tp3183
a(I13
I2
tp3184
a(I14
I3
tp3185
a(I14
I1
tp3186
asg55
I0
sba(iNavigator_0_0663
NODE
p3187
(dp3188
g47
(lp3189
I0
aI0
aI0
aI0
asg49
(lp3190
sg51
(lp3191
(I15
I3
tp3192
a(I13
I3
tp3193
a(I14
I4
tp3194
a(I14
I2
tp3195
asg55
I0
sba(iNavigator_0_0663
NODE
p3196
(dp3197
g47
(lp3198
I0
aI0
aI0
aI0
asg49
(lp3199
sg51
(lp3200
(I15
I4
tp3201
a(I13
I4
tp3202
a(I14
I5
tp3203
a(I14
I3
tp3204
asg55
I0
sba(iNavigator_0_0663
NODE
p3205
(dp3206
g47
(lp3207
I0
aI0
aI0
aI0
asg49
(lp3208
sg51
(lp3209
(I15
I5
tp3210
a(I13
I5
tp3211
a(I14
I6
tp3212
a(I14
I4
tp3213
asg55
I0
sba(iNavigator_0_0663
NODE
p3214
(dp3215
g47
(lp3216
I0
aI0
aI0
aI0
asg49
(lp3217
sg51
(lp3218
(I15
I6
tp3219
a(I13
I6
tp3220
a(I14
I7
tp3221
a(I14
I5
tp3222
asg55
I0
sba(iNavigator_0_0663
NODE
p3223
(dp3224
g47
(lp3225
I0
aI0
aI0
aI0
asg49
(lp3226
sg51
(lp3227
(I15
I7
tp3228
a(I13
I7
tp3229
a(I14
I8
tp3230
a(I14
I6
tp3231
asg55
I0
sba(iNavigator_0_0663
NODE
p3232
(dp3233
g47
(lp3234
I0
aI0
aI0
aI0
asg49
(lp3235
sg51
(lp3236
(I15
I8
tp3237
a(I13
I8
tp3238
a(I14
I9
tp3239
a(I14
I7
tp3240
asg55
I0
sba(iNavigator_0_0663
NODE
p3241
(dp3242
g47
(lp3243
I0
aI0
aI0
aI0
asg49
(lp3244
sg51
(lp3245
(I15
I9
tp3246
a(I13
I9
tp3247
a(I14
I10
tp3248
a(I14
I8
tp3249
asg55
I0
sba(iNavigator_0_0663
NODE
p3250
(dp3251
g47
(lp3252
I0
aI0
aI0
aI0
asg49
(lp3253
sg51
(lp3254
(I15
I10
tp3255
a(I13
I10
tp3256
a(I14
I11
tp3257
a(I14
I9
tp3258
asg55
I0
sba(iNavigator_0_0663
NODE
p3259
(dp3260
g47
(lp3261
I0
aI0
aI0
aI0
asg49
(lp3262
sg51
(lp3263
(I15
I11
tp3264
a(I13
I11
tp3265
a(I14
I12
tp3266
a(I14
I10
tp3267
asg55
I0
sba(iNavigator_0_0663
NODE
p3268
(dp3269
g47
(lp3270
I0
aI0
aI0
aI0
asg49
(lp3271
sg51
(lp3272
(I15
I12
tp3273
a(I13
I12
tp3274
a(I14
I13
tp3275
a(I14
I11
tp3276
asg55
I0
sba(iNavigator_0_0663
NODE
p3277
(dp3278
g47
(lp3279
I0
aI0
aI0
aI0
asg49
(lp3280
sg51
(lp3281
(I15
I13
tp3282
a(I13
I13
tp3283
a(I14
I14
tp3284
a(I14
I12
tp3285
asg55
I0
sba(iNavigator_0_0663
NODE
p3286
(dp3287
g47
(lp3288
I0
aI0
aI0
aI0
asg49
(lp3289
sg51
(lp3290
(I15
I14
tp3291
a(I13
I14
tp3292
a(I14
I15
tp3293
a(I14
I13
tp3294
asg55
I0
sba(iNavigator_0_0663
NODE
p3295
(dp3296
g47
(lp3297
I0
aI0
aI0
aI0
asg49
(lp3298
sg51
(lp3299
(I15
I15
tp3300
a(I13
I15
tp3301
a(I14
I16
tp3302
a(I14
I14
tp3303
asg55
I0
sba(iNavigator_0_0663
NODE
p3304
(dp3305
g47
(lp3306
I0
aI0
aI0
aI0
asg49
(lp3307
sg51
(lp3308
(I15
I16
tp3309
a(I13
I16
tp3310
a(I14
I17
tp3311
a(I14
I15
tp3312
asg55
I0
sba(iNavigator_0_0663
NODE
p3313
(dp3314
g47
(lp3315
I0
aI0
aI0
aI0
asg49
(lp3316
sg51
(lp3317
(I15
I17
tp3318
a(I13
I17
tp3319
a(I14
I18
tp3320
a(I14
I16
tp3321
asg55
I0
sba(iNavigator_0_0663
NODE
p3322
(dp3323
g47
(lp3324
I0
aI0
aI0
aI0
asg49
(lp3325
(I15
I18
tp3326
asg51
(lp3327
(I15
I18
tp3328
a(I13
I18
tp3329
a(I14
I19
tp3330
a(I14
I17
tp3331
asg55
I0
sba(iNavigator_0_0663
NODE
p3332
(dp3333
g47
(lp3334
I0
aI0
aI0
aI0
asg49
(lp3335
(I13
I19
tp3336
a(I15
I19
tp3337
a(I14
I20
tp3338
asg51
(lp3339
(I15
I19
tp3340
a(I13
I19
tp3341
a(I14
I20
tp3342
a(I14
I18
tp3343
asg55
I0
sba(iNavigator_0_0663
NODE
p3344
(dp3345
g47
(lp3346
I0
aI0
aI0
aI0
asg49
(lp3347
(I14
I19
tp3348
asg51
(lp3349
(I15
I20
tp3350
a(I13
I20
tp3351
a(I14
I21
tp3352
a(I14
I19
tp3353
asg55
I0
sba(iNavigator_0_0663
NODE
p3354
(dp3355
g47
(lp3356
I0
aI0
aI0
aI0
asg49
(lp3357
sg51
(lp3358
(I15
I21
tp3359
a(I13
I21
tp3360
a(I14
I22
tp3361
a(I14
I20
tp3362
asg55
I0
sba(iNavigator_0_0663
NODE
p3363
(dp3364
g47
(lp3365
I0
aI0
aI0
aI0
asg49
(lp3366
sg51
(lp3367
(I15
I22
tp3368
a(I13
I22
tp3369
a(I14
I23
tp3370
a(I14
I21
tp3371
asg55
I0
sba(iNavigator_0_0663
NODE
p3372
(dp3373
g47
(lp3374
I0
aI0
aI0
aI0
asg49
(lp3375
sg51
(lp3376
(I15
I23
tp3377
a(I13
I23
tp3378
a(I14
I24
tp3379
a(I14
I22
tp3380
asg55
I0
sba(iNavigator_0_0663
NODE
p3381
(dp3382
g47
(lp3383
I0
aI0
aI0
aI0
asg49
(lp3384
sg51
(lp3385
(I15
I24
tp3386
a(I13
I24
tp3387
a(I14
I23
tp3388
asg55
I0
sbaa(lp3389
(iNavigator_0_0663
NODE
p3390
(dp3391
g47
(lp3392
I0
aI0
aI0
aI0
asg49
(lp3393
sg51
(lp3394
(I16
I0
tp3395
a(I14
I0
tp3396
a(I15
I1
tp3397
asg55
I0
sba(iNavigator_0_0663
NODE
p3398
(dp3399
g47
(lp3400
I0
aI0
aI0
aI0
asg49
(lp3401
sg51
(lp3402
(I16
I1
tp3403
a(I14
I1
tp3404
a(I15
I2
tp3405
a(I15
I0
tp3406
asg55
I0
sba(iNavigator_0_0663
NODE
p3407
(dp3408
g47
(lp3409
I0
aI0
aI0
aI0
asg49
(lp3410
sg51
(lp3411
(I16
I2
tp3412
a(I14
I2
tp3413
a(I15
I3
tp3414
a(I15
I1
tp3415
asg55
I0
sba(iNavigator_0_0663
NODE
p3416
(dp3417
g47
(lp3418
I0
aI0
aI0
aI0
asg49
(lp3419
sg51
(lp3420
(I16
I3
tp3421
a(I14
I3
tp3422
a(I15
I4
tp3423
a(I15
I2
tp3424
asg55
I0
sba(iNavigator_0_0663
NODE
p3425
(dp3426
g47
(lp3427
I0
aI0
aI0
aI0
asg49
(lp3428
sg51
(lp3429
(I16
I4
tp3430
a(I14
I4
tp3431
a(I15
I5
tp3432
a(I15
I3
tp3433
asg55
I0
sba(iNavigator_0_0663
NODE
p3434
(dp3435
g47
(lp3436
I0
aI0
aI0
aI0
asg49
(lp3437
sg51
(lp3438
(I16
I5
tp3439
a(I14
I5
tp3440
a(I15
I6
tp3441
a(I15
I4
tp3442
asg55
I0
sba(iNavigator_0_0663
NODE
p3443
(dp3444
g47
(lp3445
I0
aI0
aI0
aI0
asg49
(lp3446
sg51
(lp3447
(I16
I6
tp3448
a(I14
I6
tp3449
a(I15
I7
tp3450
a(I15
I5
tp3451
asg55
I0
sba(iNavigator_0_0663
NODE
p3452
(dp3453
g47
(lp3454
I0
aI0
aI0
aI0
asg49
(lp3455
sg51
(lp3456
(I16
I7
tp3457
a(I14
I7
tp3458
a(I15
I8
tp3459
a(I15
I6
tp3460
asg55
I0
sba(iNavigator_0_0663
NODE
p3461
(dp3462
g47
(lp3463
I0
aI0
aI0
aI0
asg49
(lp3464
sg51
(lp3465
(I16
I8
tp3466
a(I14
I8
tp3467
a(I15
I9
tp3468
a(I15
I7
tp3469
asg55
I0
sba(iNavigator_0_0663
NODE
p3470
(dp3471
g47
(lp3472
I0
aI0
aI0
aI0
asg49
(lp3473
sg51
(lp3474
(I16
I9
tp3475
a(I14
I9
tp3476
a(I15
I10
tp3477
a(I15
I8
tp3478
asg55
I0
sba(iNavigator_0_0663
NODE
p3479
(dp3480
g47
(lp3481
I0
aI0
aI0
aI0
asg49
(lp3482
sg51
(lp3483
(I16
I10
tp3484
a(I14
I10
tp3485
a(I15
I11
tp3486
a(I15
I9
tp3487
asg55
I0
sba(iNavigator_0_0663
NODE
p3488
(dp3489
g47
(lp3490
I0
aI0
aI0
aI0
asg49
(lp3491
sg51
(lp3492
(I16
I11
tp3493
a(I14
I11
tp3494
a(I15
I12
tp3495
a(I15
I10
tp3496
asg55
I0
sba(iNavigator_0_0663
NODE
p3497
(dp3498
g47
(lp3499
I0
aI0
aI0
aI0
asg49
(lp3500
sg51
(lp3501
(I16
I12
tp3502
a(I14
I12
tp3503
a(I15
I13
tp3504
a(I15
I11
tp3505
asg55
I0
sba(iNavigator_0_0663
NODE
p3506
(dp3507
g47
(lp3508
I0
aI0
aI0
aI0
asg49
(lp3509
sg51
(lp3510
(I16
I13
tp3511
a(I14
I13
tp3512
a(I15
I14
tp3513
a(I15
I12
tp3514
asg55
I0
sba(iNavigator_0_0663
NODE
p3515
(dp3516
g47
(lp3517
I0
aI0
aI0
aI0
asg49
(lp3518
sg51
(lp3519
(I16
I14
tp3520
a(I14
I14
tp3521
a(I15
I15
tp3522
a(I15
I13
tp3523
asg55
I0
sba(iNavigator_0_0663
NODE
p3524
(dp3525
g47
(lp3526
I0
aI0
aI0
aI0
asg49
(lp3527
sg51
(lp3528
(I16
I15
tp3529
a(I14
I15
tp3530
a(I15
I16
tp3531
a(I15
I14
tp3532
asg55
I0
sba(iNavigator_0_0663
NODE
p3533
(dp3534
g47
(lp3535
I0
aI0
aI0
aI0
asg49
(lp3536
sg51
(lp3537
(I16
I16
tp3538
a(I14
I16
tp3539
a(I15
I17
tp3540
a(I15
I15
tp3541
asg55
I0
sba(iNavigator_0_0663
NODE
p3542
(dp3543
g47
(lp3544
I0
aI0
aI0
aI0
asg49
(lp3545
(I16
I17
tp3546
a(I15
I18
tp3547
asg51
(lp3548
(I16
I17
tp3549
a(I14
I17
tp3550
a(I15
I18
tp3551
a(I15
I16
tp3552
asg55
I0
sba(iNavigator_0_0663
NODE
p3553
(dp3554
g47
(lp3555
I0
aI0
aI0
aI0
asg49
(lp3556
(I15
I17
tp3557
a(I14
I18
tp3558
a(I16
I18
tp3559
a(I15
I19
tp3560
asg51
(lp3561
(I16
I18
tp3562
a(I14
I18
tp3563
a(I15
I19
tp3564
a(I15
I17
tp3565
asg55
I0
sba(iNavigator_0_0663
NODE
p3566
(dp3567
g47
(lp3568
I0
aI0
aI0
aI0
asg49
(lp3569
(I15
I18
tp3570
a(I14
I19
tp3571
a(I15
I20
tp3572
asg51
(lp3573
(I16
I19
tp3574
a(I14
I19
tp3575
a(I15
I20
tp3576
a(I15
I18
tp3577
asg55
I0
sba(iNavigator_0_0663
NODE
p3578
(dp3579
g47
(lp3580
I0
aI0
aI0
aI0
asg49
(lp3581
(I15
I19
tp3582
asg51
(lp3583
(I16
I20
tp3584
a(I14
I20
tp3585
a(I15
I21
tp3586
a(I15
I19
tp3587
asg55
I0
sba(iNavigator_0_0663
NODE
p3588
(dp3589
g47
(lp3590
I0
aI0
aI0
aI0
asg49
(lp3591
sg51
(lp3592
(I16
I21
tp3593
a(I14
I21
tp3594
a(I15
I22
tp3595
a(I15
I20
tp3596
asg55
I0
sba(iNavigator_0_0663
NODE
p3597
(dp3598
g47
(lp3599
I0
aI0
aI0
aI0
asg49
(lp3600
sg51
(lp3601
(I16
I22
tp3602
a(I14
I22
tp3603
a(I15
I23
tp3604
a(I15
I21
tp3605
asg55
I0
sba(iNavigator_0_0663
NODE
p3606
(dp3607
g47
(lp3608
I0
aI0
aI0
aI0
asg49
(lp3609
sg51
(lp3610
(I16
I23
tp3611
a(I14
I23
tp3612
a(I15
I24
tp3613
a(I15
I22
tp3614
asg55
I0
sba(iNavigator_0_0663
NODE
p3615
(dp3616
g47
(lp3617
I0
aI0
aI0
aI0
asg49
(lp3618
sg51
(lp3619
(I16
I24
tp3620
a(I14
I24
tp3621
a(I15
I23
tp3622
asg55
I0
sbaa(lp3623
(iNavigator_0_0663
NODE
p3624
(dp3625
g47
(lp3626
I0
aI0
aI0
aI0
asg49
(lp3627
sg51
(lp3628
(I17
I0
tp3629
a(I15
I0
tp3630
a(I16
I1
tp3631
asg55
I0
sba(iNavigator_0_0663
NODE
p3632
(dp3633
g47
(lp3634
I0
aI0
aI0
aI0
asg49
(lp3635
sg51
(lp3636
(I17
I1
tp3637
a(I15
I1
tp3638
a(I16
I2
tp3639
a(I16
I0
tp3640
asg55
I0
sba(iNavigator_0_0663
NODE
p3641
(dp3642
g47
(lp3643
I0
aI0
aI0
aI0
asg49
(lp3644
sg51
(lp3645
(I17
I2
tp3646
a(I15
I2
tp3647
a(I16
I3
tp3648
a(I16
I1
tp3649
asg55
I0
sba(iNavigator_0_0663
NODE
p3650
(dp3651
g47
(lp3652
I0
aI0
aI0
aI0
asg49
(lp3653
sg51
(lp3654
(I17
I3
tp3655
a(I15
I3
tp3656
a(I16
I4
tp3657
a(I16
I2
tp3658
asg55
I0
sba(iNavigator_0_0663
NODE
p3659
(dp3660
g47
(lp3661
I0
aI0
aI0
aI0
asg49
(lp3662
sg51
(lp3663
(I17
I4
tp3664
a(I15
I4
tp3665
a(I16
I5
tp3666
a(I16
I3
tp3667
asg55
I0
sba(iNavigator_0_0663
NODE
p3668
(dp3669
g47
(lp3670
I0
aI0
aI0
aI0
asg49
(lp3671
sg51
(lp3672
(I17
I5
tp3673
a(I15
I5
tp3674
a(I16
I6
tp3675
a(I16
I4
tp3676
asg55
I0
sba(iNavigator_0_0663
NODE
p3677
(dp3678
g47
(lp3679
I0
aI0
aI0
aI0
asg49
(lp3680
sg51
(lp3681
(I17
I6
tp3682
a(I15
I6
tp3683
a(I16
I7
tp3684
a(I16
I5
tp3685
asg55
I0
sba(iNavigator_0_0663
NODE
p3686
(dp3687
g47
(lp3688
I0
aI0
aI0
aI0
asg49
(lp3689
sg51
(lp3690
(I17
I7
tp3691
a(I15
I7
tp3692
a(I16
I8
tp3693
a(I16
I6
tp3694
asg55
I0
sba(iNavigator_0_0663
NODE
p3695
(dp3696
g47
(lp3697
I0
aI0
aI0
aI0
asg49
(lp3698
sg51
(lp3699
(I17
I8
tp3700
a(I15
I8
tp3701
a(I16
I9
tp3702
a(I16
I7
tp3703
asg55
I0
sba(iNavigator_0_0663
NODE
p3704
(dp3705
g47
(lp3706
I0
aI0
aI0
aI0
asg49
(lp3707
sg51
(lp3708
(I17
I9
tp3709
a(I15
I9
tp3710
a(I16
I10
tp3711
a(I16
I8
tp3712
asg55
I0
sba(iNavigator_0_0663
NODE
p3713
(dp3714
g47
(lp3715
I0
aI0
aI0
aI0
asg49
(lp3716
sg51
(lp3717
(I17
I10
tp3718
a(I15
I10
tp3719
a(I16
I11
tp3720
a(I16
I9
tp3721
asg55
I0
sba(iNavigator_0_0663
NODE
p3722
(dp3723
g47
(lp3724
I0
aI0
aI0
aI0
asg49
(lp3725
sg51
(lp3726
(I17
I11
tp3727
a(I15
I11
tp3728
a(I16
I12
tp3729
a(I16
I10
tp3730
asg55
I0
sba(iNavigator_0_0663
NODE
p3731
(dp3732
g47
(lp3733
I0
aI0
aI0
aI0
asg49
(lp3734
sg51
(lp3735
(I17
I12
tp3736
a(I15
I12
tp3737
a(I16
I13
tp3738
a(I16
I11
tp3739
asg55
I0
sba(iNavigator_0_0663
NODE
p3740
(dp3741
g47
(lp3742
I0
aI0
aI0
aI0
asg49
(lp3743
sg51
(lp3744
(I17
I13
tp3745
a(I15
I13
tp3746
a(I16
I14
tp3747
a(I16
I12
tp3748
asg55
I0
sba(iNavigator_0_0663
NODE
p3749
(dp3750
g47
(lp3751
I0
aI0
aI0
aI0
asg49
(lp3752
sg51
(lp3753
(I17
I14
tp3754
a(I15
I14
tp3755
a(I16
I15
tp3756
a(I16
I13
tp3757
asg55
I0
sba(iNavigator_0_0663
NODE
p3758
(dp3759
g47
(lp3760
I0
aI0
aI0
aI0
asg49
(lp3761
sg51
(lp3762
(I17
I15
tp3763
a(I15
I15
tp3764
a(I16
I16
tp3765
a(I16
I14
tp3766
asg55
I0
sba(iNavigator_0_0663
NODE
p3767
(dp3768
g47
(lp3769
I0
aI0
aI0
aI0
asg49
(lp3770
sg51
(lp3771
(I17
I16
tp3772
a(I15
I16
tp3773
a(I16
I17
tp3774
a(I16
I15
tp3775
asg55
I0
sba(iNavigator_0_0663
NODE
p3776
(dp3777
g47
(lp3778
I0
aI0
aI0
aI0
asg49
(lp3779
(I15
I17
tp3780
a(I17
I17
tp3781
asg51
(lp3782
(I17
I17
tp3783
a(I15
I17
tp3784
a(I16
I18
tp3785
a(I16
I16
tp3786
asg55
I0
sba(iNavigator_0_0663
NODE
p3787
(dp3788
g47
(lp3789
I0
aI0
aI0
aI0
asg49
(lp3790
(I15
I18
tp3791
a(I17
I18
tp3792
a(I16
I19
tp3793
asg51
(lp3794
(I17
I18
tp3795
a(I15
I18
tp3796
a(I16
I19
tp3797
a(I16
I17
tp3798
asg55
I0
sba(iNavigator_0_0663
NODE
p3799
(dp3800
g47
(lp3801
I0
aI0
aI0
aI0
asg49
(lp3802
(I16
I18
tp3803
a(I17
I19
tp3804
asg51
(lp3805
(I17
I19
tp3806
a(I15
I19
tp3807
a(I16
I20
tp3808
a(I16
I18
tp3809
asg55
I0
sba(iNavigator_0_0663
NODE
p3810
(dp3811
g47
(lp3812
I0
aI0
aI0
aI0
asg49
(lp3813
sg51
(lp3814
(I17
I20
tp3815
a(I15
I20
tp3816
a(I16
I21
tp3817
a(I16
I19
tp3818
asg55
I0
sba(iNavigator_0_0663
NODE
p3819
(dp3820
g47
(lp3821
I0
aI0
aI0
aI0
asg49
(lp3822
sg51
(lp3823
(I17
I21
tp3824
a(I15
I21
tp3825
a(I16
I22
tp3826
a(I16
I20
tp3827
asg55
I0
sba(iNavigator_0_0663
NODE
p3828
(dp3829
g47
(lp3830
I0
aI0
aI0
aI0
asg49
(lp3831
sg51
(lp3832
(I17
I22
tp3833
a(I15
I22
tp3834
a(I16
I23
tp3835
a(I16
I21
tp3836
asg55
I0
sba(iNavigator_0_0663
NODE
p3837
(dp3838
g47
(lp3839
I0
aI0
aI0
aI0
asg49
(lp3840
sg51
(lp3841
(I17
I23
tp3842
a(I15
I23
tp3843
a(I16
I24
tp3844
a(I16
I22
tp3845
asg55
I0
sba(iNavigator_0_0663
NODE
p3846
(dp3847
g47
(lp3848
I0
aI0
aI0
aI0
asg49
(lp3849
sg51
(lp3850
(I17
I24
tp3851
a(I15
I24
tp3852
a(I16
I23
tp3853
asg55
I0
sbaa(lp3854
(iNavigator_0_0663
NODE
p3855
(dp3856
g47
(lp3857
I0
aI0
aI0
aI0
asg49
(lp3858
sg51
(lp3859
(I18
I0
tp3860
a(I16
I0
tp3861
a(I17
I1
tp3862
asg55
I0
sba(iNavigator_0_0663
NODE
p3863
(dp3864
g47
(lp3865
I0
aI0
aI0
aI0
asg49
(lp3866
sg51
(lp3867
(I18
I1
tp3868
a(I16
I1
tp3869
a(I17
I2
tp3870
a(I17
I0
tp3871
asg55
I0
sba(iNavigator_0_0663
NODE
p3872
(dp3873
g47
(lp3874
I0
aI0
aI0
aI0
asg49
(lp3875
sg51
(lp3876
(I18
I2
tp3877
a(I16
I2
tp3878
a(I17
I3
tp3879
a(I17
I1
tp3880
asg55
I0
sba(iNavigator_0_0663
NODE
p3881
(dp3882
g47
(lp3883
I0
aI0
aI0
aI0
asg49
(lp3884
sg51
(lp3885
(I18
I3
tp3886
a(I16
I3
tp3887
a(I17
I4
tp3888
a(I17
I2
tp3889
asg55
I0
sba(iNavigator_0_0663
NODE
p3890
(dp3891
g47
(lp3892
I0
aI0
aI0
aI0
asg49
(lp3893
sg51
(lp3894
(I18
I4
tp3895
a(I16
I4
tp3896
a(I17
I5
tp3897
a(I17
I3
tp3898
asg55
I0
sba(iNavigator_0_0663
NODE
p3899
(dp3900
g47
(lp3901
I0
aI0
aI0
aI0
asg49
(lp3902
sg51
(lp3903
(I18
I5
tp3904
a(I16
I5
tp3905
a(I17
I6
tp3906
a(I17
I4
tp3907
asg55
I0
sba(iNavigator_0_0663
NODE
p3908
(dp3909
g47
(lp3910
I0
aI0
aI0
aI0
asg49
(lp3911
sg51
(lp3912
(I18
I6
tp3913
a(I16
I6
tp3914
a(I17
I7
tp3915
a(I17
I5
tp3916
asg55
I0
sba(iNavigator_0_0663
NODE
p3917
(dp3918
g47
(lp3919
I0
aI0
aI0
aI0
asg49
(lp3920
sg51
(lp3921
(I18
I7
tp3922
a(I16
I7
tp3923
a(I17
I8
tp3924
a(I17
I6
tp3925
asg55
I0
sba(iNavigator_0_0663
NODE
p3926
(dp3927
g47
(lp3928
I0
aI0
aI0
aI0
asg49
(lp3929
sg51
(lp3930
(I18
I8
tp3931
a(I16
I8
tp3932
a(I17
I9
tp3933
a(I17
I7
tp3934
asg55
I0
sba(iNavigator_0_0663
NODE
p3935
(dp3936
g47
(lp3937
I0
aI0
aI0
aI0
asg49
(lp3938
sg51
(lp3939
(I18
I9
tp3940
a(I16
I9
tp3941
a(I17
I10
tp3942
a(I17
I8
tp3943
asg55
I0
sba(iNavigator_0_0663
NODE
p3944
(dp3945
g47
(lp3946
I0
aI0
aI0
aI0
asg49
(lp3947
sg51
(lp3948
(I18
I10
tp3949
a(I16
I10
tp3950
a(I17
I11
tp3951
a(I17
I9
tp3952
asg55
I0
sba(iNavigator_0_0663
NODE
p3953
(dp3954
g47
(lp3955
I0
aI0
aI0
aI0
asg49
(lp3956
sg51
(lp3957
(I18
I11
tp3958
a(I16
I11
tp3959
a(I17
I12
tp3960
a(I17
I10
tp3961
asg55
I0
sba(iNavigator_0_0663
NODE
p3962
(dp3963
g47
(lp3964
I0
aI0
aI0
aI0
asg49
(lp3965
sg51
(lp3966
(I18
I12
tp3967
a(I16
I12
tp3968
a(I17
I13
tp3969
a(I17
I11
tp3970
asg55
I0
sba(iNavigator_0_0663
NODE
p3971
(dp3972
g47
(lp3973
I0
aI0
aI0
aI0
asg49
(lp3974
sg51
(lp3975
(I18
I13
tp3976
a(I16
I13
tp3977
a(I17
I14
tp3978
a(I17
I12
tp3979
asg55
I0
sba(iNavigator_0_0663
NODE
p3980
(dp3981
g47
(lp3982
I0
aI0
aI0
aI0
asg49
(lp3983
sg51
(lp3984
(I18
I14
tp3985
a(I16
I14
tp3986
a(I17
I15
tp3987
a(I17
I13
tp3988
asg55
I0
sba(iNavigator_0_0663
NODE
p3989
(dp3990
g47
(lp3991
I0
aI0
aI0
aI0
asg49
(lp3992
(I17
I16
tp3993
asg51
(lp3994
(I18
I15
tp3995
a(I16
I15
tp3996
a(I17
I16
tp3997
a(I17
I14
tp3998
asg55
I0
sba(iNavigator_0_0663
NODE
p3999
(dp4000
g47
(lp4001
I0
aI0
aI0
aI0
asg49
(lp4002
(I17
I15
tp4003
a(I18
I16
tp4004
asg51
(lp4005
(I18
I16
tp4006
a(I16
I16
tp4007
a(I17
I17
tp4008
a(I17
I15
tp4009
asg55
I0
sba(iNavigator_0_0663
NODE
p4010
(dp4011
g47
(lp4012
I0
aI0
aI0
aI0
asg49
(lp4013
(I16
I17
tp4014
a(I18
I17
tp4015
a(I17
I18
tp4016
asg51
(lp4017
(I18
I17
tp4018
a(I16
I17
tp4019
a(I17
I18
tp4020
a(I17
I16
tp4021
asg55
I0
sba(iNavigator_0_0663
NODE
p4022
(dp4023
g47
(lp4024
I0
aI0
aI0
aI0
asg49
(lp4025
(I17
I17
tp4026
a(I16
I18
tp4027
a(I18
I18
tp4028
a(I17
I19
tp4029
asg51
(lp4030
(I18
I18
tp4031
a(I16
I18
tp4032
a(I17
I19
tp4033
a(I17
I17
tp4034
asg55
I0
sba(iNavigator_0_0663
NODE
p4035
(dp4036
g47
(lp4037
I0
aI0
aI0
aI0
asg49
(lp4038
(I17
I18
tp4039
a(I16
I19
tp4040
asg51
(lp4041
(I18
I19
tp4042
a(I16
I19
tp4043
a(I17
I20
tp4044
a(I17
I18
tp4045
asg55
I0
sba(iNavigator_0_0663
NODE
p4046
(dp4047
g47
(lp4048
I0
aI0
aI0
aI0
asg49
(lp4049
sg51
(lp4050
(I18
I20
tp4051
a(I16
I20
tp4052
a(I17
I21
tp4053
a(I17
I19
tp4054
asg55
I0
sba(iNavigator_0_0663
NODE
p4055
(dp4056
g47
(lp4057
I0
aI0
aI0
aI0
asg49
(lp4058
sg51
(lp4059
(I18
I21
tp4060
a(I16
I21
tp4061
a(I17
I22
tp4062
a(I17
I20
tp4063
asg55
I0
sba(iNavigator_0_0663
NODE
p4064
(dp4065
g47
(lp4066
I0
aI0
aI0
aI0
asg49
(lp4067
sg51
(lp4068
(I18
I22
tp4069
a(I16
I22
tp4070
a(I17
I23
tp4071
a(I17
I21
tp4072
asg55
I0
sba(iNavigator_0_0663
NODE
p4073
(dp4074
g47
(lp4075
I0
aI0
aI0
aI0
asg49
(lp4076
sg51
(lp4077
(I18
I23
tp4078
a(I16
I23
tp4079
a(I17
I24
tp4080
a(I17
I22
tp4081
asg55
I0
sba(iNavigator_0_0663
NODE
p4082
(dp4083
g47
(lp4084
I0
aI0
aI0
aI0
asg49
(lp4085
sg51
(lp4086
(I18
I24
tp4087
a(I16
I24
tp4088
a(I17
I23
tp4089
asg55
I0
sbaa(lp4090
(iNavigator_0_0663
NODE
p4091
(dp4092
g47
(lp4093
I0
aI0
aI0
aI0
asg49
(lp4094
sg51
(lp4095
(I19
I0
tp4096
a(I17
I0
tp4097
a(I18
I1
tp4098
asg55
I0
sba(iNavigator_0_0663
NODE
p4099
(dp4100
g47
(lp4101
I0
aI0
aI0
aI0
asg49
(lp4102
sg51
(lp4103
(I19
I1
tp4104
a(I17
I1
tp4105
a(I18
I2
tp4106
a(I18
I0
tp4107
asg55
I0
sba(iNavigator_0_0663
NODE
p4108
(dp4109
g47
(lp4110
I0
aI0
aI0
aI0
asg49
(lp4111
sg51
(lp4112
(I19
I2
tp4113
a(I17
I2
tp4114
a(I18
I3
tp4115
a(I18
I1
tp4116
asg55
I0
sba(iNavigator_0_0663
NODE
p4117
(dp4118
g47
(lp4119
I0
aI0
aI0
aI0
asg49
(lp4120
sg51
(lp4121
(I19
I3
tp4122
a(I17
I3
tp4123
a(I18
I4
tp4124
a(I18
I2
tp4125
asg55
I0
sba(iNavigator_0_0663
NODE
p4126
(dp4127
g47
(lp4128
I0
aI0
aI0
aI0
asg49
(lp4129
sg51
(lp4130
(I19
I4
tp4131
a(I17
I4
tp4132
a(I18
I5
tp4133
a(I18
I3
tp4134
asg55
I0
sba(iNavigator_0_0663
NODE
p4135
(dp4136
g47
(lp4137
I0
aI0
aI0
aI0
asg49
(lp4138
sg51
(lp4139
(I19
I5
tp4140
a(I17
I5
tp4141
a(I18
I6
tp4142
a(I18
I4
tp4143
asg55
I0
sba(iNavigator_0_0663
NODE
p4144
(dp4145
g47
(lp4146
I0
aI0
aI0
aI0
asg49
(lp4147
sg51
(lp4148
(I19
I6
tp4149
a(I17
I6
tp4150
a(I18
I7
tp4151
a(I18
I5
tp4152
asg55
I0
sba(iNavigator_0_0663
NODE
p4153
(dp4154
g47
(lp4155
I0
aI0
aI0
aI0
asg49
(lp4156
sg51
(lp4157
(I19
I7
tp4158
a(I17
I7
tp4159
a(I18
I8
tp4160
a(I18
I6
tp4161
asg55
I0
sba(iNavigator_0_0663
NODE
p4162
(dp4163
g47
(lp4164
I0
aI0
aI0
aI0
asg49
(lp4165
sg51
(lp4166
(I19
I8
tp4167
a(I17
I8
tp4168
a(I18
I9
tp4169
a(I18
I7
tp4170
asg55
I0
sba(iNavigator_0_0663
NODE
p4171
(dp4172
g47
(lp4173
I0
aI0
aI0
aI0
asg49
(lp4174
sg51
(lp4175
(I19
I9
tp4176
a(I17
I9
tp4177
a(I18
I10
tp4178
a(I18
I8
tp4179
asg55
I0
sba(iNavigator_0_0663
NODE
p4180
(dp4181
g47
(lp4182
I0
aI0
aI0
aI0
asg49
(lp4183
sg51
(lp4184
(I19
I10
tp4185
a(I17
I10
tp4186
a(I18
I11
tp4187
a(I18
I9
tp4188
asg55
I0
sba(iNavigator_0_0663
NODE
p4189
(dp4190
g47
(lp4191
I0
aI0
aI0
aI0
asg49
(lp4192
sg51
(lp4193
(I19
I11
tp4194
a(I17
I11
tp4195
a(I18
I12
tp4196
a(I18
I10
tp4197
asg55
I0
sba(iNavigator_0_0663
NODE
p4198
(dp4199
g47
(lp4200
I0
aI0
aI0
aI0
asg49
(lp4201
sg51
(lp4202
(I19
I12
tp4203
a(I17
I12
tp4204
a(I18
I13
tp4205
a(I18
I11
tp4206
asg55
I0
sba(iNavigator_0_0663
NODE
p4207
(dp4208
g47
(lp4209
I0
aI0
aI0
aI0
asg49
(lp4210
sg51
(lp4211
(I19
I13
tp4212
a(I17
I13
tp4213
a(I18
I14
tp4214
a(I18
I12
tp4215
asg55
I0
sba(iNavigator_0_0663
NODE
p4216
(dp4217
g47
(lp4218
I0
aI0
aI0
aI0
asg49
(lp4219
sg51
(lp4220
(I19
I14
tp4221
a(I17
I14
tp4222
a(I18
I15
tp4223
a(I18
I13
tp4224
asg55
I0
sba(iNavigator_0_0663
NODE
p4225
(dp4226
g47
(lp4227
I0
aI0
aI0
aI0
asg49
(lp4228
(I19
I15
tp4229
asg51
(lp4230
(I19
I15
tp4231
a(I17
I15
tp4232
a(I18
I16
tp4233
a(I18
I14
tp4234
asg55
I0
sba(iNavigator_0_0663
NODE
p4235
(dp4236
g47
(lp4237
I0
aI0
aI0
aI0
asg49
(lp4238
(I17
I16
tp4239
a(I19
I16
tp4240
a(I18
I17
tp4241
asg51
(lp4242
(I19
I16
tp4243
a(I17
I16
tp4244
a(I18
I17
tp4245
a(I18
I15
tp4246
asg55
I0
sba(iNavigator_0_0663
NODE
p4247
(dp4248
g47
(lp4249
I0
aI0
aI0
aI0
asg49
(lp4250
(I18
I16
tp4251
a(I17
I17
tp4252
asg51
(lp4253
(I19
I17
tp4254
a(I17
I17
tp4255
a(I18
I18
tp4256
a(I18
I16
tp4257
asg55
I0
sba(iNavigator_0_0663
NODE
p4258
(dp4259
g47
(lp4260
I0
aI0
aI0
aI0
asg49
(lp4261
(I17
I18
tp4262
a(I19
I18
tp4263
asg51
(lp4264
(I19
I18
tp4265
a(I17
I18
tp4266
a(I18
I19
tp4267
a(I18
I17
tp4268
asg55
I0
sba(iNavigator_0_0663
NODE
p4269
(dp4270
g47
(lp4271
I0
aI0
aI0
aI0
asg49
(lp4272
(I19
I19
tp4273
asg51
(lp4274
(I19
I19
tp4275
a(I17
I19
tp4276
a(I18
I20
tp4277
a(I18
I18
tp4278
asg55
I0
sba(iNavigator_0_0663
NODE
p4279
(dp4280
g47
(lp4281
I0
aI0
aI0
aI0
asg49
(lp4282
sg51
(lp4283
(I19
I20
tp4284
a(I17
I20
tp4285
a(I18
I21
tp4286
a(I18
I19
tp4287
asg55
I0
sba(iNavigator_0_0663
NODE
p4288
(dp4289
g47
(lp4290
I0
aI0
aI0
aI0
asg49
(lp4291
sg51
(lp4292
(I19
I21
tp4293
a(I17
I21
tp4294
a(I18
I22
tp4295
a(I18
I20
tp4296
asg55
I0
sba(iNavigator_0_0663
NODE
p4297
(dp4298
g47
(lp4299
I0
aI0
aI0
aI0
asg49
(lp4300
sg51
(lp4301
(I19
I22
tp4302
a(I17
I22
tp4303
a(I18
I23
tp4304
a(I18
I21
tp4305
asg55
I0
sba(iNavigator_0_0663
NODE
p4306
(dp4307
g47
(lp4308
I0
aI0
aI0
aI0
asg49
(lp4309
sg51
(lp4310
(I19
I23
tp4311
a(I17
I23
tp4312
a(I18
I24
tp4313
a(I18
I22
tp4314
asg55
I0
sba(iNavigator_0_0663
NODE
p4315
(dp4316
g47
(lp4317
I0
aI0
aI0
aI0
asg49
(lp4318
sg51
(lp4319
(I19
I24
tp4320
a(I17
I24
tp4321
a(I18
I23
tp4322
asg55
I0
sbaa(lp4323
(iNavigator_0_0663
NODE
p4324
(dp4325
g47
(lp4326
I0
aI0
aI0
aI0
asg49
(lp4327
sg51
(lp4328
(I20
I0
tp4329
a(I18
I0
tp4330
a(I19
I1
tp4331
asg55
I0
sba(iNavigator_0_0663
NODE
p4332
(dp4333
g47
(lp4334
I0
aI0
aI0
aI0
asg49
(lp4335
sg51
(lp4336
(I20
I1
tp4337
a(I18
I1
tp4338
a(I19
I2
tp4339
a(I19
I0
tp4340
asg55
I0
sba(iNavigator_0_0663
NODE
p4341
(dp4342
g47
(lp4343
I0
aI0
aI0
aI0
asg49
(lp4344
sg51
(lp4345
(I20
I2
tp4346
a(I18
I2
tp4347
a(I19
I3
tp4348
a(I19
I1
tp4349
asg55
I0
sba(iNavigator_0_0663
NODE
p4350
(dp4351
g47
(lp4352
I0
aI0
aI0
aI0
asg49
(lp4353
sg51
(lp4354
(I20
I3
tp4355
a(I18
I3
tp4356
a(I19
I4
tp4357
a(I19
I2
tp4358
asg55
I0
sba(iNavigator_0_0663
NODE
p4359
(dp4360
g47
(lp4361
I0
aI0
aI0
aI0
asg49
(lp4362
sg51
(lp4363
(I20
I4
tp4364
a(I18
I4
tp4365
a(I19
I5
tp4366
a(I19
I3
tp4367
asg55
I0
sba(iNavigator_0_0663
NODE
p4368
(dp4369
g47
(lp4370
I0
aI0
aI0
aI0
asg49
(lp4371
sg51
(lp4372
(I20
I5
tp4373
a(I18
I5
tp4374
a(I19
I6
tp4375
a(I19
I4
tp4376
asg55
I0
sba(iNavigator_0_0663
NODE
p4377
(dp4378
g47
(lp4379
I0
aI0
aI0
aI0
asg49
(lp4380
sg51
(lp4381
(I20
I6
tp4382
a(I18
I6
tp4383
a(I19
I7
tp4384
a(I19
I5
tp4385
asg55
I0
sba(iNavigator_0_0663
NODE
p4386
(dp4387
g47
(lp4388
I0
aI0
aI0
aI0
asg49
(lp4389
sg51
(lp4390
(I20
I7
tp4391
a(I18
I7
tp4392
a(I19
I8
tp4393
a(I19
I6
tp4394
asg55
I0
sba(iNavigator_0_0663
NODE
p4395
(dp4396
g47
(lp4397
I0
aI0
aI0
aI0
asg49
(lp4398
sg51
(lp4399
(I20
I8
tp4400
a(I18
I8
tp4401
a(I19
I9
tp4402
a(I19
I7
tp4403
asg55
I0
sba(iNavigator_0_0663
NODE
p4404
(dp4405
g47
(lp4406
I0
aI0
aI0
aI0
asg49
(lp4407
sg51
(lp4408
(I20
I9
tp4409
a(I18
I9
tp4410
a(I19
I10
tp4411
a(I19
I8
tp4412
asg55
I0
sba(iNavigator_0_0663
NODE
p4413
(dp4414
g47
(lp4415
I0
aI0
aI0
aI0
asg49
(lp4416
sg51
(lp4417
(I20
I10
tp4418
a(I18
I10
tp4419
a(I19
I11
tp4420
a(I19
I9
tp4421
asg55
I0
sba(iNavigator_0_0663
NODE
p4422
(dp4423
g47
(lp4424
I0
aI0
aI0
aI0
asg49
(lp4425
sg51
(lp4426
(I20
I11
tp4427
a(I18
I11
tp4428
a(I19
I12
tp4429
a(I19
I10
tp4430
asg55
I0
sba(iNavigator_0_0663
NODE
p4431
(dp4432
g47
(lp4433
I0
aI0
aI0
aI0
asg49
(lp4434
sg51
(lp4435
(I20
I12
tp4436
a(I18
I12
tp4437
a(I19
I13
tp4438
a(I19
I11
tp4439
asg55
I0
sba(iNavigator_0_0663
NODE
p4440
(dp4441
g47
(lp4442
I0
aI0
aI0
aI0
asg49
(lp4443
sg51
(lp4444
(I20
I13
tp4445
a(I18
I13
tp4446
a(I19
I14
tp4447
a(I19
I12
tp4448
asg55
I0
sba(iNavigator_0_0663
NODE
p4449
(dp4450
g47
(lp4451
I0
aI0
aI0
aI0
asg49
(lp4452
sg51
(lp4453
(I20
I14
tp4454
a(I18
I14
tp4455
a(I19
I15
tp4456
a(I19
I13
tp4457
asg55
I0
sba(iNavigator_0_0663
NODE
p4458
(dp4459
g47
(lp4460
I0
aI0
aI0
aI0
asg49
(lp4461
(I18
I15
tp4462
a(I20
I15
tp4463
a(I19
I16
tp4464
asg51
(lp4465
(I20
I15
tp4466
a(I18
I15
tp4467
a(I19
I16
tp4468
a(I19
I14
tp4469
asg55
I0
sba(iNavigator_0_0663
NODE
p4470
(dp4471
g47
(lp4472
I0
aI0
aI0
aI0
asg49
(lp4473
(I19
I15
tp4474
a(I18
I16
tp4475
a(I20
I16
tp4476
asg51
(lp4477
(I20
I16
tp4478
a(I18
I16
tp4479
a(I19
I17
tp4480
a(I19
I15
tp4481
asg55
I0
sba(iNavigator_0_0663
NODE
p4482
(dp4483
g47
(lp4484
I0
aI0
aI0
aI0
asg49
(lp4485
sg51
(lp4486
(I20
I17
tp4487
a(I18
I17
tp4488
a(I19
I18
tp4489
a(I19
I16
tp4490
asg55
I0
sba(iNavigator_0_0663
NODE
p4491
(dp4492
g47
(lp4493
I0
aI0
aI0
aI0
asg49
(lp4494
(I18
I18
tp4495
a(I20
I18
tp4496
a(I19
I19
tp4497
asg51
(lp4498
(I20
I18
tp4499
a(I18
I18
tp4500
a(I19
I19
tp4501
a(I19
I17
tp4502
asg55
I0
sba(iNavigator_0_0663
NODE
p4503
(dp4504
g47
(lp4505
I0
aI0
aI0
aI0
asg49
(lp4506
(I19
I18
tp4507
a(I18
I19
tp4508
a(I19
I20
tp4509
asg51
(lp4510
(I20
I19
tp4511
a(I18
I19
tp4512
a(I19
I20
tp4513
a(I19
I18
tp4514
asg55
I0
sba(iNavigator_0_0663
NODE
p4515
(dp4516
g47
(lp4517
I0
aI0
aI0
aI0
asg49
(lp4518
(I19
I19
tp4519
a(I20
I20
tp4520
asg51
(lp4521
(I20
I20
tp4522
a(I18
I20
tp4523
a(I19
I21
tp4524
a(I19
I19
tp4525
asg55
I0
sba(iNavigator_0_0663
NODE
p4526
(dp4527
g47
(lp4528
I0
aI0
aI0
aI0
asg49
(lp4529
sg51
(lp4530
(I20
I21
tp4531
a(I18
I21
tp4532
a(I19
I22
tp4533
a(I19
I20
tp4534
asg55
I0
sba(iNavigator_0_0663
NODE
p4535
(dp4536
g47
(lp4537
I0
aI0
aI0
aI0
asg49
(lp4538
sg51
(lp4539
(I20
I22
tp4540
a(I18
I22
tp4541
a(I19
I23
tp4542
a(I19
I21
tp4543
asg55
I0
sba(iNavigator_0_0663
NODE
p4544
(dp4545
g47
(lp4546
I0
aI0
aI0
aI0
asg49
(lp4547
sg51
(lp4548
(I20
I23
tp4549
a(I18
I23
tp4550
a(I19
I24
tp4551
a(I19
I22
tp4552
asg55
I0
sba(iNavigator_0_0663
NODE
p4553
(dp4554
g47
(lp4555
I0
aI0
aI0
aI0
asg49
(lp4556
sg51
(lp4557
(I20
I24
tp4558
a(I18
I24
tp4559
a(I19
I23
tp4560
asg55
I0
sbaa(lp4561
(iNavigator_0_0663
NODE
p4562
(dp4563
g47
(lp4564
I0
aI0
aI0
aI0
asg49
(lp4565
sg51
(lp4566
(I21
I0
tp4567
a(I19
I0
tp4568
a(I20
I1
tp4569
asg55
I0
sba(iNavigator_0_0663
NODE
p4570
(dp4571
g47
(lp4572
I0
aI0
aI0
aI0
asg49
(lp4573
sg51
(lp4574
(I21
I1
tp4575
a(I19
I1
tp4576
a(I20
I2
tp4577
a(I20
I0
tp4578
asg55
I0
sba(iNavigator_0_0663
NODE
p4579
(dp4580
g47
(lp4581
I0
aI0
aI0
aI0
asg49
(lp4582
sg51
(lp4583
(I21
I2
tp4584
a(I19
I2
tp4585
a(I20
I3
tp4586
a(I20
I1
tp4587
asg55
I0
sba(iNavigator_0_0663
NODE
p4588
(dp4589
g47
(lp4590
I0
aI0
aI0
aI0
asg49
(lp4591
sg51
(lp4592
(I21
I3
tp4593
a(I19
I3
tp4594
a(I20
I4
tp4595
a(I20
I2
tp4596
asg55
I0
sba(iNavigator_0_0663
NODE
p4597
(dp4598
g47
(lp4599
I0
aI0
aI0
aI0
asg49
(lp4600
sg51
(lp4601
(I21
I4
tp4602
a(I19
I4
tp4603
a(I20
I5
tp4604
a(I20
I3
tp4605
asg55
I0
sba(iNavigator_0_0663
NODE
p4606
(dp4607
g47
(lp4608
I0
aI0
aI0
aI0
asg49
(lp4609
sg51
(lp4610
(I21
I5
tp4611
a(I19
I5
tp4612
a(I20
I6
tp4613
a(I20
I4
tp4614
asg55
I0
sba(iNavigator_0_0663
NODE
p4615
(dp4616
g47
(lp4617
I0
aI0
aI0
aI0
asg49
(lp4618
sg51
(lp4619
(I21
I6
tp4620
a(I19
I6
tp4621
a(I20
I7
tp4622
a(I20
I5
tp4623
asg55
I0
sba(iNavigator_0_0663
NODE
p4624
(dp4625
g47
(lp4626
I0
aI0
aI0
aI0
asg49
(lp4627
sg51
(lp4628
(I21
I7
tp4629
a(I19
I7
tp4630
a(I20
I8
tp4631
a(I20
I6
tp4632
asg55
I0
sba(iNavigator_0_0663
NODE
p4633
(dp4634
g47
(lp4635
I0
aI0
aI0
aI0
asg49
(lp4636
sg51
(lp4637
(I21
I8
tp4638
a(I19
I8
tp4639
a(I20
I9
tp4640
a(I20
I7
tp4641
asg55
I0
sba(iNavigator_0_0663
NODE
p4642
(dp4643
g47
(lp4644
I0
aI0
aI0
aI0
asg49
(lp4645
sg51
(lp4646
(I21
I9
tp4647
a(I19
I9
tp4648
a(I20
I10
tp4649
a(I20
I8
tp4650
asg55
I0
sba(iNavigator_0_0663
NODE
p4651
(dp4652
g47
(lp4653
I0
aI0
aI0
aI0
asg49
(lp4654
sg51
(lp4655
(I21
I10
tp4656
a(I19
I10
tp4657
a(I20
I11
tp4658
a(I20
I9
tp4659
asg55
I0
sba(iNavigator_0_0663
NODE
p4660
(dp4661
g47
(lp4662
I0
aI0
aI0
aI0
asg49
(lp4663
sg51
(lp4664
(I21
I11
tp4665
a(I19
I11
tp4666
a(I20
I12
tp4667
a(I20
I10
tp4668
asg55
I0
sba(iNavigator_0_0663
NODE
p4669
(dp4670
g47
(lp4671
I0
aI0
aI0
aI0
asg49
(lp4672
sg51
(lp4673
(I21
I12
tp4674
a(I19
I12
tp4675
a(I20
I13
tp4676
a(I20
I11
tp4677
asg55
I0
sba(iNavigator_0_0663
NODE
p4678
(dp4679
g47
(lp4680
I0
aI0
aI0
aI0
asg49
(lp4681
sg51
(lp4682
(I21
I13
tp4683
a(I19
I13
tp4684
a(I20
I14
tp4685
a(I20
I12
tp4686
asg55
I0
sba(iNavigator_0_0663
NODE
p4687
(dp4688
g47
(lp4689
I0
aI0
aI0
aI0
asg49
(lp4690
sg51
(lp4691
(I21
I14
tp4692
a(I19
I14
tp4693
a(I20
I15
tp4694
a(I20
I13
tp4695
asg55
I0
sba(iNavigator_0_0663
NODE
p4696
(dp4697
g47
(lp4698
I0
aI0
aI0
aI0
asg49
(lp4699
(I19
I15
tp4700
a(I21
I15
tp4701
asg51
(lp4702
(I21
I15
tp4703
a(I19
I15
tp4704
a(I20
I16
tp4705
a(I20
I14
tp4706
asg55
I0
sba(iNavigator_0_0663
NODE
p4707
(dp4708
g47
(lp4709
I0
aI0
aI0
aI0
asg49
(lp4710
(I19
I16
tp4711
a(I20
I17
tp4712
asg51
(lp4713
(I21
I16
tp4714
a(I19
I16
tp4715
a(I20
I17
tp4716
a(I20
I15
tp4717
asg55
I0
sba(iNavigator_0_0663
NODE
p4718
(dp4719
g47
(lp4720
I0
aI0
aI0
aI0
asg49
(lp4721
(I20
I16
tp4722
a(I21
I17
tp4723
a(I20
I18
tp4724
asg51
(lp4725
(I21
I17
tp4726
a(I19
I17
tp4727
a(I20
I18
tp4728
a(I20
I16
tp4729
asg55
I0
sba(iNavigator_0_0663
NODE
p4730
(dp4731
g47
(lp4732
I0
aI0
aI0
aI0
asg49
(lp4733
(I20
I17
tp4734
a(I19
I18
tp4735
asg51
(lp4736
(I21
I18
tp4737
a(I19
I18
tp4738
a(I20
I19
tp4739
a(I20
I17
tp4740
asg55
I0
sba(iNavigator_0_0663
NODE
p4741
(dp4742
g47
(lp4743
I0
aI0
aI0
aI0
asg49
(lp4744
sg51
(lp4745
(I21
I19
tp4746
a(I19
I19
tp4747
a(I20
I20
tp4748
a(I20
I18
tp4749
asg55
I0
sba(iNavigator_0_0663
NODE
p4750
(dp4751
g47
(lp4752
I0
aI0
aI0
aI0
asg49
(lp4753
(I19
I20
tp4754
asg51
(lp4755
(I21
I20
tp4756
a(I19
I20
tp4757
a(I20
I21
tp4758
a(I20
I19
tp4759
asg55
I0
sba(iNavigator_0_0663
NODE
p4760
(dp4761
g47
(lp4762
I0
aI0
aI0
aI0
asg49
(lp4763
sg51
(lp4764
(I21
I21
tp4765
a(I19
I21
tp4766
a(I20
I22
tp4767
a(I20
I20
tp4768
asg55
I0
sba(iNavigator_0_0663
NODE
p4769
(dp4770
g47
(lp4771
I0
aI0
aI0
aI0
asg49
(lp4772
sg51
(lp4773
(I21
I22
tp4774
a(I19
I22
tp4775
a(I20
I23
tp4776
a(I20
I21
tp4777
asg55
I0
sba(iNavigator_0_0663
NODE
p4778
(dp4779
g47
(lp4780
I0
aI0
aI0
aI0
asg49
(lp4781
sg51
(lp4782
(I21
I23
tp4783
a(I19
I23
tp4784
a(I20
I24
tp4785
a(I20
I22
tp4786
asg55
I0
sba(iNavigator_0_0663
NODE
p4787
(dp4788
g47
(lp4789
I0
aI0
aI0
aI0
asg49
(lp4790
sg51
(lp4791
(I21
I24
tp4792
a(I19
I24
tp4793
a(I20
I23
tp4794
asg55
I0
sbaa(lp4795
(iNavigator_0_0663
NODE
p4796
(dp4797
g47
(lp4798
I0
aI0
aI0
aI0
asg49
(lp4799
sg51
(lp4800
(I22
I0
tp4801
a(I20
I0
tp4802
a(I21
I1
tp4803
asg55
I0
sba(iNavigator_0_0663
NODE
p4804
(dp4805
g47
(lp4806
I0
aI0
aI0
aI0
asg49
(lp4807
sg51
(lp4808
(I22
I1
tp4809
a(I20
I1
tp4810
a(I21
I2
tp4811
a(I21
I0
tp4812
asg55
I0
sba(iNavigator_0_0663
NODE
p4813
(dp4814
g47
(lp4815
I0
aI0
aI0
aI0
asg49
(lp4816
sg51
(lp4817
(I22
I2
tp4818
a(I20
I2
tp4819
a(I21
I3
tp4820
a(I21
I1
tp4821
asg55
I0
sba(iNavigator_0_0663
NODE
p4822
(dp4823
g47
(lp4824
I0
aI0
aI0
aI0
asg49
(lp4825
sg51
(lp4826
(I22
I3
tp4827
a(I20
I3
tp4828
a(I21
I4
tp4829
a(I21
I2
tp4830
asg55
I0
sba(iNavigator_0_0663
NODE
p4831
(dp4832
g47
(lp4833
I0
aI0
aI0
aI0
asg49
(lp4834
sg51
(lp4835
(I22
I4
tp4836
a(I20
I4
tp4837
a(I21
I5
tp4838
a(I21
I3
tp4839
asg55
I0
sba(iNavigator_0_0663
NODE
p4840
(dp4841
g47
(lp4842
I0
aI0
aI0
aI0
asg49
(lp4843
sg51
(lp4844
(I22
I5
tp4845
a(I20
I5
tp4846
a(I21
I6
tp4847
a(I21
I4
tp4848
asg55
I0
sba(iNavigator_0_0663
NODE
p4849
(dp4850
g47
(lp4851
I0
aI0
aI0
aI0
asg49
(lp4852
sg51
(lp4853
(I22
I6
tp4854
a(I20
I6
tp4855
a(I21
I7
tp4856
a(I21
I5
tp4857
asg55
I0
sba(iNavigator_0_0663
NODE
p4858
(dp4859
g47
(lp4860
I0
aI0
aI0
aI0
asg49
(lp4861
sg51
(lp4862
(I22
I7
tp4863
a(I20
I7
tp4864
a(I21
I8
tp4865
a(I21
I6
tp4866
asg55
I0
sba(iNavigator_0_0663
NODE
p4867
(dp4868
g47
(lp4869
I0
aI0
aI0
aI0
asg49
(lp4870
sg51
(lp4871
(I22
I8
tp4872
a(I20
I8
tp4873
a(I21
I9
tp4874
a(I21
I7
tp4875
asg55
I0
sba(iNavigator_0_0663
NODE
p4876
(dp4877
g47
(lp4878
I0
aI0
aI0
aI0
asg49
(lp4879
sg51
(lp4880
(I22
I9
tp4881
a(I20
I9
tp4882
a(I21
I10
tp4883
a(I21
I8
tp4884
asg55
I0
sba(iNavigator_0_0663
NODE
p4885
(dp4886
g47
(lp4887
I0
aI0
aI0
aI0
asg49
(lp4888
sg51
(lp4889
(I22
I10
tp4890
a(I20
I10
tp4891
a(I21
I11
tp4892
a(I21
I9
tp4893
asg55
I0
sba(iNavigator_0_0663
NODE
p4894
(dp4895
g47
(lp4896
I0
aI0
aI0
aI0
asg49
(lp4897
sg51
(lp4898
(I22
I11
tp4899
a(I20
I11
tp4900
a(I21
I12
tp4901
a(I21
I10
tp4902
asg55
I0
sba(iNavigator_0_0663
NODE
p4903
(dp4904
g47
(lp4905
I0
aI0
aI0
aI0
asg49
(lp4906
sg51
(lp4907
(I22
I12
tp4908
a(I20
I12
tp4909
a(I21
I13
tp4910
a(I21
I11
tp4911
asg55
I0
sba(iNavigator_0_0663
NODE
p4912
(dp4913
g47
(lp4914
I0
aI0
aI0
aI0
asg49
(lp4915
sg51
(lp4916
(I22
I13
tp4917
a(I20
I13
tp4918
a(I21
I14
tp4919
a(I21
I12
tp4920
asg55
I0
sba(iNavigator_0_0663
NODE
p4921
(dp4922
g47
(lp4923
I0
aI0
aI0
aI0
asg49
(lp4924
sg51
(lp4925
(I22
I14
tp4926
a(I20
I14
tp4927
a(I21
I15
tp4928
a(I21
I13
tp4929
asg55
I0
sba(iNavigator_0_0663
NODE
p4930
(dp4931
g47
(lp4932
I0
aI0
aI0
aI0
asg49
(lp4933
(I20
I15
tp4934
a(I22
I15
tp4935
asg51
(lp4936
(I22
I15
tp4937
a(I20
I15
tp4938
a(I21
I16
tp4939
a(I21
I14
tp4940
asg55
I0
sba(iNavigator_0_0663
NODE
p4941
(dp4942
g47
(lp4943
I0
aI0
aI0
aI0
asg49
(lp4944
sg51
(lp4945
(I22
I16
tp4946
a(I20
I16
tp4947
a(I21
I17
tp4948
a(I21
I15
tp4949
asg55
I0
sba(iNavigator_0_0663
NODE
p4950
(dp4951
g47
(lp4952
I0
aI0
aI0
aI0
asg49
(lp4953
(I20
I17
tp4954
a(I22
I17
tp4955
asg51
(lp4956
(I22
I17
tp4957
a(I20
I17
tp4958
a(I21
I18
tp4959
a(I21
I16
tp4960
asg55
I0
sba(iNavigator_0_0663
NODE
p4961
(dp4962
g47
(lp4963
I0
aI0
aI0
aI0
asg49
(lp4964
sg51
(lp4965
(I22
I18
tp4966
a(I20
I18
tp4967
a(I21
I19
tp4968
a(I21
I17
tp4969
asg55
I0
sba(iNavigator_0_0663
NODE
p4970
(dp4971
g47
(lp4972
I0
aI0
aI0
aI0
asg49
(lp4973
sg51
(lp4974
(I22
I19
tp4975
a(I20
I19
tp4976
a(I21
I20
tp4977
a(I21
I18
tp4978
asg55
I0
sba(iNavigator_0_0663
NODE
p4979
(dp4980
g47
(lp4981
I0
aI0
aI0
aI0
asg49
(lp4982
sg51
(lp4983
(I22
I20
tp4984
a(I20
I20
tp4985
a(I21
I21
tp4986
a(I21
I19
tp4987
asg55
I0
sba(iNavigator_0_0663
NODE
p4988
(dp4989
g47
(lp4990
I0
aI0
aI0
aI0
asg49
(lp4991
sg51
(lp4992
(I22
I21
tp4993
a(I20
I21
tp4994
a(I21
I22
tp4995
a(I21
I20
tp4996
asg55
I0
sba(iNavigator_0_0663
NODE
p4997
(dp4998
g47
(lp4999
I0
aI0
aI0
aI0
asg49
(lp5000
sg51
(lp5001
(I22
I22
tp5002
a(I20
I22
tp5003
a(I21
I23
tp5004
a(I21
I21
tp5005
asg55
I0
sba(iNavigator_0_0663
NODE
p5006
(dp5007
g47
(lp5008
I0
aI0
aI0
aI0
asg49
(lp5009
sg51
(lp5010
(I22
I23
tp5011
a(I20
I23
tp5012
a(I21
I24
tp5013
a(I21
I22
tp5014
asg55
I0
sba(iNavigator_0_0663
NODE
p5015
(dp5016
g47
(lp5017
I0
aI0
aI0
aI0
asg49
(lp5018
sg51
(lp5019
(I22
I24
tp5020
a(I20
I24
tp5021
a(I21
I23
tp5022
asg55
I0
sbaa(lp5023
(iNavigator_0_0663
NODE
p5024
(dp5025
g47
(lp5026
I0
aI0
aI0
aI0
asg49
(lp5027
sg51
(lp5028
(I23
I0
tp5029
a(I21
I0
tp5030
a(I22
I1
tp5031
asg55
I0
sba(iNavigator_0_0663
NODE
p5032
(dp5033
g47
(lp5034
I0
aI0
aI0
aI0
asg49
(lp5035
sg51
(lp5036
(I23
I1
tp5037
a(I21
I1
tp5038
a(I22
I2
tp5039
a(I22
I0
tp5040
asg55
I0
sba(iNavigator_0_0663
NODE
p5041
(dp5042
g47
(lp5043
I0
aI0
aI0
aI0
asg49
(lp5044
sg51
(lp5045
(I23
I2
tp5046
a(I21
I2
tp5047
a(I22
I3
tp5048
a(I22
I1
tp5049
asg55
I0
sba(iNavigator_0_0663
NODE
p5050
(dp5051
g47
(lp5052
I0
aI0
aI0
aI0
asg49
(lp5053
sg51
(lp5054
(I23
I3
tp5055
a(I21
I3
tp5056
a(I22
I4
tp5057
a(I22
I2
tp5058
asg55
I0
sba(iNavigator_0_0663
NODE
p5059
(dp5060
g47
(lp5061
I0
aI0
aI0
aI0
asg49
(lp5062
sg51
(lp5063
(I23
I4
tp5064
a(I21
I4
tp5065
a(I22
I5
tp5066
a(I22
I3
tp5067
asg55
I0
sba(iNavigator_0_0663
NODE
p5068
(dp5069
g47
(lp5070
I0
aI0
aI0
aI0
asg49
(lp5071
sg51
(lp5072
(I23
I5
tp5073
a(I21
I5
tp5074
a(I22
I6
tp5075
a(I22
I4
tp5076
asg55
I0
sba(iNavigator_0_0663
NODE
p5077
(dp5078
g47
(lp5079
I0
aI0
aI0
aI0
asg49
(lp5080
sg51
(lp5081
(I23
I6
tp5082
a(I21
I6
tp5083
a(I22
I7
tp5084
a(I22
I5
tp5085
asg55
I0
sba(iNavigator_0_0663
NODE
p5086
(dp5087
g47
(lp5088
I0
aI0
aI0
aI0
asg49
(lp5089
sg51
(lp5090
(I23
I7
tp5091
a(I21
I7
tp5092
a(I22
I8
tp5093
a(I22
I6
tp5094
asg55
I0
sba(iNavigator_0_0663
NODE
p5095
(dp5096
g47
(lp5097
I0
aI0
aI0
aI0
asg49
(lp5098
sg51
(lp5099
(I23
I8
tp5100
a(I21
I8
tp5101
a(I22
I9
tp5102
a(I22
I7
tp5103
asg55
I0
sba(iNavigator_0_0663
NODE
p5104
(dp5105
g47
(lp5106
I0
aI0
aI0
aI0
asg49
(lp5107
sg51
(lp5108
(I23
I9
tp5109
a(I21
I9
tp5110
a(I22
I10
tp5111
a(I22
I8
tp5112
asg55
I0
sba(iNavigator_0_0663
NODE
p5113
(dp5114
g47
(lp5115
I0
aI0
aI0
aI0
asg49
(lp5116
sg51
(lp5117
(I23
I10
tp5118
a(I21
I10
tp5119
a(I22
I11
tp5120
a(I22
I9
tp5121
asg55
I0
sba(iNavigator_0_0663
NODE
p5122
(dp5123
g47
(lp5124
I0
aI0
aI0
aI0
asg49
(lp5125
sg51
(lp5126
(I23
I11
tp5127
a(I21
I11
tp5128
a(I22
I12
tp5129
a(I22
I10
tp5130
asg55
I0
sba(iNavigator_0_0663
NODE
p5131
(dp5132
g47
(lp5133
I0
aI0
aI0
aI0
asg49
(lp5134
sg51
(lp5135
(I23
I12
tp5136
a(I21
I12
tp5137
a(I22
I13
tp5138
a(I22
I11
tp5139
asg55
I0
sba(iNavigator_0_0663
NODE
p5140
(dp5141
g47
(lp5142
I0
aI0
aI0
aI0
asg49
(lp5143
sg51
(lp5144
(I23
I13
tp5145
a(I21
I13
tp5146
a(I22
I14
tp5147
a(I22
I12
tp5148
asg55
I0
sba(iNavigator_0_0663
NODE
p5149
(dp5150
g47
(lp5151
I0
aI0
aI0
aI0
asg49
(lp5152
sg51
(lp5153
(I23
I14
tp5154
a(I21
I14
tp5155
a(I22
I15
tp5156
a(I22
I13
tp5157
asg55
I0
sba(iNavigator_0_0663
NODE
p5158
(dp5159
g47
(lp5160
I0
aI0
aI0
aI0
asg49
(lp5161
(I21
I15
tp5162
a(I23
I15
tp5163
asg51
(lp5164
(I23
I15
tp5165
a(I21
I15
tp5166
a(I22
I16
tp5167
a(I22
I14
tp5168
asg55
I0
sba(iNavigator_0_0663
NODE
p5169
(dp5170
g47
(lp5171
I0
aI0
aI0
aI0
asg49
(lp5172
(I23
I16
tp5173
a(I22
I17
tp5174
asg51
(lp5175
(I23
I16
tp5176
a(I21
I16
tp5177
a(I22
I17
tp5178
a(I22
I15
tp5179
asg55
I0
sba(iNavigator_0_0663
NODE
p5180
(dp5181
g47
(lp5182
I0
aI0
aI0
aI0
asg49
(lp5183
(I22
I16
tp5184
a(I21
I17
tp5185
asg51
(lp5186
(I23
I17
tp5187
a(I21
I17
tp5188
a(I22
I18
tp5189
a(I22
I16
tp5190
asg55
I0
sba(iNavigator_0_0663
NODE
p5191
(dp5192
g47
(lp5193
I0
aI0
aI0
aI0
asg49
(lp5194
sg51
(lp5195
(I23
I18
tp5196
a(I21
I18
tp5197
a(I22
I19
tp5198
a(I22
I17
tp5199
asg55
I0
sba(iNavigator_0_0663
NODE
p5200
(dp5201
g47
(lp5202
I0
aI0
aI0
aI0
asg49
(lp5203
sg51
(lp5204
(I23
I19
tp5205
a(I21
I19
tp5206
a(I22
I20
tp5207
a(I22
I18
tp5208
asg55
I0
sba(iNavigator_0_0663
NODE
p5209
(dp5210
g47
(lp5211
I0
aI0
aI0
aI0
asg49
(lp5212
sg51
(lp5213
(I23
I20
tp5214
a(I21
I20
tp5215
a(I22
I21
tp5216
a(I22
I19
tp5217
asg55
I0
sba(iNavigator_0_0663
NODE
p5218
(dp5219
g47
(lp5220
I0
aI0
aI0
aI0
asg49
(lp5221
sg51
(lp5222
(I23
I21
tp5223
a(I21
I21
tp5224
a(I22
I22
tp5225
a(I22
I20
tp5226
asg55
I0
sba(iNavigator_0_0663
NODE
p5227
(dp5228
g47
(lp5229
I0
aI0
aI0
aI0
asg49
(lp5230
sg51
(lp5231
(I23
I22
tp5232
a(I21
I22
tp5233
a(I22
I23
tp5234
a(I22
I21
tp5235
asg55
I0
sba(iNavigator_0_0663
NODE
p5236
(dp5237
g47
(lp5238
I0
aI0
aI0
aI0
asg49
(lp5239
sg51
(lp5240
(I23
I23
tp5241
a(I21
I23
tp5242
a(I22
I24
tp5243
a(I22
I22
tp5244
asg55
I0
sba(iNavigator_0_0663
NODE
p5245
(dp5246
g47
(lp5247
I0
aI0
aI0
aI0
asg49
(lp5248
sg51
(lp5249
(I23
I24
tp5250
a(I21
I24
tp5251
a(I22
I23
tp5252
asg55
I0
sbaa(lp5253
(iNavigator_0_0663
NODE
p5254
(dp5255
g47
(lp5256
I0
aI0
aI0
aI0
asg49
(lp5257
sg51
(lp5258
(I24
I0
tp5259
a(I22
I0
tp5260
a(I23
I1
tp5261
asg55
I0
sba(iNavigator_0_0663
NODE
p5262
(dp5263
g47
(lp5264
I0
aI0
aI0
aI0
asg49
(lp5265
sg51
(lp5266
(I24
I1
tp5267
a(I22
I1
tp5268
a(I23
I2
tp5269
a(I23
I0
tp5270
asg55
I0
sba(iNavigator_0_0663
NODE
p5271
(dp5272
g47
(lp5273
I0
aI0
aI0
aI0
asg49
(lp5274
sg51
(lp5275
(I24
I2
tp5276
a(I22
I2
tp5277
a(I23
I3
tp5278
a(I23
I1
tp5279
asg55
I0
sba(iNavigator_0_0663
NODE
p5280
(dp5281
g47
(lp5282
I0
aI0
aI0
aI0
asg49
(lp5283
sg51
(lp5284
(I24
I3
tp5285
a(I22
I3
tp5286
a(I23
I4
tp5287
a(I23
I2
tp5288
asg55
I0
sba(iNavigator_0_0663
NODE
p5289
(dp5290
g47
(lp5291
I0
aI0
aI0
aI0
asg49
(lp5292
sg51
(lp5293
(I24
I4
tp5294
a(I22
I4
tp5295
a(I23
I5
tp5296
a(I23
I3
tp5297
asg55
I0
sba(iNavigator_0_0663
NODE
p5298
(dp5299
g47
(lp5300
I0
aI0
aI0
aI0
asg49
(lp5301
sg51
(lp5302
(I24
I5
tp5303
a(I22
I5
tp5304
a(I23
I6
tp5305
a(I23
I4
tp5306
asg55
I0
sba(iNavigator_0_0663
NODE
p5307
(dp5308
g47
(lp5309
I0
aI0
aI0
aI0
asg49
(lp5310
sg51
(lp5311
(I24
I6
tp5312
a(I22
I6
tp5313
a(I23
I7
tp5314
a(I23
I5
tp5315
asg55
I0
sba(iNavigator_0_0663
NODE
p5316
(dp5317
g47
(lp5318
I0
aI0
aI0
aI0
asg49
(lp5319
sg51
(lp5320
(I24
I7
tp5321
a(I22
I7
tp5322
a(I23
I8
tp5323
a(I23
I6
tp5324
asg55
I0
sba(iNavigator_0_0663
NODE
p5325
(dp5326
g47
(lp5327
I0
aI0
aI0
aI0
asg49
(lp5328
sg51
(lp5329
(I24
I8
tp5330
a(I22
I8
tp5331
a(I23
I9
tp5332
a(I23
I7
tp5333
asg55
I0
sba(iNavigator_0_0663
NODE
p5334
(dp5335
g47
(lp5336
I0
aI0
aI0
aI0
asg49
(lp5337
sg51
(lp5338
(I24
I9
tp5339
a(I22
I9
tp5340
a(I23
I10
tp5341
a(I23
I8
tp5342
asg55
I0
sba(iNavigator_0_0663
NODE
p5343
(dp5344
g47
(lp5345
I0
aI0
aI0
aI0
asg49
(lp5346
sg51
(lp5347
(I24
I10
tp5348
a(I22
I10
tp5349
a(I23
I11
tp5350
a(I23
I9
tp5351
asg55
I0
sba(iNavigator_0_0663
NODE
p5352
(dp5353
g47
(lp5354
I0
aI0
aI0
aI0
asg49
(lp5355
sg51
(lp5356
(I24
I11
tp5357
a(I22
I11
tp5358
a(I23
I12
tp5359
a(I23
I10
tp5360
asg55
I0
sba(iNavigator_0_0663
NODE
p5361
(dp5362
g47
(lp5363
I0
aI0
aI0
aI0
asg49
(lp5364
sg51
(lp5365
(I24
I12
tp5366
a(I22
I12
tp5367
a(I23
I13
tp5368
a(I23
I11
tp5369
asg55
I0
sba(iNavigator_0_0663
NODE
p5370
(dp5371
g47
(lp5372
I0
aI0
aI0
aI0
asg49
(lp5373
sg51
(lp5374
(I24
I13
tp5375
a(I22
I13
tp5376
a(I23
I14
tp5377
a(I23
I12
tp5378
asg55
I0
sba(iNavigator_0_0663
NODE
p5379
(dp5380
g47
(lp5381
I0
aI0
aI0
aI0
asg49
(lp5382
sg51
(lp5383
(I24
I14
tp5384
a(I22
I14
tp5385
a(I23
I15
tp5386
a(I23
I13
tp5387
asg55
I0
sba(iNavigator_0_0663
NODE
p5388
(dp5389
g47
(lp5390
I0
aI0
aI0
aI0
asg49
(lp5391
(I22
I15
tp5392
a(I23
I16
tp5393
asg51
(lp5394
(I24
I15
tp5395
a(I22
I15
tp5396
a(I23
I16
tp5397
a(I23
I14
tp5398
asg55
I0
sba(iNavigator_0_0663
NODE
p5399
(dp5400
g47
(lp5401
I0
aI0
aI0
aI0
asg49
(lp5402
(I23
I15
tp5403
a(I22
I16
tp5404
asg51
(lp5405
(I24
I16
tp5406
a(I22
I16
tp5407
a(I23
I17
tp5408
a(I23
I15
tp5409
asg55
I0
sba(iNavigator_0_0663
NODE
p5410
(dp5411
g47
(lp5412
I0
aI0
aI0
aI0
asg49
(lp5413
sg51
(lp5414
(I24
I17
tp5415
a(I22
I17
tp5416
a(I23
I18
tp5417
a(I23
I16
tp5418
asg55
I0
sba(iNavigator_0_0663
NODE
p5419
(dp5420
g47
(lp5421
I0
aI0
aI0
aI0
asg49
(lp5422
sg51
(lp5423
(I24
I18
tp5424
a(I22
I18
tp5425
a(I23
I19
tp5426
a(I23
I17
tp5427
asg55
I0
sba(iNavigator_0_0663
NODE
p5428
(dp5429
g47
(lp5430
I0
aI0
aI0
aI0
asg49
(lp5431
sg51
(lp5432
(I24
I19
tp5433
a(I22
I19
tp5434
a(I23
I20
tp5435
a(I23
I18
tp5436
asg55
I0
sba(iNavigator_0_0663
NODE
p5437
(dp5438
g47
(lp5439
I0
aI0
aI0
aI0
asg49
(lp5440
sg51
(lp5441
(I24
I20
tp5442
a(I22
I20
tp5443
a(I23
I21
tp5444
a(I23
I19
tp5445
asg55
I0
sba(iNavigator_0_0663
NODE
p5446
(dp5447
g47
(lp5448
I0
aI0
aI0
aI0
asg49
(lp5449
sg51
(lp5450
(I24
I21
tp5451
a(I22
I21
tp5452
a(I23
I22
tp5453
a(I23
I20
tp5454
asg55
I0
sba(iNavigator_0_0663
NODE
p5455
(dp5456
g47
(lp5457
I0
aI0
aI0
aI0
asg49
(lp5458
sg51
(lp5459
(I24
I22
tp5460
a(I22
I22
tp5461
a(I23
I23
tp5462
a(I23
I21
tp5463
asg55
I0
sba(iNavigator_0_0663
NODE
p5464
(dp5465
g47
(lp5466
I0
aI0
aI0
aI0
asg49
(lp5467
sg51
(lp5468
(I24
I23
tp5469
a(I22
I23
tp5470
a(I23
I24
tp5471
a(I23
I22
tp5472
asg55
I0
sba(iNavigator_0_0663
NODE
p5473
(dp5474
g47
(lp5475
I0
aI0
aI0
aI0
asg49
(lp5476
sg51
(lp5477
(I24
I24
tp5478
a(I22
I24
tp5479
a(I23
I23
tp5480
asg55
I0
sbaa(lp5481
(iNavigator_0_0663
NODE
p5482
(dp5483
g47
(lp5484
I0
aI0
aI0
aI0
asg49
(lp5485
sg51
(lp5486
(I23
I0
tp5487
a(I24
I1
tp5488
asg55
I0
sba(iNavigator_0_0663
NODE
p5489
(dp5490
g47
(lp5491
I0
aI0
aI0
aI0
asg49
(lp5492
sg51
(lp5493
(I23
I1
tp5494
a(I24
I2
tp5495
a(I24
I0
tp5496
asg55
I0
sba(iNavigator_0_0663
NODE
p5497
(dp5498
g47
(lp5499
I0
aI0
aI0
aI0
asg49
(lp5500
sg51
(lp5501
(I23
I2
tp5502
a(I24
I3
tp5503
a(I24
I1
tp5504
asg55
I0
sba(iNavigator_0_0663
NODE
p5505
(dp5506
g47
(lp5507
I0
aI0
aI0
aI0
asg49
(lp5508
sg51
(lp5509
(I23
I3
tp5510
a(I24
I4
tp5511
a(I24
I2
tp5512
asg55
I0
sba(iNavigator_0_0663
NODE
p5513
(dp5514
g47
(lp5515
I0
aI0
aI0
aI0
asg49
(lp5516
sg51
(lp5517
(I23
I4
tp5518
a(I24
I5
tp5519
a(I24
I3
tp5520
asg55
I0
sba(iNavigator_0_0663
NODE
p5521
(dp5522
g47
(lp5523
I0
aI0
aI0
aI0
asg49
(lp5524
sg51
(lp5525
(I23
I5
tp5526
a(I24
I6
tp5527
a(I24
I4
tp5528
asg55
I0
sba(iNavigator_0_0663
NODE
p5529
(dp5530
g47
(lp5531
I0
aI0
aI0
aI0
asg49
(lp5532
sg51
(lp5533
(I23
I6
tp5534
a(I24
I7
tp5535
a(I24
I5
tp5536
asg55
I0
sba(iNavigator_0_0663
NODE
p5537
(dp5538
g47
(lp5539
I0
aI0
aI0
aI0
asg49
(lp5540
sg51
(lp5541
(I23
I7
tp5542
a(I24
I8
tp5543
a(I24
I6
tp5544
asg55
I0
sba(iNavigator_0_0663
NODE
p5545
(dp5546
g47
(lp5547
I0
aI0
aI0
aI0
asg49
(lp5548
sg51
(lp5549
(I23
I8
tp5550
a(I24
I9
tp5551
a(I24
I7
tp5552
asg55
I0
sba(iNavigator_0_0663
NODE
p5553
(dp5554
g47
(lp5555
I0
aI0
aI0
aI0
asg49
(lp5556
sg51
(lp5557
(I23
I9
tp5558
a(I24
I10
tp5559
a(I24
I8
tp5560
asg55
I0
sba(iNavigator_0_0663
NODE
p5561
(dp5562
g47
(lp5563
I0
aI0
aI0
aI0
asg49
(lp5564
sg51
(lp5565
(I23
I10
tp5566
a(I24
I11
tp5567
a(I24
I9
tp5568
asg55
I0
sba(iNavigator_0_0663
NODE
p5569
(dp5570
g47
(lp5571
I0
aI0
aI0
aI0
asg49
(lp5572
sg51
(lp5573
(I23
I11
tp5574
a(I24
I12
tp5575
a(I24
I10
tp5576
asg55
I0
sba(iNavigator_0_0663
NODE
p5577
(dp5578
g47
(lp5579
I0
aI0
aI0
aI0
asg49
(lp5580
sg51
(lp5581
(I23
I12
tp5582
a(I24
I13
tp5583
a(I24
I11
tp5584
asg55
I0
sba(iNavigator_0_0663
NODE
p5585
(dp5586
g47
(lp5587
I0
aI0
aI0
aI0
asg49
(lp5588
sg51
(lp5589
(I23
I13
tp5590
a(I24
I14
tp5591
a(I24
I12
tp5592
asg55
I0
sba(iNavigator_0_0663
NODE
p5593
(dp5594
g47
(lp5595
I0
aI0
aI0
aI0
asg49
(lp5596
sg51
(lp5597
(I23
I14
tp5598
a(I24
I15
tp5599
a(I24
I13
tp5600
asg55
I0
sba(iNavigator_0_0663
NODE
p5601
(dp5602
g47
(lp5603
I0
aI0
aI0
aI0
asg49
(lp5604
sg51
(lp5605
(I23
I15
tp5606
a(I24
I16
tp5607
a(I24
I14
tp5608
asg55
I0
sba(iNavigator_0_0663
NODE
p5609
(dp5610
g47
(lp5611
I0
aI0
aI0
aI0
asg49
(lp5612
sg51
(lp5613
(I23
I16
tp5614
a(I24
I17
tp5615
a(I24
I15
tp5616
asg55
I0
sba(iNavigator_0_0663
NODE
p5617
(dp5618
g47
(lp5619
I0
aI0
aI0
aI0
asg49
(lp5620
sg51
(lp5621
(I23
I17
tp5622
a(I24
I18
tp5623
a(I24
I16
tp5624
asg55
I0
sba(iNavigator_0_0663
NODE
p5625
(dp5626
g47
(lp5627
I0
aI0
aI0
aI0
asg49
(lp5628
sg51
(lp5629
(I23
I18
tp5630
a(I24
I19
tp5631
a(I24
I17
tp5632
asg55
I0
sba(iNavigator_0_0663
NODE
p5633
(dp5634
g47
(lp5635
I0
aI0
aI0
aI0
asg49
(lp5636
sg51
(lp5637
(I23
I19
tp5638
a(I24
I20
tp5639
a(I24
I18
tp5640
asg55
I0
sba(iNavigator_0_0663
NODE
p5641
(dp5642
g47
(lp5643
I0
aI0
aI0
aI0
asg49
(lp5644
sg51
(lp5645
(I23
I20
tp5646
a(I24
I21
tp5647
a(I24
I19
tp5648
asg55
I0
sba(iNavigator_0_0663
NODE
p5649
(dp5650
g47
(lp5651
I0
aI0
aI0
aI0
asg49
(lp5652
sg51
(lp5653
(I23
I21
tp5654
a(I24
I22
tp5655
a(I24
I20
tp5656
asg55
I0
sba(iNavigator_0_0663
NODE
p5657
(dp5658
g47
(lp5659
I0
aI0
aI0
aI0
asg49
(lp5660
sg51
(lp5661
(I23
I22
tp5662
a(I24
I23
tp5663
a(I24
I21
tp5664
asg55
I0
sba(iNavigator_0_0663
NODE
p5665
(dp5666
g47
(lp5667
I0
aI0
aI0
aI0
asg49
(lp5668
sg51
(lp5669
(I23
I23
tp5670
a(I24
I24
tp5671
a(I24
I22
tp5672
asg55
I0
sba(iNavigator_0_0663
NODE
p5673
(dp5674
g47
(lp5675
I0
aI0
aI0
aI0
asg49
(lp5676
sg51
(lp5677
(I23
I24
tp5678
a(I24
I23
tp5679
asg55
I0
sbaasS'x'
p5680
I25
sS'y'
p5681
I25
sS'PotentialList'
p5682
(lp5683
sS'Length'
p5684
I41
sb(lp5685
(lp5686
(lp5687
S'Chair'
p5688
aS'Objects/Chair42_vrc.wrl'
p5689
aS'None'
p5690
ag5690
aI1
aI-1
aI0
aS'blue'
p5691
aaF762.0
aF-4.0
aF602.0
aF225.0
aa(lp5692
(lp5693
S'Computer'
p5694
aS'Objects/computer.wrl'
p5695
ag5690
ag5690
aI1
aI-1
aI0
aS'magenta'
p5696
aaF882.0
aF-4.0
aF602.0
aF225.0
aa(lp5697
(lp5698
S'Coatrack'
p5699
aS'Objects/Coatrack_vrc.wrl'
p5700
ag5690
ag5690
aI1
aI-1
aI0
aS'yellow'
p5701
aaF922.0
aF-4.0
aF602.0
aF225.0
aa(lp5702
(lp5703
S'Bench'
p5704
aS'Objects/Sofa05_vrc.wrl'
p5705
ag5690
ag5690
aI1
aI-1
aI0
aS'brown'
p5706
aaF722.0
aF-4.0
aF642.0
aF225.0
aa(lp5707
g5687
aF802.0
aF-4.0
aF642.0
aF225.0
aa(lp5708
g5693
aF882.0
aF-4.0
aF642.0
aF225.0
aa(lp5709
(lp5710
S'New'
p5711
aS'C:/Experiments/Objects/new.wrl'
p5712
ag5690
ag5690
aI1
aI-1
aI0
aS'orange'
p5713
aaF922.0
aF-4.0
aF642.0
aF225.0
aa(lp5714
g5687
aF602.0
aF-4.0
aF682.0
aF225.0
aa(lp5715
(lp5716
S'Barstool'
p5717
aS'Objects/Barstool_vrc.wrl'
p5718
ag5690
ag5690
aI1
aI-1
aI0
aS'green'
p5719
aaF682.0
aF-4.0
aF682.0
aF225.0
aa(lp5720
g5710
aF722.0
aF-4.0
aF682.0
aF225.0
aa(lp5721
(lp5722
S'Easel'
p5723
aS'Objects/Easel_vrc.wrl'
p5724
ag5690
ag5690
aI1
aI-1
aI0
aS'cyan'
p5725
aaF802.0
aF-4.0
aF682.0
aF225.0
aa(lp5726
g5698
aF602.0
aF-4.0
aF722.0
aF225.0
aa(lp5727
g5687
aF682.0
aF-4.0
aF722.0
aF225.0
aa(lp5728
g5698
aF722.0
aF-4.0
aF722.0
aF225.0
aa(lp5729
g5693
aF562.0
aF-4.0
aF762.0
aF225.0
aa(lp5730
g5710
aF602.0
aF-4.0
aF762.0
aF225.0
aa(lp5731
g5722
aF682.0
aF-4.0
aF762.0
aF225.0
aa(lp5732
g5687
aF722.0
aF-4.0
aF762.0
aF225.0
aa(lp5733
g5722
aF562.0
aF-4.0
aF802.0
aF225.0
aa(lp5734
g5716
aF602.0
aF-4.0
aF802.0
aF225.0
aa(lp5735
g5716
ag5687
ag5698
ag5693
ag5722
ag5710
a(lp5736
S'Sofa'
p5737
aS'Objects/Sofa02_vrc.wrl'
p5738
ag5690
ag5690
aI1
aI-1
aI0
aS'purple'
p5739
aag5703
a(lp5740
S'Swing'
p5741
aS'Objects/swing.wrl'
p5742
ag5690
ag5690
aI1
aI-1
aI0
aS'pink'
p5743
aa(lp5744
(g5716
I5
tp5745
a(g5687
I5
tp5746
a(g5698
I5
tp5747
a(g5693
I5
tp5748
a(g5722
I5
tp5749
a(g5710
I5
tp5750
a(g5736
I5
tp5751
a(g5703
I5
tp5752
a(g5740
I5
tp5753
a(lp5754
(lp5755
F2.0
aF-4.0
aF2.0
aF225.0
aa(lp5756
(lp5757
(lp5758
(I1
(lp5759
F760.0
aF-640.0
aS'None'
p5760
S'None'
p5761
tp5762
a(I2
(lp5763
F920.0
aF-640.0
aS'None'
p5764
S'None'
p5765
tp5766
a(I3
(lp5767
F640.0
aF-720.0
aS'None'
p5768
S'None'
p5769
tp5770
a(I4
(lp5771
F600.0
aF-800.0
aS'None'
p5772
S'None'
p5773
tp5774
a(I5
(lp5775
F840.0
aF-680.0
aS'None'
p5776
S'None'
p5777
tp5778
a(I6
(lp5779
F720.0
aF-760.0
aS'None'
p5780
S'None'
p5781
tp5782
a(I7
(lp5783
F680.0
aF-680.0
aS'None'
p5784
S'None'
p5785
tp5786
atp5787
.