((iNavigator_0_0663
PLAT
p0
(dp1
S'ChosenList'
p2
(lp3
(I11
I11
tp4
a(I10
I11
tp5
a(I12
I11
tp6
a(I11
I10
tp7
a(I12
I12
tp8
a(I9
I11
tp9
a(I11
I12
tp10
a(I12
I13
tp11
a(I13
I13
tp12
a(I14
I13
tp13
a(I9
I10
tp14
a(I10
I10
tp15
a(I11
I13
tp16
a(I13
I12
tp17
a(I8
I11
tp18
a(I8
I10
tp19
a(I10
I9
tp20
a(I13
I11
tp21
asS'Length'
p22
I20
sS'PotentialList'
p23
(lp24
(I10
I12
tp25
a(I13
I11
tp26
a(I12
I10
tp27
a(I12
I10
tp28
a(I11
I9
tp29
a(I9
I12
tp30
a(I10
I12
tp31
ag16
a(I12
I14
tp32
a(I13
I14
tp33
a(I15
I13
tp34
a(I14
I14
tp35
a(I14
I12
tp36
a(I10
I10
tp37
ag19
a(I9
I9
tp38
a(I9
I10
tp39
a(I10
I13
tp40
a(I11
I14
tp41
a(I11
I12
tp42
a(I14
I12
tp43
a(I7
I11
tp44
a(I8
I12
tp45
a(I9
I10
tp46
a(I7
I10
tp47
a(I8
I9
tp48
a(I11
I9
tp49
a(I9
I9
tp50
a(I10
I8
tp51
a(I14
I11
tp52
a(I12
I11
tp53
a(I13
I10
tp54
asS'y'
p55
I25
sS'x'
p56
I25
sS'Nodes'
p57
(lp58
(lp59
(iNavigator_0_0663
NODE
p60
(dp61
S'Active'
p62
I0
sS'ProspectList'
p63
(lp64
(I1
I0
tp65
a(I0
I1
tp66
asS'Linked'
p67
(lp68
sS'View'
p69
(lp70
I0
aI0
aI0
aI0
asba(iNavigator_0_0663
NODE
p71
(dp72
g62
I0
sg63
(lp73
(I1
I1
tp74
a(I0
I2
tp75
a(I0
I0
tp76
asg67
(lp77
sg69
(lp78
I0
aI0
aI0
aI0
asba(iNavigator_0_0663
NODE
p79
(dp80
g62
I0
sg63
(lp81
(I1
I2
tp82
a(I0
I3
tp83
a(I0
I1
tp84
asg67
(lp85
sg69
(lp86
I0
aI0
aI0
aI0
asba(iNavigator_0_0663
NODE
p87
(dp88
g62
I0
sg63
(lp89
(I1
I3
tp90
a(I0
I4
tp91
a(I0
I2
tp92
asg67
(lp93
sg69
(lp94
I0
aI0
aI0
aI0
asba(iNavigator_0_0663
NODE
p95
(dp96
g62
I0
sg63
(lp97
(I1
I4
tp98
a(I0
I5
tp99
a(I0
I3
tp100
asg67
(lp101
sg69
(lp102
I0
aI0
aI0
aI0
asba(iNavigator_0_0663
NODE
p103
(dp104
g62
I0
sg63
(lp105
(I1
I5
tp106
a(I0
I6
tp107
a(I0
I4
tp108
asg67
(lp109
sg69
(lp110
I0
aI0
aI0
aI0
asba(iNavigator_0_0663
NODE
p111
(dp112
g62
I0
sg63
(lp113
(I1
I6
tp114
a(I0
I7
tp115
a(I0
I5
tp116
asg67
(lp117
sg69
(lp118
I0
aI0
aI0
aI0
asba(iNavigator_0_0663
NODE
p119
(dp120
g62
I0
sg63
(lp121
(I1
I7
tp122
a(I0
I8
tp123
a(I0
I6
tp124
asg67
(lp125
sg69
(lp126
I0
aI0
aI0
aI0
asba(iNavigator_0_0663
NODE
p127
(dp128
g62
I0
sg63
(lp129
(I1
I8
tp130
a(I0
I9
tp131
a(I0
I7
tp132
asg67
(lp133
sg69
(lp134
I0
aI0
aI0
aI0
asba(iNavigator_0_0663
NODE
p135
(dp136
g62
I0
sg63
(lp137
(I1
I9
tp138
a(I0
I10
tp139
a(I0
I8
tp140
asg67
(lp141
sg69
(lp142
I0
aI0
aI0
aI0
asba(iNavigator_0_0663
NODE
p143
(dp144
g62
I0
sg63
(lp145
(I1
I10
tp146
a(I0
I11
tp147
a(I0
I9
tp148
asg67
(lp149
sg69
(lp150
I0
aI0
aI0
aI0
asba(iNavigator_0_0663
NODE
p151
(dp152
g62
I0
sg63
(lp153
(I1
I11
tp154
a(I0
I12
tp155
a(I0
I10
tp156
asg67
(lp157
sg69
(lp158
I0
aI0
aI0
aI0
asba(iNavigator_0_0663
NODE
p159
(dp160
g62
I0
sg63
(lp161
(I1
I12
tp162
a(I0
I13
tp163
a(I0
I11
tp164
asg67
(lp165
sg69
(lp166
I0
aI0
aI0
aI0
asba(iNavigator_0_0663
NODE
p167
(dp168
g62
I0
sg63
(lp169
(I1
I13
tp170
a(I0
I14
tp171
a(I0
I12
tp172
asg67
(lp173
sg69
(lp174
I0
aI0
aI0
aI0
asba(iNavigator_0_0663
NODE
p175
(dp176
g62
I0
sg63
(lp177
(I1
I14
tp178
a(I0
I15
tp179
a(I0
I13
tp180
asg67
(lp181
sg69
(lp182
I0
aI0
aI0
aI0
asba(iNavigator_0_0663
NODE
p183
(dp184
g62
I0
sg63
(lp185
(I1
I15
tp186
a(I0
I16
tp187
a(I0
I14
tp188
asg67
(lp189
sg69
(lp190
I0
aI0
aI0
aI0
asba(iNavigator_0_0663
NODE
p191
(dp192
g62
I0
sg63
(lp193
(I1
I16
tp194
a(I0
I17
tp195
a(I0
I15
tp196
asg67
(lp197
sg69
(lp198
I0
aI0
aI0
aI0
asba(iNavigator_0_0663
NODE
p199
(dp200
g62
I0
sg63
(lp201
(I1
I17
tp202
a(I0
I18
tp203
a(I0
I16
tp204
asg67
(lp205
sg69
(lp206
I0
aI0
aI0
aI0
asba(iNavigator_0_0663
NODE
p207
(dp208
g62
I0
sg63
(lp209
(I1
I18
tp210
a(I0
I19
tp211
a(I0
I17
tp212
asg67
(lp213
sg69
(lp214
I0
aI0
aI0
aI0
asba(iNavigator_0_0663
NODE
p215
(dp216
g62
I0
sg63
(lp217
(I1
I19
tp218
a(I0
I20
tp219
a(I0
I18
tp220
asg67
(lp221
sg69
(lp222
I0
aI0
aI0
aI0
asba(iNavigator_0_0663
NODE
p223
(dp224
g62
I0
sg63
(lp225
(I1
I20
tp226
a(I0
I21
tp227
a(I0
I19
tp228
asg67
(lp229
sg69
(lp230
I0
aI0
aI0
aI0
asba(iNavigator_0_0663
NODE
p231
(dp232
g62
I0
sg63
(lp233
(I1
I21
tp234
a(I0
I22
tp235
a(I0
I20
tp236
asg67
(lp237
sg69
(lp238
I0
aI0
aI0
aI0
asba(iNavigator_0_0663
NODE
p239
(dp240
g62
I0
sg63
(lp241
(I1
I22
tp242
a(I0
I23
tp243
a(I0
I21
tp244
asg67
(lp245
sg69
(lp246
I0
aI0
aI0
aI0
asba(iNavigator_0_0663
NODE
p247
(dp248
g62
I0
sg63
(lp249
(I1
I23
tp250
a(I0
I24
tp251
a(I0
I22
tp252
asg67
(lp253
sg69
(lp254
I0
aI0
aI0
aI0
asba(iNavigator_0_0663
NODE
p255
(dp256
g62
I0
sg63
(lp257
(I1
I24
tp258
a(I0
I23
tp259
asg67
(lp260
sg69
(lp261
I0
aI0
aI0
aI0
asbaa(lp262
(iNavigator_0_0663
NODE
p263
(dp264
g62
I0
sg63
(lp265
(I2
I0
tp266
a(I0
I0
tp267
a(I1
I1
tp268
asg67
(lp269
sg69
(lp270
I0
aI0
aI0
aI0
asba(iNavigator_0_0663
NODE
p271
(dp272
g62
I0
sg63
(lp273
(I2
I1
tp274
a(I0
I1
tp275
a(I1
I2
tp276
a(I1
I0
tp277
asg67
(lp278
sg69
(lp279
I0
aI0
aI0
aI0
asba(iNavigator_0_0663
NODE
p280
(dp281
g62
I0
sg63
(lp282
(I2
I2
tp283
a(I0
I2
tp284
a(I1
I3
tp285
a(I1
I1
tp286
asg67
(lp287
sg69
(lp288
I0
aI0
aI0
aI0
asba(iNavigator_0_0663
NODE
p289
(dp290
g62
I0
sg63
(lp291
(I2
I3
tp292
a(I0
I3
tp293
a(I1
I4
tp294
a(I1
I2
tp295
asg67
(lp296
sg69
(lp297
I0
aI0
aI0
aI0
asba(iNavigator_0_0663
NODE
p298
(dp299
g62
I0
sg63
(lp300
(I2
I4
tp301
a(I0
I4
tp302
a(I1
I5
tp303
a(I1
I3
tp304
asg67
(lp305
sg69
(lp306
I0
aI0
aI0
aI0
asba(iNavigator_0_0663
NODE
p307
(dp308
g62
I0
sg63
(lp309
(I2
I5
tp310
a(I0
I5
tp311
a(I1
I6
tp312
a(I1
I4
tp313
asg67
(lp314
sg69
(lp315
I0
aI0
aI0
aI0
asba(iNavigator_0_0663
NODE
p316
(dp317
g62
I0
sg63
(lp318
(I2
I6
tp319
a(I0
I6
tp320
a(I1
I7
tp321
a(I1
I5
tp322
asg67
(lp323
sg69
(lp324
I0
aI0
aI0
aI0
asba(iNavigator_0_0663
NODE
p325
(dp326
g62
I0
sg63
(lp327
(I2
I7
tp328
a(I0
I7
tp329
a(I1
I8
tp330
a(I1
I6
tp331
asg67
(lp332
sg69
(lp333
I0
aI0
aI0
aI0
asba(iNavigator_0_0663
NODE
p334
(dp335
g62
I0
sg63
(lp336
(I2
I8
tp337
a(I0
I8
tp338
a(I1
I9
tp339
a(I1
I7
tp340
asg67
(lp341
sg69
(lp342
I0
aI0
aI0
aI0
asba(iNavigator_0_0663
NODE
p343
(dp344
g62
I0
sg63
(lp345
(I2
I9
tp346
a(I0
I9
tp347
a(I1
I10
tp348
a(I1
I8
tp349
asg67
(lp350
sg69
(lp351
I0
aI0
aI0
aI0
asba(iNavigator_0_0663
NODE
p352
(dp353
g62
I0
sg63
(lp354
(I2
I10
tp355
a(I0
I10
tp356
a(I1
I11
tp357
a(I1
I9
tp358
asg67
(lp359
sg69
(lp360
I0
aI0
aI0
aI0
asba(iNavigator_0_0663
NODE
p361
(dp362
g62
I0
sg63
(lp363
(I2
I11
tp364
a(I0
I11
tp365
a(I1
I12
tp366
a(I1
I10
tp367
asg67
(lp368
sg69
(lp369
I0
aI0
aI0
aI0
asba(iNavigator_0_0663
NODE
p370
(dp371
g62
I0
sg63
(lp372
(I2
I12
tp373
a(I0
I12
tp374
a(I1
I13
tp375
a(I1
I11
tp376
asg67
(lp377
sg69
(lp378
I0
aI0
aI0
aI0
asba(iNavigator_0_0663
NODE
p379
(dp380
g62
I0
sg63
(lp381
(I2
I13
tp382
a(I0
I13
tp383
a(I1
I14
tp384
a(I1
I12
tp385
asg67
(lp386
sg69
(lp387
I0
aI0
aI0
aI0
asba(iNavigator_0_0663
NODE
p388
(dp389
g62
I0
sg63
(lp390
(I2
I14
tp391
a(I0
I14
tp392
a(I1
I15
tp393
a(I1
I13
tp394
asg67
(lp395
sg69
(lp396
I0
aI0
aI0
aI0
asba(iNavigator_0_0663
NODE
p397
(dp398
g62
I0
sg63
(lp399
(I2
I15
tp400
a(I0
I15
tp401
a(I1
I16
tp402
a(I1
I14
tp403
asg67
(lp404
sg69
(lp405
I0
aI0
aI0
aI0
asba(iNavigator_0_0663
NODE
p406
(dp407
g62
I0
sg63
(lp408
(I2
I16
tp409
a(I0
I16
tp410
a(I1
I17
tp411
a(I1
I15
tp412
asg67
(lp413
sg69
(lp414
I0
aI0
aI0
aI0
asba(iNavigator_0_0663
NODE
p415
(dp416
g62
I0
sg63
(lp417
(I2
I17
tp418
a(I0
I17
tp419
a(I1
I18
tp420
a(I1
I16
tp421
asg67
(lp422
sg69
(lp423
I0
aI0
aI0
aI0
asba(iNavigator_0_0663
NODE
p424
(dp425
g62
I0
sg63
(lp426
(I2
I18
tp427
a(I0
I18
tp428
a(I1
I19
tp429
a(I1
I17
tp430
asg67
(lp431
sg69
(lp432
I0
aI0
aI0
aI0
asba(iNavigator_0_0663
NODE
p433
(dp434
g62
I0
sg63
(lp435
(I2
I19
tp436
a(I0
I19
tp437
a(I1
I20
tp438
a(I1
I18
tp439
asg67
(lp440
sg69
(lp441
I0
aI0
aI0
aI0
asba(iNavigator_0_0663
NODE
p442
(dp443
g62
I0
sg63
(lp444
(I2
I20
tp445
a(I0
I20
tp446
a(I1
I21
tp447
a(I1
I19
tp448
asg67
(lp449
sg69
(lp450
I0
aI0
aI0
aI0
asba(iNavigator_0_0663
NODE
p451
(dp452
g62
I0
sg63
(lp453
(I2
I21
tp454
a(I0
I21
tp455
a(I1
I22
tp456
a(I1
I20
tp457
asg67
(lp458
sg69
(lp459
I0
aI0
aI0
aI0
asba(iNavigator_0_0663
NODE
p460
(dp461
g62
I0
sg63
(lp462
(I2
I22
tp463
a(I0
I22
tp464
a(I1
I23
tp465
a(I1
I21
tp466
asg67
(lp467
sg69
(lp468
I0
aI0
aI0
aI0
asba(iNavigator_0_0663
NODE
p469
(dp470
g62
I0
sg63
(lp471
(I2
I23
tp472
a(I0
I23
tp473
a(I1
I24
tp474
a(I1
I22
tp475
asg67
(lp476
sg69
(lp477
I0
aI0
aI0
aI0
asba(iNavigator_0_0663
NODE
p478
(dp479
g62
I0
sg63
(lp480
(I2
I24
tp481
a(I0
I24
tp482
a(I1
I23
tp483
asg67
(lp484
sg69
(lp485
I0
aI0
aI0
aI0
asbaa(lp486
(iNavigator_0_0663
NODE
p487
(dp488
g62
I0
sg63
(lp489
(I3
I0
tp490
a(I1
I0
tp491
a(I2
I1
tp492
asg67
(lp493
sg69
(lp494
I0
aI0
aI0
aI0
asba(iNavigator_0_0663
NODE
p495
(dp496
g62
I0
sg63
(lp497
(I3
I1
tp498
a(I1
I1
tp499
a(I2
I2
tp500
a(I2
I0
tp501
asg67
(lp502
sg69
(lp503
I0
aI0
aI0
aI0
asba(iNavigator_0_0663
NODE
p504
(dp505
g62
I0
sg63
(lp506
(I3
I2
tp507
a(I1
I2
tp508
a(I2
I3
tp509
a(I2
I1
tp510
asg67
(lp511
sg69
(lp512
I0
aI0
aI0
aI0
asba(iNavigator_0_0663
NODE
p513
(dp514
g62
I0
sg63
(lp515
(I3
I3
tp516
a(I1
I3
tp517
a(I2
I4
tp518
a(I2
I2
tp519
asg67
(lp520
sg69
(lp521
I0
aI0
aI0
aI0
asba(iNavigator_0_0663
NODE
p522
(dp523
g62
I0
sg63
(lp524
(I3
I4
tp525
a(I1
I4
tp526
a(I2
I5
tp527
a(I2
I3
tp528
asg67
(lp529
sg69
(lp530
I0
aI0
aI0
aI0
asba(iNavigator_0_0663
NODE
p531
(dp532
g62
I0
sg63
(lp533
(I3
I5
tp534
a(I1
I5
tp535
a(I2
I6
tp536
a(I2
I4
tp537
asg67
(lp538
sg69
(lp539
I0
aI0
aI0
aI0
asba(iNavigator_0_0663
NODE
p540
(dp541
g62
I0
sg63
(lp542
(I3
I6
tp543
a(I1
I6
tp544
a(I2
I7
tp545
a(I2
I5
tp546
asg67
(lp547
sg69
(lp548
I0
aI0
aI0
aI0
asba(iNavigator_0_0663
NODE
p549
(dp550
g62
I0
sg63
(lp551
(I3
I7
tp552
a(I1
I7
tp553
a(I2
I8
tp554
a(I2
I6
tp555
asg67
(lp556
sg69
(lp557
I0
aI0
aI0
aI0
asba(iNavigator_0_0663
NODE
p558
(dp559
g62
I0
sg63
(lp560
(I3
I8
tp561
a(I1
I8
tp562
a(I2
I9
tp563
a(I2
I7
tp564
asg67
(lp565
sg69
(lp566
I0
aI0
aI0
aI0
asba(iNavigator_0_0663
NODE
p567
(dp568
g62
I0
sg63
(lp569
(I3
I9
tp570
a(I1
I9
tp571
a(I2
I10
tp572
a(I2
I8
tp573
asg67
(lp574
sg69
(lp575
I0
aI0
aI0
aI0
asba(iNavigator_0_0663
NODE
p576
(dp577
g62
I0
sg63
(lp578
(I3
I10
tp579
a(I1
I10
tp580
a(I2
I11
tp581
a(I2
I9
tp582
asg67
(lp583
sg69
(lp584
I0
aI0
aI0
aI0
asba(iNavigator_0_0663
NODE
p585
(dp586
g62
I0
sg63
(lp587
(I3
I11
tp588
a(I1
I11
tp589
a(I2
I12
tp590
a(I2
I10
tp591
asg67
(lp592
sg69
(lp593
I0
aI0
aI0
aI0
asba(iNavigator_0_0663
NODE
p594
(dp595
g62
I0
sg63
(lp596
(I3
I12
tp597
a(I1
I12
tp598
a(I2
I13
tp599
a(I2
I11
tp600
asg67
(lp601
sg69
(lp602
I0
aI0
aI0
aI0
asba(iNavigator_0_0663
NODE
p603
(dp604
g62
I0
sg63
(lp605
(I3
I13
tp606
a(I1
I13
tp607
a(I2
I14
tp608
a(I2
I12
tp609
asg67
(lp610
sg69
(lp611
I0
aI0
aI0
aI0
asba(iNavigator_0_0663
NODE
p612
(dp613
g62
I0
sg63
(lp614
(I3
I14
tp615
a(I1
I14
tp616
a(I2
I15
tp617
a(I2
I13
tp618
asg67
(lp619
sg69
(lp620
I0
aI0
aI0
aI0
asba(iNavigator_0_0663
NODE
p621
(dp622
g62
I0
sg63
(lp623
(I3
I15
tp624
a(I1
I15
tp625
a(I2
I16
tp626
a(I2
I14
tp627
asg67
(lp628
sg69
(lp629
I0
aI0
aI0
aI0
asba(iNavigator_0_0663
NODE
p630
(dp631
g62
I0
sg63
(lp632
(I3
I16
tp633
a(I1
I16
tp634
a(I2
I17
tp635
a(I2
I15
tp636
asg67
(lp637
sg69
(lp638
I0
aI0
aI0
aI0
asba(iNavigator_0_0663
NODE
p639
(dp640
g62
I0
sg63
(lp641
(I3
I17
tp642
a(I1
I17
tp643
a(I2
I18
tp644
a(I2
I16
tp645
asg67
(lp646
sg69
(lp647
I0
aI0
aI0
aI0
asba(iNavigator_0_0663
NODE
p648
(dp649
g62
I0
sg63
(lp650
(I3
I18
tp651
a(I1
I18
tp652
a(I2
I19
tp653
a(I2
I17
tp654
asg67
(lp655
sg69
(lp656
I0
aI0
aI0
aI0
asba(iNavigator_0_0663
NODE
p657
(dp658
g62
I0
sg63
(lp659
(I3
I19
tp660
a(I1
I19
tp661
a(I2
I20
tp662
a(I2
I18
tp663
asg67
(lp664
sg69
(lp665
I0
aI0
aI0
aI0
asba(iNavigator_0_0663
NODE
p666
(dp667
g62
I0
sg63
(lp668
(I3
I20
tp669
a(I1
I20
tp670
a(I2
I21
tp671
a(I2
I19
tp672
asg67
(lp673
sg69
(lp674
I0
aI0
aI0
aI0
asba(iNavigator_0_0663
NODE
p675
(dp676
g62
I0
sg63
(lp677
(I3
I21
tp678
a(I1
I21
tp679
a(I2
I22
tp680
a(I2
I20
tp681
asg67
(lp682
sg69
(lp683
I0
aI0
aI0
aI0
asba(iNavigator_0_0663
NODE
p684
(dp685
g62
I0
sg63
(lp686
(I3
I22
tp687
a(I1
I22
tp688
a(I2
I23
tp689
a(I2
I21
tp690
asg67
(lp691
sg69
(lp692
I0
aI0
aI0
aI0
asba(iNavigator_0_0663
NODE
p693
(dp694
g62
I0
sg63
(lp695
(I3
I23
tp696
a(I1
I23
tp697
a(I2
I24
tp698
a(I2
I22
tp699
asg67
(lp700
sg69
(lp701
I0
aI0
aI0
aI0
asba(iNavigator_0_0663
NODE
p702
(dp703
g62
I0
sg63
(lp704
(I3
I24
tp705
a(I1
I24
tp706
a(I2
I23
tp707
asg67
(lp708
sg69
(lp709
I0
aI0
aI0
aI0
asbaa(lp710
(iNavigator_0_0663
NODE
p711
(dp712
g62
I0
sg63
(lp713
(I4
I0
tp714
a(I2
I0
tp715
a(I3
I1
tp716
asg67
(lp717
sg69
(lp718
I0
aI0
aI0
aI0
asba(iNavigator_0_0663
NODE
p719
(dp720
g62
I0
sg63
(lp721
(I4
I1
tp722
a(I2
I1
tp723
a(I3
I2
tp724
a(I3
I0
tp725
asg67
(lp726
sg69
(lp727
I0
aI0
aI0
aI0
asba(iNavigator_0_0663
NODE
p728
(dp729
g62
I0
sg63
(lp730
(I4
I2
tp731
a(I2
I2
tp732
a(I3
I3
tp733
a(I3
I1
tp734
asg67
(lp735
sg69
(lp736
I0
aI0
aI0
aI0
asba(iNavigator_0_0663
NODE
p737
(dp738
g62
I0
sg63
(lp739
(I4
I3
tp740
a(I2
I3
tp741
a(I3
I4
tp742
a(I3
I2
tp743
asg67
(lp744
sg69
(lp745
I0
aI0
aI0
aI0
asba(iNavigator_0_0663
NODE
p746
(dp747
g62
I0
sg63
(lp748
(I4
I4
tp749
a(I2
I4
tp750
a(I3
I5
tp751
a(I3
I3
tp752
asg67
(lp753
sg69
(lp754
I0
aI0
aI0
aI0
asba(iNavigator_0_0663
NODE
p755
(dp756
g62
I0
sg63
(lp757
(I4
I5
tp758
a(I2
I5
tp759
a(I3
I6
tp760
a(I3
I4
tp761
asg67
(lp762
sg69
(lp763
I0
aI0
aI0
aI0
asba(iNavigator_0_0663
NODE
p764
(dp765
g62
I0
sg63
(lp766
(I4
I6
tp767
a(I2
I6
tp768
a(I3
I7
tp769
a(I3
I5
tp770
asg67
(lp771
sg69
(lp772
I0
aI0
aI0
aI0
asba(iNavigator_0_0663
NODE
p773
(dp774
g62
I0
sg63
(lp775
(I4
I7
tp776
a(I2
I7
tp777
a(I3
I8
tp778
a(I3
I6
tp779
asg67
(lp780
sg69
(lp781
I0
aI0
aI0
aI0
asba(iNavigator_0_0663
NODE
p782
(dp783
g62
I0
sg63
(lp784
(I4
I8
tp785
a(I2
I8
tp786
a(I3
I9
tp787
a(I3
I7
tp788
asg67
(lp789
sg69
(lp790
I0
aI0
aI0
aI0
asba(iNavigator_0_0663
NODE
p791
(dp792
g62
I0
sg63
(lp793
(I4
I9
tp794
a(I2
I9
tp795
a(I3
I10
tp796
a(I3
I8
tp797
asg67
(lp798
sg69
(lp799
I0
aI0
aI0
aI0
asba(iNavigator_0_0663
NODE
p800
(dp801
g62
I0
sg63
(lp802
(I4
I10
tp803
a(I2
I10
tp804
a(I3
I11
tp805
a(I3
I9
tp806
asg67
(lp807
sg69
(lp808
I0
aI0
aI0
aI0
asba(iNavigator_0_0663
NODE
p809
(dp810
g62
I0
sg63
(lp811
(I4
I11
tp812
a(I2
I11
tp813
a(I3
I12
tp814
a(I3
I10
tp815
asg67
(lp816
sg69
(lp817
I0
aI0
aI0
aI0
asba(iNavigator_0_0663
NODE
p818
(dp819
g62
I0
sg63
(lp820
(I4
I12
tp821
a(I2
I12
tp822
a(I3
I13
tp823
a(I3
I11
tp824
asg67
(lp825
sg69
(lp826
I0
aI0
aI0
aI0
asba(iNavigator_0_0663
NODE
p827
(dp828
g62
I0
sg63
(lp829
(I4
I13
tp830
a(I2
I13
tp831
a(I3
I14
tp832
a(I3
I12
tp833
asg67
(lp834
sg69
(lp835
I0
aI0
aI0
aI0
asba(iNavigator_0_0663
NODE
p836
(dp837
g62
I0
sg63
(lp838
(I4
I14
tp839
a(I2
I14
tp840
a(I3
I15
tp841
a(I3
I13
tp842
asg67
(lp843
sg69
(lp844
I0
aI0
aI0
aI0
asba(iNavigator_0_0663
NODE
p845
(dp846
g62
I0
sg63
(lp847
(I4
I15
tp848
a(I2
I15
tp849
a(I3
I16
tp850
a(I3
I14
tp851
asg67
(lp852
sg69
(lp853
I0
aI0
aI0
aI0
asba(iNavigator_0_0663
NODE
p854
(dp855
g62
I0
sg63
(lp856
(I4
I16
tp857
a(I2
I16
tp858
a(I3
I17
tp859
a(I3
I15
tp860
asg67
(lp861
sg69
(lp862
I0
aI0
aI0
aI0
asba(iNavigator_0_0663
NODE
p863
(dp864
g62
I0
sg63
(lp865
(I4
I17
tp866
a(I2
I17
tp867
a(I3
I18
tp868
a(I3
I16
tp869
asg67
(lp870
sg69
(lp871
I0
aI0
aI0
aI0
asba(iNavigator_0_0663
NODE
p872
(dp873
g62
I0
sg63
(lp874
(I4
I18
tp875
a(I2
I18
tp876
a(I3
I19
tp877
a(I3
I17
tp878
asg67
(lp879
sg69
(lp880
I0
aI0
aI0
aI0
asba(iNavigator_0_0663
NODE
p881
(dp882
g62
I0
sg63
(lp883
(I4
I19
tp884
a(I2
I19
tp885
a(I3
I20
tp886
a(I3
I18
tp887
asg67
(lp888
sg69
(lp889
I0
aI0
aI0
aI0
asba(iNavigator_0_0663
NODE
p890
(dp891
g62
I0
sg63
(lp892
(I4
I20
tp893
a(I2
I20
tp894
a(I3
I21
tp895
a(I3
I19
tp896
asg67
(lp897
sg69
(lp898
I0
aI0
aI0
aI0
asba(iNavigator_0_0663
NODE
p899
(dp900
g62
I0
sg63
(lp901
(I4
I21
tp902
a(I2
I21
tp903
a(I3
I22
tp904
a(I3
I20
tp905
asg67
(lp906
sg69
(lp907
I0
aI0
aI0
aI0
asba(iNavigator_0_0663
NODE
p908
(dp909
g62
I0
sg63
(lp910
(I4
I22
tp911
a(I2
I22
tp912
a(I3
I23
tp913
a(I3
I21
tp914
asg67
(lp915
sg69
(lp916
I0
aI0
aI0
aI0
asba(iNavigator_0_0663
NODE
p917
(dp918
g62
I0
sg63
(lp919
(I4
I23
tp920
a(I2
I23
tp921
a(I3
I24
tp922
a(I3
I22
tp923
asg67
(lp924
sg69
(lp925
I0
aI0
aI0
aI0
asba(iNavigator_0_0663
NODE
p926
(dp927
g62
I0
sg63
(lp928
(I4
I24
tp929
a(I2
I24
tp930
a(I3
I23
tp931
asg67
(lp932
sg69
(lp933
I0
aI0
aI0
aI0
asbaa(lp934
(iNavigator_0_0663
NODE
p935
(dp936
g62
I0
sg63
(lp937
(I5
I0
tp938
a(I3
I0
tp939
a(I4
I1
tp940
asg67
(lp941
sg69
(lp942
I0
aI0
aI0
aI0
asba(iNavigator_0_0663
NODE
p943
(dp944
g62
I0
sg63
(lp945
(I5
I1
tp946
a(I3
I1
tp947
a(I4
I2
tp948
a(I4
I0
tp949
asg67
(lp950
sg69
(lp951
I0
aI0
aI0
aI0
asba(iNavigator_0_0663
NODE
p952
(dp953
g62
I0
sg63
(lp954
(I5
I2
tp955
a(I3
I2
tp956
a(I4
I3
tp957
a(I4
I1
tp958
asg67
(lp959
sg69
(lp960
I0
aI0
aI0
aI0
asba(iNavigator_0_0663
NODE
p961
(dp962
g62
I0
sg63
(lp963
(I5
I3
tp964
a(I3
I3
tp965
a(I4
I4
tp966
a(I4
I2
tp967
asg67
(lp968
sg69
(lp969
I0
aI0
aI0
aI0
asba(iNavigator_0_0663
NODE
p970
(dp971
g62
I0
sg63
(lp972
(I5
I4
tp973
a(I3
I4
tp974
a(I4
I5
tp975
a(I4
I3
tp976
asg67
(lp977
sg69
(lp978
I0
aI0
aI0
aI0
asba(iNavigator_0_0663
NODE
p979
(dp980
g62
I0
sg63
(lp981
(I5
I5
tp982
a(I3
I5
tp983
a(I4
I6
tp984
a(I4
I4
tp985
asg67
(lp986
sg69
(lp987
I0
aI0
aI0
aI0
asba(iNavigator_0_0663
NODE
p988
(dp989
g62
I0
sg63
(lp990
(I5
I6
tp991
a(I3
I6
tp992
a(I4
I7
tp993
a(I4
I5
tp994
asg67
(lp995
sg69
(lp996
I0
aI0
aI0
aI0
asba(iNavigator_0_0663
NODE
p997
(dp998
g62
I0
sg63
(lp999
(I5
I7
tp1000
a(I3
I7
tp1001
a(I4
I8
tp1002
a(I4
I6
tp1003
asg67
(lp1004
sg69
(lp1005
I0
aI0
aI0
aI0
asba(iNavigator_0_0663
NODE
p1006
(dp1007
g62
I0
sg63
(lp1008
(I5
I8
tp1009
a(I3
I8
tp1010
a(I4
I9
tp1011
a(I4
I7
tp1012
asg67
(lp1013
sg69
(lp1014
I0
aI0
aI0
aI0
asba(iNavigator_0_0663
NODE
p1015
(dp1016
g62
I0
sg63
(lp1017
(I5
I9
tp1018
a(I3
I9
tp1019
a(I4
I10
tp1020
a(I4
I8
tp1021
asg67
(lp1022
sg69
(lp1023
I0
aI0
aI0
aI0
asba(iNavigator_0_0663
NODE
p1024
(dp1025
g62
I0
sg63
(lp1026
(I5
I10
tp1027
a(I3
I10
tp1028
a(I4
I11
tp1029
a(I4
I9
tp1030
asg67
(lp1031
sg69
(lp1032
I0
aI0
aI0
aI0
asba(iNavigator_0_0663
NODE
p1033
(dp1034
g62
I0
sg63
(lp1035
(I5
I11
tp1036
a(I3
I11
tp1037
a(I4
I12
tp1038
a(I4
I10
tp1039
asg67
(lp1040
sg69
(lp1041
I0
aI0
aI0
aI0
asba(iNavigator_0_0663
NODE
p1042
(dp1043
g62
I0
sg63
(lp1044
(I5
I12
tp1045
a(I3
I12
tp1046
a(I4
I13
tp1047
a(I4
I11
tp1048
asg67
(lp1049
sg69
(lp1050
I0
aI0
aI0
aI0
asba(iNavigator_0_0663
NODE
p1051
(dp1052
g62
I0
sg63
(lp1053
(I5
I13
tp1054
a(I3
I13
tp1055
a(I4
I14
tp1056
a(I4
I12
tp1057
asg67
(lp1058
sg69
(lp1059
I0
aI0
aI0
aI0
asba(iNavigator_0_0663
NODE
p1060
(dp1061
g62
I0
sg63
(lp1062
(I5
I14
tp1063
a(I3
I14
tp1064
a(I4
I15
tp1065
a(I4
I13
tp1066
asg67
(lp1067
sg69
(lp1068
I0
aI0
aI0
aI0
asba(iNavigator_0_0663
NODE
p1069
(dp1070
g62
I0
sg63
(lp1071
(I5
I15
tp1072
a(I3
I15
tp1073
a(I4
I16
tp1074
a(I4
I14
tp1075
asg67
(lp1076
sg69
(lp1077
I0
aI0
aI0
aI0
asba(iNavigator_0_0663
NODE
p1078
(dp1079
g62
I0
sg63
(lp1080
(I5
I16
tp1081
a(I3
I16
tp1082
a(I4
I17
tp1083
a(I4
I15
tp1084
asg67
(lp1085
sg69
(lp1086
I0
aI0
aI0
aI0
asba(iNavigator_0_0663
NODE
p1087
(dp1088
g62
I0
sg63
(lp1089
(I5
I17
tp1090
a(I3
I17
tp1091
a(I4
I18
tp1092
a(I4
I16
tp1093
asg67
(lp1094
sg69
(lp1095
I0
aI0
aI0
aI0
asba(iNavigator_0_0663
NODE
p1096
(dp1097
g62
I0
sg63
(lp1098
(I5
I18
tp1099
a(I3
I18
tp1100
a(I4
I19
tp1101
a(I4
I17
tp1102
asg67
(lp1103
sg69
(lp1104
I0
aI0
aI0
aI0
asba(iNavigator_0_0663
NODE
p1105
(dp1106
g62
I0
sg63
(lp1107
(I5
I19
tp1108
a(I3
I19
tp1109
a(I4
I20
tp1110
a(I4
I18
tp1111
asg67
(lp1112
sg69
(lp1113
I0
aI0
aI0
aI0
asba(iNavigator_0_0663
NODE
p1114
(dp1115
g62
I0
sg63
(lp1116
(I5
I20
tp1117
a(I3
I20
tp1118
a(I4
I21
tp1119
a(I4
I19
tp1120
asg67
(lp1121
sg69
(lp1122
I0
aI0
aI0
aI0
asba(iNavigator_0_0663
NODE
p1123
(dp1124
g62
I0
sg63
(lp1125
(I5
I21
tp1126
a(I3
I21
tp1127
a(I4
I22
tp1128
a(I4
I20
tp1129
asg67
(lp1130
sg69
(lp1131
I0
aI0
aI0
aI0
asba(iNavigator_0_0663
NODE
p1132
(dp1133
g62
I0
sg63
(lp1134
(I5
I22
tp1135
a(I3
I22
tp1136
a(I4
I23
tp1137
a(I4
I21
tp1138
asg67
(lp1139
sg69
(lp1140
I0
aI0
aI0
aI0
asba(iNavigator_0_0663
NODE
p1141
(dp1142
g62
I0
sg63
(lp1143
(I5
I23
tp1144
a(I3
I23
tp1145
a(I4
I24
tp1146
a(I4
I22
tp1147
asg67
(lp1148
sg69
(lp1149
I0
aI0
aI0
aI0
asba(iNavigator_0_0663
NODE
p1150
(dp1151
g62
I0
sg63
(lp1152
(I5
I24
tp1153
a(I3
I24
tp1154
a(I4
I23
tp1155
asg67
(lp1156
sg69
(lp1157
I0
aI0
aI0
aI0
asbaa(lp1158
(iNavigator_0_0663
NODE
p1159
(dp1160
g62
I0
sg63
(lp1161
(I6
I0
tp1162
a(I4
I0
tp1163
a(I5
I1
tp1164
asg67
(lp1165
sg69
(lp1166
I0
aI0
aI0
aI0
asba(iNavigator_0_0663
NODE
p1167
(dp1168
g62
I0
sg63
(lp1169
(I6
I1
tp1170
a(I4
I1
tp1171
a(I5
I2
tp1172
a(I5
I0
tp1173
asg67
(lp1174
sg69
(lp1175
I0
aI0
aI0
aI0
asba(iNavigator_0_0663
NODE
p1176
(dp1177
g62
I0
sg63
(lp1178
(I6
I2
tp1179
a(I4
I2
tp1180
a(I5
I3
tp1181
a(I5
I1
tp1182
asg67
(lp1183
sg69
(lp1184
I0
aI0
aI0
aI0
asba(iNavigator_0_0663
NODE
p1185
(dp1186
g62
I0
sg63
(lp1187
(I6
I3
tp1188
a(I4
I3
tp1189
a(I5
I4
tp1190
a(I5
I2
tp1191
asg67
(lp1192
sg69
(lp1193
I0
aI0
aI0
aI0
asba(iNavigator_0_0663
NODE
p1194
(dp1195
g62
I0
sg63
(lp1196
(I6
I4
tp1197
a(I4
I4
tp1198
a(I5
I5
tp1199
a(I5
I3
tp1200
asg67
(lp1201
sg69
(lp1202
I0
aI0
aI0
aI0
asba(iNavigator_0_0663
NODE
p1203
(dp1204
g62
I0
sg63
(lp1205
(I6
I5
tp1206
a(I4
I5
tp1207
a(I5
I6
tp1208
a(I5
I4
tp1209
asg67
(lp1210
sg69
(lp1211
I0
aI0
aI0
aI0
asba(iNavigator_0_0663
NODE
p1212
(dp1213
g62
I0
sg63
(lp1214
(I6
I6
tp1215
a(I4
I6
tp1216
a(I5
I7
tp1217
a(I5
I5
tp1218
asg67
(lp1219
sg69
(lp1220
I0
aI0
aI0
aI0
asba(iNavigator_0_0663
NODE
p1221
(dp1222
g62
I0
sg63
(lp1223
(I6
I7
tp1224
a(I4
I7
tp1225
a(I5
I8
tp1226
a(I5
I6
tp1227
asg67
(lp1228
sg69
(lp1229
I0
aI0
aI0
aI0
asba(iNavigator_0_0663
NODE
p1230
(dp1231
g62
I0
sg63
(lp1232
(I6
I8
tp1233
a(I4
I8
tp1234
a(I5
I9
tp1235
a(I5
I7
tp1236
asg67
(lp1237
sg69
(lp1238
I0
aI0
aI0
aI0
asba(iNavigator_0_0663
NODE
p1239
(dp1240
g62
I0
sg63
(lp1241
(I6
I9
tp1242
a(I4
I9
tp1243
a(I5
I10
tp1244
a(I5
I8
tp1245
asg67
(lp1246
sg69
(lp1247
I0
aI0
aI0
aI0
asba(iNavigator_0_0663
NODE
p1248
(dp1249
g62
I0
sg63
(lp1250
(I6
I10
tp1251
a(I4
I10
tp1252
a(I5
I11
tp1253
a(I5
I9
tp1254
asg67
(lp1255
sg69
(lp1256
I0
aI0
aI0
aI0
asba(iNavigator_0_0663
NODE
p1257
(dp1258
g62
I0
sg63
(lp1259
(I6
I11
tp1260
a(I4
I11
tp1261
a(I5
I12
tp1262
a(I5
I10
tp1263
asg67
(lp1264
sg69
(lp1265
I0
aI0
aI0
aI0
asba(iNavigator_0_0663
NODE
p1266
(dp1267
g62
I0
sg63
(lp1268
(I6
I12
tp1269
a(I4
I12
tp1270
a(I5
I13
tp1271
a(I5
I11
tp1272
asg67
(lp1273
sg69
(lp1274
I0
aI0
aI0
aI0
asba(iNavigator_0_0663
NODE
p1275
(dp1276
g62
I0
sg63
(lp1277
(I6
I13
tp1278
a(I4
I13
tp1279
a(I5
I14
tp1280
a(I5
I12
tp1281
asg67
(lp1282
sg69
(lp1283
I0
aI0
aI0
aI0
asba(iNavigator_0_0663
NODE
p1284
(dp1285
g62
I0
sg63
(lp1286
(I6
I14
tp1287
a(I4
I14
tp1288
a(I5
I15
tp1289
a(I5
I13
tp1290
asg67
(lp1291
sg69
(lp1292
I0
aI0
aI0
aI0
asba(iNavigator_0_0663
NODE
p1293
(dp1294
g62
I0
sg63
(lp1295
(I6
I15
tp1296
a(I4
I15
tp1297
a(I5
I16
tp1298
a(I5
I14
tp1299
asg67
(lp1300
sg69
(lp1301
I0
aI0
aI0
aI0
asba(iNavigator_0_0663
NODE
p1302
(dp1303
g62
I0
sg63
(lp1304
(I6
I16
tp1305
a(I4
I16
tp1306
a(I5
I17
tp1307
a(I5
I15
tp1308
asg67
(lp1309
sg69
(lp1310
I0
aI0
aI0
aI0
asba(iNavigator_0_0663
NODE
p1311
(dp1312
g62
I0
sg63
(lp1313
(I6
I17
tp1314
a(I4
I17
tp1315
a(I5
I18
tp1316
a(I5
I16
tp1317
asg67
(lp1318
sg69
(lp1319
I0
aI0
aI0
aI0
asba(iNavigator_0_0663
NODE
p1320
(dp1321
g62
I0
sg63
(lp1322
(I6
I18
tp1323
a(I4
I18
tp1324
a(I5
I19
tp1325
a(I5
I17
tp1326
asg67
(lp1327
sg69
(lp1328
I0
aI0
aI0
aI0
asba(iNavigator_0_0663
NODE
p1329
(dp1330
g62
I0
sg63
(lp1331
(I6
I19
tp1332
a(I4
I19
tp1333
a(I5
I20
tp1334
a(I5
I18
tp1335
asg67
(lp1336
sg69
(lp1337
I0
aI0
aI0
aI0
asba(iNavigator_0_0663
NODE
p1338
(dp1339
g62
I0
sg63
(lp1340
(I6
I20
tp1341
a(I4
I20
tp1342
a(I5
I21
tp1343
a(I5
I19
tp1344
asg67
(lp1345
sg69
(lp1346
I0
aI0
aI0
aI0
asba(iNavigator_0_0663
NODE
p1347
(dp1348
g62
I0
sg63
(lp1349
(I6
I21
tp1350
a(I4
I21
tp1351
a(I5
I22
tp1352
a(I5
I20
tp1353
asg67
(lp1354
sg69
(lp1355
I0
aI0
aI0
aI0
asba(iNavigator_0_0663
NODE
p1356
(dp1357
g62
I0
sg63
(lp1358
(I6
I22
tp1359
a(I4
I22
tp1360
a(I5
I23
tp1361
a(I5
I21
tp1362
asg67
(lp1363
sg69
(lp1364
I0
aI0
aI0
aI0
asba(iNavigator_0_0663
NODE
p1365
(dp1366
g62
I0
sg63
(lp1367
(I6
I23
tp1368
a(I4
I23
tp1369
a(I5
I24
tp1370
a(I5
I22
tp1371
asg67
(lp1372
sg69
(lp1373
I0
aI0
aI0
aI0
asba(iNavigator_0_0663
NODE
p1374
(dp1375
g62
I0
sg63
(lp1376
(I6
I24
tp1377
a(I4
I24
tp1378
a(I5
I23
tp1379
asg67
(lp1380
sg69
(lp1381
I0
aI0
aI0
aI0
asbaa(lp1382
(iNavigator_0_0663
NODE
p1383
(dp1384
g62
I0
sg63
(lp1385
(I7
I0
tp1386
a(I5
I0
tp1387
a(I6
I1
tp1388
asg67
(lp1389
sg69
(lp1390
I0
aI0
aI0
aI0
asba(iNavigator_0_0663
NODE
p1391
(dp1392
g62
I0
sg63
(lp1393
(I7
I1
tp1394
a(I5
I1
tp1395
a(I6
I2
tp1396
a(I6
I0
tp1397
asg67
(lp1398
sg69
(lp1399
I0
aI0
aI0
aI0
asba(iNavigator_0_0663
NODE
p1400
(dp1401
g62
I0
sg63
(lp1402
(I7
I2
tp1403
a(I5
I2
tp1404
a(I6
I3
tp1405
a(I6
I1
tp1406
asg67
(lp1407
sg69
(lp1408
I0
aI0
aI0
aI0
asba(iNavigator_0_0663
NODE
p1409
(dp1410
g62
I0
sg63
(lp1411
(I7
I3
tp1412
a(I5
I3
tp1413
a(I6
I4
tp1414
a(I6
I2
tp1415
asg67
(lp1416
sg69
(lp1417
I0
aI0
aI0
aI0
asba(iNavigator_0_0663
NODE
p1418
(dp1419
g62
I0
sg63
(lp1420
(I7
I4
tp1421
a(I5
I4
tp1422
a(I6
I5
tp1423
a(I6
I3
tp1424
asg67
(lp1425
sg69
(lp1426
I0
aI0
aI0
aI0
asba(iNavigator_0_0663
NODE
p1427
(dp1428
g62
I0
sg63
(lp1429
(I7
I5
tp1430
a(I5
I5
tp1431
a(I6
I6
tp1432
a(I6
I4
tp1433
asg67
(lp1434
sg69
(lp1435
I0
aI0
aI0
aI0
asba(iNavigator_0_0663
NODE
p1436
(dp1437
g62
I0
sg63
(lp1438
(I7
I6
tp1439
a(I5
I6
tp1440
a(I6
I7
tp1441
a(I6
I5
tp1442
asg67
(lp1443
sg69
(lp1444
I0
aI0
aI0
aI0
asba(iNavigator_0_0663
NODE
p1445
(dp1446
g62
I0
sg63
(lp1447
(I7
I7
tp1448
a(I5
I7
tp1449
a(I6
I8
tp1450
a(I6
I6
tp1451
asg67
(lp1452
sg69
(lp1453
I0
aI0
aI0
aI0
asba(iNavigator_0_0663
NODE
p1454
(dp1455
g62
I0
sg63
(lp1456
(I7
I8
tp1457
a(I5
I8
tp1458
a(I6
I9
tp1459
a(I6
I7
tp1460
asg67
(lp1461
sg69
(lp1462
I0
aI0
aI0
aI0
asba(iNavigator_0_0663
NODE
p1463
(dp1464
g62
I0
sg63
(lp1465
(I7
I9
tp1466
a(I5
I9
tp1467
a(I6
I10
tp1468
a(I6
I8
tp1469
asg67
(lp1470
sg69
(lp1471
I0
aI0
aI0
aI0
asba(iNavigator_0_0663
NODE
p1472
(dp1473
g62
I0
sg63
(lp1474
(I7
I10
tp1475
a(I5
I10
tp1476
a(I6
I11
tp1477
a(I6
I9
tp1478
asg67
(lp1479
sg69
(lp1480
I0
aI0
aI0
aI0
asba(iNavigator_0_0663
NODE
p1481
(dp1482
g62
I0
sg63
(lp1483
(I7
I11
tp1484
a(I5
I11
tp1485
a(I6
I12
tp1486
a(I6
I10
tp1487
asg67
(lp1488
sg69
(lp1489
I0
aI0
aI0
aI0
asba(iNavigator_0_0663
NODE
p1490
(dp1491
g62
I0
sg63
(lp1492
(I7
I12
tp1493
a(I5
I12
tp1494
a(I6
I13
tp1495
a(I6
I11
tp1496
asg67
(lp1497
sg69
(lp1498
I0
aI0
aI0
aI0
asba(iNavigator_0_0663
NODE
p1499
(dp1500
g62
I0
sg63
(lp1501
(I7
I13
tp1502
a(I5
I13
tp1503
a(I6
I14
tp1504
a(I6
I12
tp1505
asg67
(lp1506
sg69
(lp1507
I0
aI0
aI0
aI0
asba(iNavigator_0_0663
NODE
p1508
(dp1509
g62
I0
sg63
(lp1510
(I7
I14
tp1511
a(I5
I14
tp1512
a(I6
I15
tp1513
a(I6
I13
tp1514
asg67
(lp1515
sg69
(lp1516
I0
aI0
aI0
aI0
asba(iNavigator_0_0663
NODE
p1517
(dp1518
g62
I0
sg63
(lp1519
(I7
I15
tp1520
a(I5
I15
tp1521
a(I6
I16
tp1522
a(I6
I14
tp1523
asg67
(lp1524
sg69
(lp1525
I0
aI0
aI0
aI0
asba(iNavigator_0_0663
NODE
p1526
(dp1527
g62
I0
sg63
(lp1528
(I7
I16
tp1529
a(I5
I16
tp1530
a(I6
I17
tp1531
a(I6
I15
tp1532
asg67
(lp1533
sg69
(lp1534
I0
aI0
aI0
aI0
asba(iNavigator_0_0663
NODE
p1535
(dp1536
g62
I0
sg63
(lp1537
(I7
I17
tp1538
a(I5
I17
tp1539
a(I6
I18
tp1540
a(I6
I16
tp1541
asg67
(lp1542
sg69
(lp1543
I0
aI0
aI0
aI0
asba(iNavigator_0_0663
NODE
p1544
(dp1545
g62
I0
sg63
(lp1546
(I7
I18
tp1547
a(I5
I18
tp1548
a(I6
I19
tp1549
a(I6
I17
tp1550
asg67
(lp1551
sg69
(lp1552
I0
aI0
aI0
aI0
asba(iNavigator_0_0663
NODE
p1553
(dp1554
g62
I0
sg63
(lp1555
(I7
I19
tp1556
a(I5
I19
tp1557
a(I6
I20
tp1558
a(I6
I18
tp1559
asg67
(lp1560
sg69
(lp1561
I0
aI0
aI0
aI0
asba(iNavigator_0_0663
NODE
p1562
(dp1563
g62
I0
sg63
(lp1564
(I7
I20
tp1565
a(I5
I20
tp1566
a(I6
I21
tp1567
a(I6
I19
tp1568
asg67
(lp1569
sg69
(lp1570
I0
aI0
aI0
aI0
asba(iNavigator_0_0663
NODE
p1571
(dp1572
g62
I0
sg63
(lp1573
(I7
I21
tp1574
a(I5
I21
tp1575
a(I6
I22
tp1576
a(I6
I20
tp1577
asg67
(lp1578
sg69
(lp1579
I0
aI0
aI0
aI0
asba(iNavigator_0_0663
NODE
p1580
(dp1581
g62
I0
sg63
(lp1582
(I7
I22
tp1583
a(I5
I22
tp1584
a(I6
I23
tp1585
a(I6
I21
tp1586
asg67
(lp1587
sg69
(lp1588
I0
aI0
aI0
aI0
asba(iNavigator_0_0663
NODE
p1589
(dp1590
g62
I0
sg63
(lp1591
(I7
I23
tp1592
a(I5
I23
tp1593
a(I6
I24
tp1594
a(I6
I22
tp1595
asg67
(lp1596
sg69
(lp1597
I0
aI0
aI0
aI0
asba(iNavigator_0_0663
NODE
p1598
(dp1599
g62
I0
sg63
(lp1600
(I7
I24
tp1601
a(I5
I24
tp1602
a(I6
I23
tp1603
asg67
(lp1604
sg69
(lp1605
I0
aI0
aI0
aI0
asbaa(lp1606
(iNavigator_0_0663
NODE
p1607
(dp1608
g62
I0
sg63
(lp1609
(I8
I0
tp1610
a(I6
I0
tp1611
a(I7
I1
tp1612
asg67
(lp1613
sg69
(lp1614
I0
aI0
aI0
aI0
asba(iNavigator_0_0663
NODE
p1615
(dp1616
g62
I0
sg63
(lp1617
(I8
I1
tp1618
a(I6
I1
tp1619
a(I7
I2
tp1620
a(I7
I0
tp1621
asg67
(lp1622
sg69
(lp1623
I0
aI0
aI0
aI0
asba(iNavigator_0_0663
NODE
p1624
(dp1625
g62
I0
sg63
(lp1626
(I8
I2
tp1627
a(I6
I2
tp1628
a(I7
I3
tp1629
a(I7
I1
tp1630
asg67
(lp1631
sg69
(lp1632
I0
aI0
aI0
aI0
asba(iNavigator_0_0663
NODE
p1633
(dp1634
g62
I0
sg63
(lp1635
(I8
I3
tp1636
a(I6
I3
tp1637
a(I7
I4
tp1638
a(I7
I2
tp1639
asg67
(lp1640
sg69
(lp1641
I0
aI0
aI0
aI0
asba(iNavigator_0_0663
NODE
p1642
(dp1643
g62
I0
sg63
(lp1644
(I8
I4
tp1645
a(I6
I4
tp1646
a(I7
I5
tp1647
a(I7
I3
tp1648
asg67
(lp1649
sg69
(lp1650
I0
aI0
aI0
aI0
asba(iNavigator_0_0663
NODE
p1651
(dp1652
g62
I0
sg63
(lp1653
(I8
I5
tp1654
a(I6
I5
tp1655
a(I7
I6
tp1656
a(I7
I4
tp1657
asg67
(lp1658
sg69
(lp1659
I0
aI0
aI0
aI0
asba(iNavigator_0_0663
NODE
p1660
(dp1661
g62
I0
sg63
(lp1662
(I8
I6
tp1663
a(I6
I6
tp1664
a(I7
I7
tp1665
a(I7
I5
tp1666
asg67
(lp1667
sg69
(lp1668
I0
aI0
aI0
aI0
asba(iNavigator_0_0663
NODE
p1669
(dp1670
g62
I0
sg63
(lp1671
(I8
I7
tp1672
a(I6
I7
tp1673
a(I7
I8
tp1674
a(I7
I6
tp1675
asg67
(lp1676
sg69
(lp1677
I0
aI0
aI0
aI0
asba(iNavigator_0_0663
NODE
p1678
(dp1679
g62
I0
sg63
(lp1680
(I8
I8
tp1681
a(I6
I8
tp1682
a(I7
I9
tp1683
a(I7
I7
tp1684
asg67
(lp1685
sg69
(lp1686
I0
aI0
aI0
aI0
asba(iNavigator_0_0663
NODE
p1687
(dp1688
g62
I0
sg63
(lp1689
(I8
I9
tp1690
a(I6
I9
tp1691
a(I7
I10
tp1692
a(I7
I8
tp1693
asg67
(lp1694
sg69
(lp1695
I0
aI0
aI0
aI0
asba(iNavigator_0_0663
NODE
p1696
(dp1697
g62
I0
sg63
(lp1698
(I8
I10
tp1699
a(I6
I10
tp1700
a(I7
I11
tp1701
a(I7
I9
tp1702
asg67
(lp1703
sg69
(lp1704
I0
aI0
aI0
aI0
asba(iNavigator_0_0663
NODE
p1705
(dp1706
g62
I0
sg63
(lp1707
(I8
I11
tp1708
a(I6
I11
tp1709
a(I7
I12
tp1710
a(I7
I10
tp1711
asg67
(lp1712
sg69
(lp1713
I0
aI0
aI0
aI0
asba(iNavigator_0_0663
NODE
p1714
(dp1715
g62
I0
sg63
(lp1716
(I8
I12
tp1717
a(I6
I12
tp1718
a(I7
I13
tp1719
a(I7
I11
tp1720
asg67
(lp1721
sg69
(lp1722
I0
aI0
aI0
aI0
asba(iNavigator_0_0663
NODE
p1723
(dp1724
g62
I0
sg63
(lp1725
(I8
I13
tp1726
a(I6
I13
tp1727
a(I7
I14
tp1728
a(I7
I12
tp1729
asg67
(lp1730
sg69
(lp1731
I0
aI0
aI0
aI0
asba(iNavigator_0_0663
NODE
p1732
(dp1733
g62
I0
sg63
(lp1734
(I8
I14
tp1735
a(I6
I14
tp1736
a(I7
I15
tp1737
a(I7
I13
tp1738
asg67
(lp1739
sg69
(lp1740
I0
aI0
aI0
aI0
asba(iNavigator_0_0663
NODE
p1741
(dp1742
g62
I0
sg63
(lp1743
(I8
I15
tp1744
a(I6
I15
tp1745
a(I7
I16
tp1746
a(I7
I14
tp1747
asg67
(lp1748
sg69
(lp1749
I0
aI0
aI0
aI0
asba(iNavigator_0_0663
NODE
p1750
(dp1751
g62
I0
sg63
(lp1752
(I8
I16
tp1753
a(I6
I16
tp1754
a(I7
I17
tp1755
a(I7
I15
tp1756
asg67
(lp1757
sg69
(lp1758
I0
aI0
aI0
aI0
asba(iNavigator_0_0663
NODE
p1759
(dp1760
g62
I0
sg63
(lp1761
(I8
I17
tp1762
a(I6
I17
tp1763
a(I7
I18
tp1764
a(I7
I16
tp1765
asg67
(lp1766
sg69
(lp1767
I0
aI0
aI0
aI0
asba(iNavigator_0_0663
NODE
p1768
(dp1769
g62
I0
sg63
(lp1770
(I8
I18
tp1771
a(I6
I18
tp1772
a(I7
I19
tp1773
a(I7
I17
tp1774
asg67
(lp1775
sg69
(lp1776
I0
aI0
aI0
aI0
asba(iNavigator_0_0663
NODE
p1777
(dp1778
g62
I0
sg63
(lp1779
(I8
I19
tp1780
a(I6
I19
tp1781
a(I7
I20
tp1782
a(I7
I18
tp1783
asg67
(lp1784
sg69
(lp1785
I0
aI0
aI0
aI0
asba(iNavigator_0_0663
NODE
p1786
(dp1787
g62
I0
sg63
(lp1788
(I8
I20
tp1789
a(I6
I20
tp1790
a(I7
I21
tp1791
a(I7
I19
tp1792
asg67
(lp1793
sg69
(lp1794
I0
aI0
aI0
aI0
asba(iNavigator_0_0663
NODE
p1795
(dp1796
g62
I0
sg63
(lp1797
(I8
I21
tp1798
a(I6
I21
tp1799
a(I7
I22
tp1800
a(I7
I20
tp1801
asg67
(lp1802
sg69
(lp1803
I0
aI0
aI0
aI0
asba(iNavigator_0_0663
NODE
p1804
(dp1805
g62
I0
sg63
(lp1806
(I8
I22
tp1807
a(I6
I22
tp1808
a(I7
I23
tp1809
a(I7
I21
tp1810
asg67
(lp1811
sg69
(lp1812
I0
aI0
aI0
aI0
asba(iNavigator_0_0663
NODE
p1813
(dp1814
g62
I0
sg63
(lp1815
(I8
I23
tp1816
a(I6
I23
tp1817
a(I7
I24
tp1818
a(I7
I22
tp1819
asg67
(lp1820
sg69
(lp1821
I0
aI0
aI0
aI0
asba(iNavigator_0_0663
NODE
p1822
(dp1823
g62
I0
sg63
(lp1824
(I8
I24
tp1825
a(I6
I24
tp1826
a(I7
I23
tp1827
asg67
(lp1828
sg69
(lp1829
I0
aI0
aI0
aI0
asbaa(lp1830
(iNavigator_0_0663
NODE
p1831
(dp1832
g62
I0
sg63
(lp1833
(I9
I0
tp1834
a(I7
I0
tp1835
a(I8
I1
tp1836
asg67
(lp1837
sg69
(lp1838
I0
aI0
aI0
aI0
asba(iNavigator_0_0663
NODE
p1839
(dp1840
g62
I0
sg63
(lp1841
(I9
I1
tp1842
a(I7
I1
tp1843
a(I8
I2
tp1844
a(I8
I0
tp1845
asg67
(lp1846
sg69
(lp1847
I0
aI0
aI0
aI0
asba(iNavigator_0_0663
NODE
p1848
(dp1849
g62
I0
sg63
(lp1850
(I9
I2
tp1851
a(I7
I2
tp1852
a(I8
I3
tp1853
a(I8
I1
tp1854
asg67
(lp1855
sg69
(lp1856
I0
aI0
aI0
aI0
asba(iNavigator_0_0663
NODE
p1857
(dp1858
g62
I0
sg63
(lp1859
(I9
I3
tp1860
a(I7
I3
tp1861
a(I8
I4
tp1862
a(I8
I2
tp1863
asg67
(lp1864
sg69
(lp1865
I0
aI0
aI0
aI0
asba(iNavigator_0_0663
NODE
p1866
(dp1867
g62
I0
sg63
(lp1868
(I9
I4
tp1869
a(I7
I4
tp1870
a(I8
I5
tp1871
a(I8
I3
tp1872
asg67
(lp1873
sg69
(lp1874
I0
aI0
aI0
aI0
asba(iNavigator_0_0663
NODE
p1875
(dp1876
g62
I0
sg63
(lp1877
(I9
I5
tp1878
a(I7
I5
tp1879
a(I8
I6
tp1880
a(I8
I4
tp1881
asg67
(lp1882
sg69
(lp1883
I0
aI0
aI0
aI0
asba(iNavigator_0_0663
NODE
p1884
(dp1885
g62
I0
sg63
(lp1886
(I9
I6
tp1887
a(I7
I6
tp1888
a(I8
I7
tp1889
a(I8
I5
tp1890
asg67
(lp1891
sg69
(lp1892
I0
aI0
aI0
aI0
asba(iNavigator_0_0663
NODE
p1893
(dp1894
g62
I0
sg63
(lp1895
(I9
I7
tp1896
a(I7
I7
tp1897
a(I8
I8
tp1898
a(I8
I6
tp1899
asg67
(lp1900
sg69
(lp1901
I0
aI0
aI0
aI0
asba(iNavigator_0_0663
NODE
p1902
(dp1903
g62
I0
sg63
(lp1904
(I9
I8
tp1905
a(I7
I8
tp1906
a(I8
I9
tp1907
a(I8
I7
tp1908
asg67
(lp1909
sg69
(lp1910
I0
aI0
aI0
aI0
asba(iNavigator_0_0663
NODE
p1911
(dp1912
g62
I0
sg63
(lp1913
(I9
I9
tp1914
a(I7
I9
tp1915
a(I8
I10
tp1916
a(I8
I8
tp1917
asg67
(lp1918
sg69
(lp1919
I0
aI0
aI0
aI0
asba(iNavigator_0_0663
NODE
p1920
(dp1921
g62
I0
sg63
(lp1922
g46
ag47
ag48
asg67
(lp1923
(I8
I11
tp1924
asg69
(lp1925
I0
aI0
aI0
aI0
asba(iNavigator_0_0663
NODE
p1926
(dp1927
g62
I0
sg63
(lp1928
g44
ag45
asg67
(lp1929
(I9
I11
tp1930
asg69
(lp1931
I0
aI0
aI0
aI0
asba(iNavigator_0_0663
NODE
p1932
(dp1933
g62
I0
sg63
(lp1934
(I9
I12
tp1935
a(I7
I12
tp1936
a(I8
I13
tp1937
a(I8
I11
tp1938
asg67
(lp1939
sg69
(lp1940
I0
aI0
aI0
aI0
asba(iNavigator_0_0663
NODE
p1941
(dp1942
g62
I0
sg63
(lp1943
(I9
I13
tp1944
a(I7
I13
tp1945
a(I8
I14
tp1946
a(I8
I12
tp1947
asg67
(lp1948
sg69
(lp1949
I0
aI0
aI0
aI0
asba(iNavigator_0_0663
NODE
p1950
(dp1951
g62
I0
sg63
(lp1952
(I9
I14
tp1953
a(I7
I14
tp1954
a(I8
I15
tp1955
a(I8
I13
tp1956
asg67
(lp1957
sg69
(lp1958
I0
aI0
aI0
aI0
asba(iNavigator_0_0663
NODE
p1959
(dp1960
g62
I0
sg63
(lp1961
(I9
I15
tp1962
a(I7
I15
tp1963
a(I8
I16
tp1964
a(I8
I14
tp1965
asg67
(lp1966
sg69
(lp1967
I0
aI0
aI0
aI0
asba(iNavigator_0_0663
NODE
p1968
(dp1969
g62
I0
sg63
(lp1970
(I9
I16
tp1971
a(I7
I16
tp1972
a(I8
I17
tp1973
a(I8
I15
tp1974
asg67
(lp1975
sg69
(lp1976
I0
aI0
aI0
aI0
asba(iNavigator_0_0663
NODE
p1977
(dp1978
g62
I0
sg63
(lp1979
(I9
I17
tp1980
a(I7
I17
tp1981
a(I8
I18
tp1982
a(I8
I16
tp1983
asg67
(lp1984
sg69
(lp1985
I0
aI0
aI0
aI0
asba(iNavigator_0_0663
NODE
p1986
(dp1987
g62
I0
sg63
(lp1988
(I9
I18
tp1989
a(I7
I18
tp1990
a(I8
I19
tp1991
a(I8
I17
tp1992
asg67
(lp1993
sg69
(lp1994
I0
aI0
aI0
aI0
asba(iNavigator_0_0663
NODE
p1995
(dp1996
g62
I0
sg63
(lp1997
(I9
I19
tp1998
a(I7
I19
tp1999
a(I8
I20
tp2000
a(I8
I18
tp2001
asg67
(lp2002
sg69
(lp2003
I0
aI0
aI0
aI0
asba(iNavigator_0_0663
NODE
p2004
(dp2005
g62
I0
sg63
(lp2006
(I9
I20
tp2007
a(I7
I20
tp2008
a(I8
I21
tp2009
a(I8
I19
tp2010
asg67
(lp2011
sg69
(lp2012
I0
aI0
aI0
aI0
asba(iNavigator_0_0663
NODE
p2013
(dp2014
g62
I0
sg63
(lp2015
(I9
I21
tp2016
a(I7
I21
tp2017
a(I8
I22
tp2018
a(I8
I20
tp2019
asg67
(lp2020
sg69
(lp2021
I0
aI0
aI0
aI0
asba(iNavigator_0_0663
NODE
p2022
(dp2023
g62
I0
sg63
(lp2024
(I9
I22
tp2025
a(I7
I22
tp2026
a(I8
I23
tp2027
a(I8
I21
tp2028
asg67
(lp2029
sg69
(lp2030
I0
aI0
aI0
aI0
asba(iNavigator_0_0663
NODE
p2031
(dp2032
g62
I0
sg63
(lp2033
(I9
I23
tp2034
a(I7
I23
tp2035
a(I8
I24
tp2036
a(I8
I22
tp2037
asg67
(lp2038
sg69
(lp2039
I0
aI0
aI0
aI0
asba(iNavigator_0_0663
NODE
p2040
(dp2041
g62
I0
sg63
(lp2042
(I9
I24
tp2043
a(I7
I24
tp2044
a(I8
I23
tp2045
asg67
(lp2046
sg69
(lp2047
I0
aI0
aI0
aI0
asbaa(lp2048
(iNavigator_0_0663
NODE
p2049
(dp2050
g62
I0
sg63
(lp2051
(I10
I0
tp2052
a(I8
I0
tp2053
a(I9
I1
tp2054
asg67
(lp2055
sg69
(lp2056
I0
aI0
aI0
aI0
asba(iNavigator_0_0663
NODE
p2057
(dp2058
g62
I0
sg63
(lp2059
(I10
I1
tp2060
a(I8
I1
tp2061
a(I9
I2
tp2062
a(I9
I0
tp2063
asg67
(lp2064
sg69
(lp2065
I0
aI0
aI0
aI0
asba(iNavigator_0_0663
NODE
p2066
(dp2067
g62
I0
sg63
(lp2068
(I10
I2
tp2069
a(I8
I2
tp2070
a(I9
I3
tp2071
a(I9
I1
tp2072
asg67
(lp2073
sg69
(lp2074
I0
aI0
aI0
aI0
asba(iNavigator_0_0663
NODE
p2075
(dp2076
g62
I0
sg63
(lp2077
(I10
I3
tp2078
a(I8
I3
tp2079
a(I9
I4
tp2080
a(I9
I2
tp2081
asg67
(lp2082
sg69
(lp2083
I0
aI0
aI0
aI0
asba(iNavigator_0_0663
NODE
p2084
(dp2085
g62
I0
sg63
(lp2086
(I10
I4
tp2087
a(I8
I4
tp2088
a(I9
I5
tp2089
a(I9
I3
tp2090
asg67
(lp2091
sg69
(lp2092
I0
aI0
aI0
aI0
asba(iNavigator_0_0663
NODE
p2093
(dp2094
g62
I0
sg63
(lp2095
(I10
I5
tp2096
a(I8
I5
tp2097
a(I9
I6
tp2098
a(I9
I4
tp2099
asg67
(lp2100
sg69
(lp2101
I0
aI0
aI0
aI0
asba(iNavigator_0_0663
NODE
p2102
(dp2103
g62
I0
sg63
(lp2104
(I10
I6
tp2105
a(I8
I6
tp2106
a(I9
I7
tp2107
a(I9
I5
tp2108
asg67
(lp2109
sg69
(lp2110
I0
aI0
aI0
aI0
asba(iNavigator_0_0663
NODE
p2111
(dp2112
g62
I0
sg63
(lp2113
(I10
I7
tp2114
a(I8
I7
tp2115
a(I9
I8
tp2116
a(I9
I6
tp2117
asg67
(lp2118
sg69
(lp2119
I0
aI0
aI0
aI0
asba(iNavigator_0_0663
NODE
p2120
(dp2121
g62
I0
sg63
(lp2122
(I10
I8
tp2123
a(I8
I8
tp2124
a(I9
I9
tp2125
a(I9
I7
tp2126
asg67
(lp2127
sg69
(lp2128
I0
aI0
aI0
aI0
asba(iNavigator_0_0663
NODE
p2129
(dp2130
g62
I0
sg63
(lp2131
(I10
I9
tp2132
a(I8
I9
tp2133
a(I9
I10
tp2134
a(I9
I8
tp2135
asg67
(lp2136
sg69
(lp2137
I0
aI0
aI0
aI0
asba(iNavigator_0_0663
NODE
p2138
(dp2139
g62
I0
sg63
(lp2140
g37
ag19
ag38
asg67
(lp2141
(I9
I11
tp2142
asg69
(lp2143
I0
aI0
aI0
aI0
asba(iNavigator_0_0663
NODE
p2144
(dp2145
g62
I0
sg63
(lp2146
g30
asg67
(lp2147
(I10
I11
tp2148
asg69
(lp2149
I0
aI0
aI0
aI0
asba(iNavigator_0_0663
NODE
p2150
(dp2151
g62
I0
sg63
(lp2152
(I10
I12
tp2153
a(I8
I12
tp2154
a(I9
I13
tp2155
a(I9
I11
tp2156
asg67
(lp2157
sg69
(lp2158
I0
aI0
aI0
aI0
asba(iNavigator_0_0663
NODE
p2159
(dp2160
g62
I0
sg63
(lp2161
(I10
I13
tp2162
a(I8
I13
tp2163
a(I9
I14
tp2164
a(I9
I12
tp2165
asg67
(lp2166
sg69
(lp2167
I0
aI0
aI0
aI0
asba(iNavigator_0_0663
NODE
p2168
(dp2169
g62
I0
sg63
(lp2170
(I10
I14
tp2171
a(I8
I14
tp2172
a(I9
I15
tp2173
a(I9
I13
tp2174
asg67
(lp2175
sg69
(lp2176
I0
aI0
aI0
aI0
asba(iNavigator_0_0663
NODE
p2177
(dp2178
g62
I0
sg63
(lp2179
(I10
I15
tp2180
a(I8
I15
tp2181
a(I9
I16
tp2182
a(I9
I14
tp2183
asg67
(lp2184
sg69
(lp2185
I0
aI0
aI0
aI0
asba(iNavigator_0_0663
NODE
p2186
(dp2187
g62
I0
sg63
(lp2188
(I10
I16
tp2189
a(I8
I16
tp2190
a(I9
I17
tp2191
a(I9
I15
tp2192
asg67
(lp2193
sg69
(lp2194
I0
aI0
aI0
aI0
asba(iNavigator_0_0663
NODE
p2195
(dp2196
g62
I0
sg63
(lp2197
(I10
I17
tp2198
a(I8
I17
tp2199
a(I9
I18
tp2200
a(I9
I16
tp2201
asg67
(lp2202
sg69
(lp2203
I0
aI0
aI0
aI0
asba(iNavigator_0_0663
NODE
p2204
(dp2205
g62
I0
sg63
(lp2206
(I10
I18
tp2207
a(I8
I18
tp2208
a(I9
I19
tp2209
a(I9
I17
tp2210
asg67
(lp2211
sg69
(lp2212
I0
aI0
aI0
aI0
asba(iNavigator_0_0663
NODE
p2213
(dp2214
g62
I0
sg63
(lp2215
(I10
I19
tp2216
a(I8
I19
tp2217
a(I9
I20
tp2218
a(I9
I18
tp2219
asg67
(lp2220
sg69
(lp2221
I0
aI0
aI0
aI0
asba(iNavigator_0_0663
NODE
p2222
(dp2223
g62
I0
sg63
(lp2224
(I10
I20
tp2225
a(I8
I20
tp2226
a(I9
I21
tp2227
a(I9
I19
tp2228
asg67
(lp2229
sg69
(lp2230
I0
aI0
aI0
aI0
asba(iNavigator_0_0663
NODE
p2231
(dp2232
g62
I0
sg63
(lp2233
(I10
I21
tp2234
a(I8
I21
tp2235
a(I9
I22
tp2236
a(I9
I20
tp2237
asg67
(lp2238
sg69
(lp2239
I0
aI0
aI0
aI0
asba(iNavigator_0_0663
NODE
p2240
(dp2241
g62
I0
sg63
(lp2242
(I10
I22
tp2243
a(I8
I22
tp2244
a(I9
I23
tp2245
a(I9
I21
tp2246
asg67
(lp2247
sg69
(lp2248
I0
aI0
aI0
aI0
asba(iNavigator_0_0663
NODE
p2249
(dp2250
g62
I0
sg63
(lp2251
(I10
I23
tp2252
a(I8
I23
tp2253
a(I9
I24
tp2254
a(I9
I22
tp2255
asg67
(lp2256
sg69
(lp2257
I0
aI0
aI0
aI0
asba(iNavigator_0_0663
NODE
p2258
(dp2259
g62
I0
sg63
(lp2260
(I10
I24
tp2261
a(I8
I24
tp2262
a(I9
I23
tp2263
asg67
(lp2264
sg69
(lp2265
I0
aI0
aI0
aI0
asbaa(lp2266
(iNavigator_0_0663
NODE
p2267
(dp2268
g62
I0
sg63
(lp2269
(I11
I0
tp2270
a(I9
I0
tp2271
a(I10
I1
tp2272
asg67
(lp2273
sg69
(lp2274
I0
aI0
aI0
aI0
asba(iNavigator_0_0663
NODE
p2275
(dp2276
g62
I0
sg63
(lp2277
(I11
I1
tp2278
a(I9
I1
tp2279
a(I10
I2
tp2280
a(I10
I0
tp2281
asg67
(lp2282
sg69
(lp2283
I0
aI0
aI0
aI0
asba(iNavigator_0_0663
NODE
p2284
(dp2285
g62
I0
sg63
(lp2286
(I11
I2
tp2287
a(I9
I2
tp2288
a(I10
I3
tp2289
a(I10
I1
tp2290
asg67
(lp2291
sg69
(lp2292
I0
aI0
aI0
aI0
asba(iNavigator_0_0663
NODE
p2293
(dp2294
g62
I0
sg63
(lp2295
(I11
I3
tp2296
a(I9
I3
tp2297
a(I10
I4
tp2298
a(I10
I2
tp2299
asg67
(lp2300
sg69
(lp2301
I0
aI0
aI0
aI0
asba(iNavigator_0_0663
NODE
p2302
(dp2303
g62
I0
sg63
(lp2304
(I11
I4
tp2305
a(I9
I4
tp2306
a(I10
I5
tp2307
a(I10
I3
tp2308
asg67
(lp2309
sg69
(lp2310
I0
aI0
aI0
aI0
asba(iNavigator_0_0663
NODE
p2311
(dp2312
g62
I0
sg63
(lp2313
(I11
I5
tp2314
a(I9
I5
tp2315
a(I10
I6
tp2316
a(I10
I4
tp2317
asg67
(lp2318
sg69
(lp2319
I0
aI0
aI0
aI0
asba(iNavigator_0_0663
NODE
p2320
(dp2321
g62
I0
sg63
(lp2322
(I11
I6
tp2323
a(I9
I6
tp2324
a(I10
I7
tp2325
a(I10
I5
tp2326
asg67
(lp2327
sg69
(lp2328
I0
aI0
aI0
aI0
asba(iNavigator_0_0663
NODE
p2329
(dp2330
g62
I0
sg63
(lp2331
(I11
I7
tp2332
a(I9
I7
tp2333
a(I10
I8
tp2334
a(I10
I6
tp2335
asg67
(lp2336
sg69
(lp2337
I0
aI0
aI0
aI0
asba(iNavigator_0_0663
NODE
p2338
(dp2339
g62
I0
sg63
(lp2340
(I11
I8
tp2341
a(I9
I8
tp2342
a(I10
I9
tp2343
a(I10
I7
tp2344
asg67
(lp2345
sg69
(lp2346
I0
aI0
aI0
aI0
asba(iNavigator_0_0663
NODE
p2347
(dp2348
g62
I0
sg63
(lp2349
g49
ag50
ag51
asg67
(lp2350
(I10
I10
tp2351
asg69
(lp2352
I0
aI0
aI0
aI0
asba(iNavigator_0_0663
NODE
p2353
(dp2354
g62
I0
sg63
(lp2355
g39
asg67
(lp2356
(I10
I11
tp2357
a(I11
I10
tp2358
asg69
(lp2359
I0
aI0
aI0
aI0
asba(iNavigator_0_0663
NODE
p2360
(dp2361
g62
I0
sg63
(lp2362
g25
asg67
(lp2363
(I11
I11
tp2364
asg69
(lp2365
I0
aI0
aI0
aI0
asba(iNavigator_0_0663
NODE
p2366
(dp2367
g62
I0
sg63
(lp2368
(I11
I12
tp2369
a(I9
I12
tp2370
a(I10
I13
tp2371
a(I10
I11
tp2372
asg67
(lp2373
sg69
(lp2374
I0
aI0
aI0
aI0
asba(iNavigator_0_0663
NODE
p2375
(dp2376
g62
I0
sg63
(lp2377
(I11
I13
tp2378
a(I9
I13
tp2379
a(I10
I14
tp2380
a(I10
I12
tp2381
asg67
(lp2382
sg69
(lp2383
I0
aI0
aI0
aI0
asba(iNavigator_0_0663
NODE
p2384
(dp2385
g62
I0
sg63
(lp2386
(I11
I14
tp2387
a(I9
I14
tp2388
a(I10
I15
tp2389
a(I10
I13
tp2390
asg67
(lp2391
sg69
(lp2392
I0
aI0
aI0
aI0
asba(iNavigator_0_0663
NODE
p2393
(dp2394
g62
I0
sg63
(lp2395
(I11
I15
tp2396
a(I9
I15
tp2397
a(I10
I16
tp2398
a(I10
I14
tp2399
asg67
(lp2400
sg69
(lp2401
I0
aI0
aI0
aI0
asba(iNavigator_0_0663
NODE
p2402
(dp2403
g62
I0
sg63
(lp2404
(I11
I16
tp2405
a(I9
I16
tp2406
a(I10
I17
tp2407
a(I10
I15
tp2408
asg67
(lp2409
sg69
(lp2410
I0
aI0
aI0
aI0
asba(iNavigator_0_0663
NODE
p2411
(dp2412
g62
I0
sg63
(lp2413
(I11
I17
tp2414
a(I9
I17
tp2415
a(I10
I18
tp2416
a(I10
I16
tp2417
asg67
(lp2418
sg69
(lp2419
I0
aI0
aI0
aI0
asba(iNavigator_0_0663
NODE
p2420
(dp2421
g62
I0
sg63
(lp2422
(I11
I18
tp2423
a(I9
I18
tp2424
a(I10
I19
tp2425
a(I10
I17
tp2426
asg67
(lp2427
sg69
(lp2428
I0
aI0
aI0
aI0
asba(iNavigator_0_0663
NODE
p2429
(dp2430
g62
I0
sg63
(lp2431
(I11
I19
tp2432
a(I9
I19
tp2433
a(I10
I20
tp2434
a(I10
I18
tp2435
asg67
(lp2436
sg69
(lp2437
I0
aI0
aI0
aI0
asba(iNavigator_0_0663
NODE
p2438
(dp2439
g62
I0
sg63
(lp2440
(I11
I20
tp2441
a(I9
I20
tp2442
a(I10
I21
tp2443
a(I10
I19
tp2444
asg67
(lp2445
sg69
(lp2446
I0
aI0
aI0
aI0
asba(iNavigator_0_0663
NODE
p2447
(dp2448
g62
I0
sg63
(lp2449
(I11
I21
tp2450
a(I9
I21
tp2451
a(I10
I22
tp2452
a(I10
I20
tp2453
asg67
(lp2454
sg69
(lp2455
I0
aI0
aI0
aI0
asba(iNavigator_0_0663
NODE
p2456
(dp2457
g62
I0
sg63
(lp2458
(I11
I22
tp2459
a(I9
I22
tp2460
a(I10
I23
tp2461
a(I10
I21
tp2462
asg67
(lp2463
sg69
(lp2464
I0
aI0
aI0
aI0
asba(iNavigator_0_0663
NODE
p2465
(dp2466
g62
I0
sg63
(lp2467
(I11
I23
tp2468
a(I9
I23
tp2469
a(I10
I24
tp2470
a(I10
I22
tp2471
asg67
(lp2472
sg69
(lp2473
I0
aI0
aI0
aI0
asba(iNavigator_0_0663
NODE
p2474
(dp2475
g62
I0
sg63
(lp2476
(I11
I24
tp2477
a(I9
I24
tp2478
a(I10
I23
tp2479
asg67
(lp2480
sg69
(lp2481
I0
aI0
aI0
aI0
asbaa(lp2482
(iNavigator_0_0663
NODE
p2483
(dp2484
g62
I0
sg63
(lp2485
(I12
I0
tp2486
a(I10
I0
tp2487
a(I11
I1
tp2488
asg67
(lp2489
sg69
(lp2490
I0
aI0
aI0
aI0
asba(iNavigator_0_0663
NODE
p2491
(dp2492
g62
I0
sg63
(lp2493
(I12
I1
tp2494
a(I10
I1
tp2495
a(I11
I2
tp2496
a(I11
I0
tp2497
asg67
(lp2498
sg69
(lp2499
I0
aI0
aI0
aI0
asba(iNavigator_0_0663
NODE
p2500
(dp2501
g62
I0
sg63
(lp2502
(I12
I2
tp2503
a(I10
I2
tp2504
a(I11
I3
tp2505
a(I11
I1
tp2506
asg67
(lp2507
sg69
(lp2508
I0
aI0
aI0
aI0
asba(iNavigator_0_0663
NODE
p2509
(dp2510
g62
I0
sg63
(lp2511
(I12
I3
tp2512
a(I10
I3
tp2513
a(I11
I4
tp2514
a(I11
I2
tp2515
asg67
(lp2516
sg69
(lp2517
I0
aI0
aI0
aI0
asba(iNavigator_0_0663
NODE
p2518
(dp2519
g62
I0
sg63
(lp2520
(I12
I4
tp2521
a(I10
I4
tp2522
a(I11
I5
tp2523
a(I11
I3
tp2524
asg67
(lp2525
sg69
(lp2526
I0
aI0
aI0
aI0
asba(iNavigator_0_0663
NODE
p2527
(dp2528
g62
I0
sg63
(lp2529
(I12
I5
tp2530
a(I10
I5
tp2531
a(I11
I6
tp2532
a(I11
I4
tp2533
asg67
(lp2534
sg69
(lp2535
I0
aI0
aI0
aI0
asba(iNavigator_0_0663
NODE
p2536
(dp2537
g62
I0
sg63
(lp2538
(I12
I6
tp2539
a(I10
I6
tp2540
a(I11
I7
tp2541
a(I11
I5
tp2542
asg67
(lp2543
sg69
(lp2544
I0
aI0
aI0
aI0
asba(iNavigator_0_0663
NODE
p2545
(dp2546
g62
I0
sg63
(lp2547
(I12
I7
tp2548
a(I10
I7
tp2549
a(I11
I8
tp2550
a(I11
I6
tp2551
asg67
(lp2552
sg69
(lp2553
I0
aI0
aI0
aI0
asba(iNavigator_0_0663
NODE
p2554
(dp2555
g62
I0
sg63
(lp2556
(I12
I8
tp2557
a(I10
I8
tp2558
a(I11
I9
tp2559
a(I11
I7
tp2560
asg67
(lp2561
sg69
(lp2562
I0
aI0
aI0
aI0
asba(iNavigator_0_0663
NODE
p2563
(dp2564
g62
I0
sg63
(lp2565
(I12
I9
tp2566
a(I10
I9
tp2567
a(I11
I10
tp2568
a(I11
I8
tp2569
asg67
(lp2570
sg69
(lp2571
I0
aI0
aI0
aI0
asba(iNavigator_0_0663
NODE
p2572
(dp2573
g62
I0
sg63
(lp2574
g28
ag29
asg67
(lp2575
(I11
I11
tp2576
asg69
(lp2577
I0
aI0
aI0
aI0
asba(iNavigator_0_0663
NODE
p2578
(dp2579
g62
I1
sg63
(lp2580
sg67
(lp2581
g10
asg69
(lp2582
I0
aI0
aI0
aI0
asba(iNavigator_0_0663
NODE
p2583
(dp2584
g62
I0
sg63
(lp2585
g31
ag16
asg67
(lp2586
(I12
I12
tp2587
asg69
(lp2588
I0
aI0
aI0
aI0
asba(iNavigator_0_0663
NODE
p2589
(dp2590
g62
I0
sg63
(lp2591
g40
ag41
ag42
asg67
(lp2592
(I12
I13
tp2593
asg69
(lp2594
I0
aI0
aI0
aI0
asba(iNavigator_0_0663
NODE
p2595
(dp2596
g62
I0
sg63
(lp2597
(I12
I14
tp2598
a(I10
I14
tp2599
a(I11
I15
tp2600
a(I11
I13
tp2601
asg67
(lp2602
sg69
(lp2603
I0
aI0
aI0
aI0
asba(iNavigator_0_0663
NODE
p2604
(dp2605
g62
I0
sg63
(lp2606
(I12
I15
tp2607
a(I10
I15
tp2608
a(I11
I16
tp2609
a(I11
I14
tp2610
asg67
(lp2611
sg69
(lp2612
I0
aI0
aI0
aI0
asba(iNavigator_0_0663
NODE
p2613
(dp2614
g62
I0
sg63
(lp2615
(I12
I16
tp2616
a(I10
I16
tp2617
a(I11
I17
tp2618
a(I11
I15
tp2619
asg67
(lp2620
sg69
(lp2621
I0
aI0
aI0
aI0
asba(iNavigator_0_0663
NODE
p2622
(dp2623
g62
I0
sg63
(lp2624
(I12
I17
tp2625
a(I10
I17
tp2626
a(I11
I18
tp2627
a(I11
I16
tp2628
asg67
(lp2629
sg69
(lp2630
I0
aI0
aI0
aI0
asba(iNavigator_0_0663
NODE
p2631
(dp2632
g62
I0
sg63
(lp2633
(I12
I18
tp2634
a(I10
I18
tp2635
a(I11
I19
tp2636
a(I11
I17
tp2637
asg67
(lp2638
sg69
(lp2639
I0
aI0
aI0
aI0
asba(iNavigator_0_0663
NODE
p2640
(dp2641
g62
I0
sg63
(lp2642
(I12
I19
tp2643
a(I10
I19
tp2644
a(I11
I20
tp2645
a(I11
I18
tp2646
asg67
(lp2647
sg69
(lp2648
I0
aI0
aI0
aI0
asba(iNavigator_0_0663
NODE
p2649
(dp2650
g62
I0
sg63
(lp2651
(I12
I20
tp2652
a(I10
I20
tp2653
a(I11
I21
tp2654
a(I11
I19
tp2655
asg67
(lp2656
sg69
(lp2657
I0
aI0
aI0
aI0
asba(iNavigator_0_0663
NODE
p2658
(dp2659
g62
I0
sg63
(lp2660
(I12
I21
tp2661
a(I10
I21
tp2662
a(I11
I22
tp2663
a(I11
I20
tp2664
asg67
(lp2665
sg69
(lp2666
I0
aI0
aI0
aI0
asba(iNavigator_0_0663
NODE
p2667
(dp2668
g62
I0
sg63
(lp2669
(I12
I22
tp2670
a(I10
I22
tp2671
a(I11
I23
tp2672
a(I11
I21
tp2673
asg67
(lp2674
sg69
(lp2675
I0
aI0
aI0
aI0
asba(iNavigator_0_0663
NODE
p2676
(dp2677
g62
I0
sg63
(lp2678
(I12
I23
tp2679
a(I10
I23
tp2680
a(I11
I24
tp2681
a(I11
I22
tp2682
asg67
(lp2683
sg69
(lp2684
I0
aI0
aI0
aI0
asba(iNavigator_0_0663
NODE
p2685
(dp2686
g62
I0
sg63
(lp2687
(I12
I24
tp2688
a(I10
I24
tp2689
a(I11
I23
tp2690
asg67
(lp2691
sg69
(lp2692
I0
aI0
aI0
aI0
asbaa(lp2693
(iNavigator_0_0663
NODE
p2694
(dp2695
g62
I0
sg63
(lp2696
(I13
I0
tp2697
a(I11
I0
tp2698
a(I12
I1
tp2699
asg67
(lp2700
sg69
(lp2701
I0
aI0
aI0
aI0
asba(iNavigator_0_0663
NODE
p2702
(dp2703
g62
I0
sg63
(lp2704
(I13
I1
tp2705
a(I11
I1
tp2706
a(I12
I2
tp2707
a(I12
I0
tp2708
asg67
(lp2709
sg69
(lp2710
I0
aI0
aI0
aI0
asba(iNavigator_0_0663
NODE
p2711
(dp2712
g62
I0
sg63
(lp2713
(I13
I2
tp2714
a(I11
I2
tp2715
a(I12
I3
tp2716
a(I12
I1
tp2717
asg67
(lp2718
sg69
(lp2719
I0
aI0
aI0
aI0
asba(iNavigator_0_0663
NODE
p2720
(dp2721
g62
I0
sg63
(lp2722
(I13
I3
tp2723
a(I11
I3
tp2724
a(I12
I4
tp2725
a(I12
I2
tp2726
asg67
(lp2727
sg69
(lp2728
I0
aI0
aI0
aI0
asba(iNavigator_0_0663
NODE
p2729
(dp2730
g62
I0
sg63
(lp2731
(I13
I4
tp2732
a(I11
I4
tp2733
a(I12
I5
tp2734
a(I12
I3
tp2735
asg67
(lp2736
sg69
(lp2737
I0
aI0
aI0
aI0
asba(iNavigator_0_0663
NODE
p2738
(dp2739
g62
I0
sg63
(lp2740
(I13
I5
tp2741
a(I11
I5
tp2742
a(I12
I6
tp2743
a(I12
I4
tp2744
asg67
(lp2745
sg69
(lp2746
I0
aI0
aI0
aI0
asba(iNavigator_0_0663
NODE
p2747
(dp2748
g62
I0
sg63
(lp2749
(I13
I6
tp2750
a(I11
I6
tp2751
a(I12
I7
tp2752
a(I12
I5
tp2753
asg67
(lp2754
sg69
(lp2755
I0
aI0
aI0
aI0
asba(iNavigator_0_0663
NODE
p2756
(dp2757
g62
I0
sg63
(lp2758
(I13
I7
tp2759
a(I11
I7
tp2760
a(I12
I8
tp2761
a(I12
I6
tp2762
asg67
(lp2763
sg69
(lp2764
I0
aI0
aI0
aI0
asba(iNavigator_0_0663
NODE
p2765
(dp2766
g62
I0
sg63
(lp2767
(I13
I8
tp2768
a(I11
I8
tp2769
a(I12
I9
tp2770
a(I12
I7
tp2771
asg67
(lp2772
sg69
(lp2773
I0
aI0
aI0
aI0
asba(iNavigator_0_0663
NODE
p2774
(dp2775
g62
I0
sg63
(lp2776
(I13
I9
tp2777
a(I11
I9
tp2778
a(I12
I10
tp2779
a(I12
I8
tp2780
asg67
(lp2781
sg69
(lp2782
I0
aI0
aI0
aI0
asba(iNavigator_0_0663
NODE
p2783
(dp2784
g62
I0
sg63
(lp2785
(I13
I10
tp2786
a(I11
I10
tp2787
a(I12
I11
tp2788
a(I12
I9
tp2789
asg67
(lp2790
sg69
(lp2791
I0
aI0
aI0
aI0
asba(iNavigator_0_0663
NODE
p2792
(dp2793
g62
I0
sg63
(lp2794
g26
ag27
asg67
(lp2795
(I11
I11
tp2796
asg69
(lp2797
I0
aI0
aI0
aI0
asba(iNavigator_0_0663
NODE
p2798
(dp2799
g62
I0
sg63
(lp2800
sg67
(lp2801
(I12
I11
tp2802
a(I13
I12
tp2803
asg69
(lp2804
I0
aI0
aI0
aI0
asba(iNavigator_0_0663
NODE
p2805
(dp2806
g62
I0
sg63
(lp2807
g32
asg67
(lp2808
(I12
I12
tp2809
asg69
(lp2810
I0
aI0
aI0
aI0
asba(iNavigator_0_0663
NODE
p2811
(dp2812
g62
I0
sg63
(lp2813
(I13
I14
tp2814
a(I11
I14
tp2815
a(I12
I15
tp2816
a(I12
I13
tp2817
asg67
(lp2818
sg69
(lp2819
I0
aI0
aI0
aI0
asba(iNavigator_0_0663
NODE
p2820
(dp2821
g62
I0
sg63
(lp2822
(I13
I15
tp2823
a(I11
I15
tp2824
a(I12
I16
tp2825
a(I12
I14
tp2826
asg67
(lp2827
sg69
(lp2828
I0
aI0
aI0
aI0
asba(iNavigator_0_0663
NODE
p2829
(dp2830
g62
I0
sg63
(lp2831
(I13
I16
tp2832
a(I11
I16
tp2833
a(I12
I17
tp2834
a(I12
I15
tp2835
asg67
(lp2836
sg69
(lp2837
I0
aI0
aI0
aI0
asba(iNavigator_0_0663
NODE
p2838
(dp2839
g62
I0
sg63
(lp2840
(I13
I17
tp2841
a(I11
I17
tp2842
a(I12
I18
tp2843
a(I12
I16
tp2844
asg67
(lp2845
sg69
(lp2846
I0
aI0
aI0
aI0
asba(iNavigator_0_0663
NODE
p2847
(dp2848
g62
I0
sg63
(lp2849
(I13
I18
tp2850
a(I11
I18
tp2851
a(I12
I19
tp2852
a(I12
I17
tp2853
asg67
(lp2854
sg69
(lp2855
I0
aI0
aI0
aI0
asba(iNavigator_0_0663
NODE
p2856
(dp2857
g62
I0
sg63
(lp2858
(I13
I19
tp2859
a(I11
I19
tp2860
a(I12
I20
tp2861
a(I12
I18
tp2862
asg67
(lp2863
sg69
(lp2864
I0
aI0
aI0
aI0
asba(iNavigator_0_0663
NODE
p2865
(dp2866
g62
I0
sg63
(lp2867
(I13
I20
tp2868
a(I11
I20
tp2869
a(I12
I21
tp2870
a(I12
I19
tp2871
asg67
(lp2872
sg69
(lp2873
I0
aI0
aI0
aI0
asba(iNavigator_0_0663
NODE
p2874
(dp2875
g62
I0
sg63
(lp2876
(I13
I21
tp2877
a(I11
I21
tp2878
a(I12
I22
tp2879
a(I12
I20
tp2880
asg67
(lp2881
sg69
(lp2882
I0
aI0
aI0
aI0
asba(iNavigator_0_0663
NODE
p2883
(dp2884
g62
I0
sg63
(lp2885
(I13
I22
tp2886
a(I11
I22
tp2887
a(I12
I23
tp2888
a(I12
I21
tp2889
asg67
(lp2890
sg69
(lp2891
I0
aI0
aI0
aI0
asba(iNavigator_0_0663
NODE
p2892
(dp2893
g62
I0
sg63
(lp2894
(I13
I23
tp2895
a(I11
I23
tp2896
a(I12
I24
tp2897
a(I12
I22
tp2898
asg67
(lp2899
sg69
(lp2900
I0
aI0
aI0
aI0
asba(iNavigator_0_0663
NODE
p2901
(dp2902
g62
I0
sg63
(lp2903
(I13
I24
tp2904
a(I11
I24
tp2905
a(I12
I23
tp2906
asg67
(lp2907
sg69
(lp2908
I0
aI0
aI0
aI0
asbaa(lp2909
(iNavigator_0_0663
NODE
p2910
(dp2911
g62
I0
sg63
(lp2912
(I14
I0
tp2913
a(I12
I0
tp2914
a(I13
I1
tp2915
asg67
(lp2916
sg69
(lp2917
I0
aI0
aI0
aI0
asba(iNavigator_0_0663
NODE
p2918
(dp2919
g62
I0
sg63
(lp2920
(I14
I1
tp2921
a(I12
I1
tp2922
a(I13
I2
tp2923
a(I13
I0
tp2924
asg67
(lp2925
sg69
(lp2926
I0
aI0
aI0
aI0
asba(iNavigator_0_0663
NODE
p2927
(dp2928
g62
I0
sg63
(lp2929
(I14
I2
tp2930
a(I12
I2
tp2931
a(I13
I3
tp2932
a(I13
I1
tp2933
asg67
(lp2934
sg69
(lp2935
I0
aI0
aI0
aI0
asba(iNavigator_0_0663
NODE
p2936
(dp2937
g62
I0
sg63
(lp2938
(I14
I3
tp2939
a(I12
I3
tp2940
a(I13
I4
tp2941
a(I13
I2
tp2942
asg67
(lp2943
sg69
(lp2944
I0
aI0
aI0
aI0
asba(iNavigator_0_0663
NODE
p2945
(dp2946
g62
I0
sg63
(lp2947
(I14
I4
tp2948
a(I12
I4
tp2949
a(I13
I5
tp2950
a(I13
I3
tp2951
asg67
(lp2952
sg69
(lp2953
I0
aI0
aI0
aI0
asba(iNavigator_0_0663
NODE
p2954
(dp2955
g62
I0
sg63
(lp2956
(I14
I5
tp2957
a(I12
I5
tp2958
a(I13
I6
tp2959
a(I13
I4
tp2960
asg67
(lp2961
sg69
(lp2962
I0
aI0
aI0
aI0
asba(iNavigator_0_0663
NODE
p2963
(dp2964
g62
I0
sg63
(lp2965
(I14
I6
tp2966
a(I12
I6
tp2967
a(I13
I7
tp2968
a(I13
I5
tp2969
asg67
(lp2970
sg69
(lp2971
I0
aI0
aI0
aI0
asba(iNavigator_0_0663
NODE
p2972
(dp2973
g62
I0
sg63
(lp2974
(I14
I7
tp2975
a(I12
I7
tp2976
a(I13
I8
tp2977
a(I13
I6
tp2978
asg67
(lp2979
sg69
(lp2980
I0
aI0
aI0
aI0
asba(iNavigator_0_0663
NODE
p2981
(dp2982
g62
I0
sg63
(lp2983
(I14
I8
tp2984
a(I12
I8
tp2985
a(I13
I9
tp2986
a(I13
I7
tp2987
asg67
(lp2988
sg69
(lp2989
I0
aI0
aI0
aI0
asba(iNavigator_0_0663
NODE
p2990
(dp2991
g62
I0
sg63
(lp2992
(I14
I9
tp2993
a(I12
I9
tp2994
a(I13
I10
tp2995
a(I13
I8
tp2996
asg67
(lp2997
sg69
(lp2998
I0
aI0
aI0
aI0
asba(iNavigator_0_0663
NODE
p2999
(dp3000
g62
I0
sg63
(lp3001
(I14
I10
tp3002
a(I12
I10
tp3003
a(I13
I11
tp3004
a(I13
I9
tp3005
asg67
(lp3006
sg69
(lp3007
I0
aI0
aI0
aI0
asba(iNavigator_0_0663
NODE
p3008
(dp3009
g62
I0
sg63
(lp3010
g52
ag53
ag54
asg67
(lp3011
(I13
I12
tp3012
asg69
(lp3013
I0
aI0
aI0
aI0
asba(iNavigator_0_0663
NODE
p3014
(dp3015
g62
I0
sg63
(lp3016
g43
asg67
(lp3017
(I13
I13
tp3018
asg69
(lp3019
I0
aI0
aI0
aI0
asba(iNavigator_0_0663
NODE
p3020
(dp3021
g62
I0
sg63
(lp3022
g33
asg67
(lp3023
(I12
I13
tp3024
asg69
(lp3025
I0
aI0
aI0
aI0
asba(iNavigator_0_0663
NODE
p3026
(dp3027
g62
I0
sg63
(lp3028
(I14
I14
tp3029
a(I12
I14
tp3030
a(I13
I15
tp3031
a(I13
I13
tp3032
asg67
(lp3033
sg69
(lp3034
I0
aI0
aI0
aI0
asba(iNavigator_0_0663
NODE
p3035
(dp3036
g62
I0
sg63
(lp3037
(I14
I15
tp3038
a(I12
I15
tp3039
a(I13
I16
tp3040
a(I13
I14
tp3041
asg67
(lp3042
sg69
(lp3043
I0
aI0
aI0
aI0
asba(iNavigator_0_0663
NODE
p3044
(dp3045
g62
I0
sg63
(lp3046
(I14
I16
tp3047
a(I12
I16
tp3048
a(I13
I17
tp3049
a(I13
I15
tp3050
asg67
(lp3051
sg69
(lp3052
I0
aI0
aI0
aI0
asba(iNavigator_0_0663
NODE
p3053
(dp3054
g62
I0
sg63
(lp3055
(I14
I17
tp3056
a(I12
I17
tp3057
a(I13
I18
tp3058
a(I13
I16
tp3059
asg67
(lp3060
sg69
(lp3061
I0
aI0
aI0
aI0
asba(iNavigator_0_0663
NODE
p3062
(dp3063
g62
I0
sg63
(lp3064
(I14
I18
tp3065
a(I12
I18
tp3066
a(I13
I19
tp3067
a(I13
I17
tp3068
asg67
(lp3069
sg69
(lp3070
I0
aI0
aI0
aI0
asba(iNavigator_0_0663
NODE
p3071
(dp3072
g62
I0
sg63
(lp3073
(I14
I19
tp3074
a(I12
I19
tp3075
a(I13
I20
tp3076
a(I13
I18
tp3077
asg67
(lp3078
sg69
(lp3079
I0
aI0
aI0
aI0
asba(iNavigator_0_0663
NODE
p3080
(dp3081
g62
I0
sg63
(lp3082
(I14
I20
tp3083
a(I12
I20
tp3084
a(I13
I21
tp3085
a(I13
I19
tp3086
asg67
(lp3087
sg69
(lp3088
I0
aI0
aI0
aI0
asba(iNavigator_0_0663
NODE
p3089
(dp3090
g62
I0
sg63
(lp3091
(I14
I21
tp3092
a(I12
I21
tp3093
a(I13
I22
tp3094
a(I13
I20
tp3095
asg67
(lp3096
sg69
(lp3097
I0
aI0
aI0
aI0
asba(iNavigator_0_0663
NODE
p3098
(dp3099
g62
I0
sg63
(lp3100
(I14
I22
tp3101
a(I12
I22
tp3102
a(I13
I23
tp3103
a(I13
I21
tp3104
asg67
(lp3105
sg69
(lp3106
I0
aI0
aI0
aI0
asba(iNavigator_0_0663
NODE
p3107
(dp3108
g62
I0
sg63
(lp3109
(I14
I23
tp3110
a(I12
I23
tp3111
a(I13
I24
tp3112
a(I13
I22
tp3113
asg67
(lp3114
sg69
(lp3115
I0
aI0
aI0
aI0
asba(iNavigator_0_0663
NODE
p3116
(dp3117
g62
I0
sg63
(lp3118
(I14
I24
tp3119
a(I12
I24
tp3120
a(I13
I23
tp3121
asg67
(lp3122
sg69
(lp3123
I0
aI0
aI0
aI0
asbaa(lp3124
(iNavigator_0_0663
NODE
p3125
(dp3126
g62
I0
sg63
(lp3127
(I15
I0
tp3128
a(I13
I0
tp3129
a(I14
I1
tp3130
asg67
(lp3131
sg69
(lp3132
I0
aI0
aI0
aI0
asba(iNavigator_0_0663
NODE
p3133
(dp3134
g62
I0
sg63
(lp3135
(I15
I1
tp3136
a(I13
I1
tp3137
a(I14
I2
tp3138
a(I14
I0
tp3139
asg67
(lp3140
sg69
(lp3141
I0
aI0
aI0
aI0
asba(iNavigator_0_0663
NODE
p3142
(dp3143
g62
I0
sg63
(lp3144
(I15
I2
tp3145
a(I13
I2
tp3146
a(I14
I3
tp3147
a(I14
I1
tp3148
asg67
(lp3149
sg69
(lp3150
I0
aI0
aI0
aI0
asba(iNavigator_0_0663
NODE
p3151
(dp3152
g62
I0
sg63
(lp3153
(I15
I3
tp3154
a(I13
I3
tp3155
a(I14
I4
tp3156
a(I14
I2
tp3157
asg67
(lp3158
sg69
(lp3159
I0
aI0
aI0
aI0
asba(iNavigator_0_0663
NODE
p3160
(dp3161
g62
I0
sg63
(lp3162
(I15
I4
tp3163
a(I13
I4
tp3164
a(I14
I5
tp3165
a(I14
I3
tp3166
asg67
(lp3167
sg69
(lp3168
I0
aI0
aI0
aI0
asba(iNavigator_0_0663
NODE
p3169
(dp3170
g62
I0
sg63
(lp3171
(I15
I5
tp3172
a(I13
I5
tp3173
a(I14
I6
tp3174
a(I14
I4
tp3175
asg67
(lp3176
sg69
(lp3177
I0
aI0
aI0
aI0
asba(iNavigator_0_0663
NODE
p3178
(dp3179
g62
I0
sg63
(lp3180
(I15
I6
tp3181
a(I13
I6
tp3182
a(I14
I7
tp3183
a(I14
I5
tp3184
asg67
(lp3185
sg69
(lp3186
I0
aI0
aI0
aI0
asba(iNavigator_0_0663
NODE
p3187
(dp3188
g62
I0
sg63
(lp3189
(I15
I7
tp3190
a(I13
I7
tp3191
a(I14
I8
tp3192
a(I14
I6
tp3193
asg67
(lp3194
sg69
(lp3195
I0
aI0
aI0
aI0
asba(iNavigator_0_0663
NODE
p3196
(dp3197
g62
I0
sg63
(lp3198
(I15
I8
tp3199
a(I13
I8
tp3200
a(I14
I9
tp3201
a(I14
I7
tp3202
asg67
(lp3203
sg69
(lp3204
I0
aI0
aI0
aI0
asba(iNavigator_0_0663
NODE
p3205
(dp3206
g62
I0
sg63
(lp3207
(I15
I9
tp3208
a(I13
I9
tp3209
a(I14
I10
tp3210
a(I14
I8
tp3211
asg67
(lp3212
sg69
(lp3213
I0
aI0
aI0
aI0
asba(iNavigator_0_0663
NODE
p3214
(dp3215
g62
I0
sg63
(lp3216
(I15
I10
tp3217
a(I13
I10
tp3218
a(I14
I11
tp3219
a(I14
I9
tp3220
asg67
(lp3221
sg69
(lp3222
I0
aI0
aI0
aI0
asba(iNavigator_0_0663
NODE
p3223
(dp3224
g62
I0
sg63
(lp3225
(I15
I11
tp3226
a(I13
I11
tp3227
a(I14
I12
tp3228
a(I14
I10
tp3229
asg67
(lp3230
sg69
(lp3231
I0
aI0
aI0
aI0
asba(iNavigator_0_0663
NODE
p3232
(dp3233
g62
I0
sg63
(lp3234
(I15
I12
tp3235
a(I13
I12
tp3236
a(I14
I13
tp3237
a(I14
I11
tp3238
asg67
(lp3239
sg69
(lp3240
I0
aI0
aI0
aI0
asba(iNavigator_0_0663
NODE
p3241
(dp3242
g62
I0
sg63
(lp3243
g34
ag35
ag36
asg67
(lp3244
(I13
I13
tp3245
asg69
(lp3246
I0
aI0
aI0
aI0
asba(iNavigator_0_0663
NODE
p3247
(dp3248
g62
I0
sg63
(lp3249
(I15
I14
tp3250
a(I13
I14
tp3251
a(I14
I15
tp3252
a(I14
I13
tp3253
asg67
(lp3254
sg69
(lp3255
I0
aI0
aI0
aI0
asba(iNavigator_0_0663
NODE
p3256
(dp3257
g62
I0
sg63
(lp3258
(I15
I15
tp3259
a(I13
I15
tp3260
a(I14
I16
tp3261
a(I14
I14
tp3262
asg67
(lp3263
sg69
(lp3264
I0
aI0
aI0
aI0
asba(iNavigator_0_0663
NODE
p3265
(dp3266
g62
I0
sg63
(lp3267
(I15
I16
tp3268
a(I13
I16
tp3269
a(I14
I17
tp3270
a(I14
I15
tp3271
asg67
(lp3272
sg69
(lp3273
I0
aI0
aI0
aI0
asba(iNavigator_0_0663
NODE
p3274
(dp3275
g62
I0
sg63
(lp3276
(I15
I17
tp3277
a(I13
I17
tp3278
a(I14
I18
tp3279
a(I14
I16
tp3280
asg67
(lp3281
sg69
(lp3282
I0
aI0
aI0
aI0
asba(iNavigator_0_0663
NODE
p3283
(dp3284
g62
I0
sg63
(lp3285
(I15
I18
tp3286
a(I13
I18
tp3287
a(I14
I19
tp3288
a(I14
I17
tp3289
asg67
(lp3290
sg69
(lp3291
I0
aI0
aI0
aI0
asba(iNavigator_0_0663
NODE
p3292
(dp3293
g62
I0
sg63
(lp3294
(I15
I19
tp3295
a(I13
I19
tp3296
a(I14
I20
tp3297
a(I14
I18
tp3298
asg67
(lp3299
sg69
(lp3300
I0
aI0
aI0
aI0
asba(iNavigator_0_0663
NODE
p3301
(dp3302
g62
I0
sg63
(lp3303
(I15
I20
tp3304
a(I13
I20
tp3305
a(I14
I21
tp3306
a(I14
I19
tp3307
asg67
(lp3308
sg69
(lp3309
I0
aI0
aI0
aI0
asba(iNavigator_0_0663
NODE
p3310
(dp3311
g62
I0
sg63
(lp3312
(I15
I21
tp3313
a(I13
I21
tp3314
a(I14
I22
tp3315
a(I14
I20
tp3316
asg67
(lp3317
sg69
(lp3318
I0
aI0
aI0
aI0
asba(iNavigator_0_0663
NODE
p3319
(dp3320
g62
I0
sg63
(lp3321
(I15
I22
tp3322
a(I13
I22
tp3323
a(I14
I23
tp3324
a(I14
I21
tp3325
asg67
(lp3326
sg69
(lp3327
I0
aI0
aI0
aI0
asba(iNavigator_0_0663
NODE
p3328
(dp3329
g62
I0
sg63
(lp3330
(I15
I23
tp3331
a(I13
I23
tp3332
a(I14
I24
tp3333
a(I14
I22
tp3334
asg67
(lp3335
sg69
(lp3336
I0
aI0
aI0
aI0
asba(iNavigator_0_0663
NODE
p3337
(dp3338
g62
I0
sg63
(lp3339
(I15
I24
tp3340
a(I13
I24
tp3341
a(I14
I23
tp3342
asg67
(lp3343
sg69
(lp3344
I0
aI0
aI0
aI0
asbaa(lp3345
(iNavigator_0_0663
NODE
p3346
(dp3347
g62
I0
sg63
(lp3348
(I16
I0
tp3349
a(I14
I0
tp3350
a(I15
I1
tp3351
asg67
(lp3352
sg69
(lp3353
I0
aI0
aI0
aI0
asba(iNavigator_0_0663
NODE
p3354
(dp3355
g62
I0
sg63
(lp3356
(I16
I1
tp3357
a(I14
I1
tp3358
a(I15
I2
tp3359
a(I15
I0
tp3360
asg67
(lp3361
sg69
(lp3362
I0
aI0
aI0
aI0
asba(iNavigator_0_0663
NODE
p3363
(dp3364
g62
I0
sg63
(lp3365
(I16
I2
tp3366
a(I14
I2
tp3367
a(I15
I3
tp3368
a(I15
I1
tp3369
asg67
(lp3370
sg69
(lp3371
I0
aI0
aI0
aI0
asba(iNavigator_0_0663
NODE
p3372
(dp3373
g62
I0
sg63
(lp3374
(I16
I3
tp3375
a(I14
I3
tp3376
a(I15
I4
tp3377
a(I15
I2
tp3378
asg67
(lp3379
sg69
(lp3380
I0
aI0
aI0
aI0
asba(iNavigator_0_0663
NODE
p3381
(dp3382
g62
I0
sg63
(lp3383
(I16
I4
tp3384
a(I14
I4
tp3385
a(I15
I5
tp3386
a(I15
I3
tp3387
asg67
(lp3388
sg69
(lp3389
I0
aI0
aI0
aI0
asba(iNavigator_0_0663
NODE
p3390
(dp3391
g62
I0
sg63
(lp3392
(I16
I5
tp3393
a(I14
I5
tp3394
a(I15
I6
tp3395
a(I15
I4
tp3396
asg67
(lp3397
sg69
(lp3398
I0
aI0
aI0
aI0
asba(iNavigator_0_0663
NODE
p3399
(dp3400
g62
I0
sg63
(lp3401
(I16
I6
tp3402
a(I14
I6
tp3403
a(I15
I7
tp3404
a(I15
I5
tp3405
asg67
(lp3406
sg69
(lp3407
I0
aI0
aI0
aI0
asba(iNavigator_0_0663
NODE
p3408
(dp3409
g62
I0
sg63
(lp3410
(I16
I7
tp3411
a(I14
I7
tp3412
a(I15
I8
tp3413
a(I15
I6
tp3414
asg67
(lp3415
sg69
(lp3416
I0
aI0
aI0
aI0
asba(iNavigator_0_0663
NODE
p3417
(dp3418
g62
I0
sg63
(lp3419
(I16
I8
tp3420
a(I14
I8
tp3421
a(I15
I9
tp3422
a(I15
I7
tp3423
asg67
(lp3424
sg69
(lp3425
I0
aI0
aI0
aI0
asba(iNavigator_0_0663
NODE
p3426
(dp3427
g62
I0
sg63
(lp3428
(I16
I9
tp3429
a(I14
I9
tp3430
a(I15
I10
tp3431
a(I15
I8
tp3432
asg67
(lp3433
sg69
(lp3434
I0
aI0
aI0
aI0
asba(iNavigator_0_0663
NODE
p3435
(dp3436
g62
I0
sg63
(lp3437
(I16
I10
tp3438
a(I14
I10
tp3439
a(I15
I11
tp3440
a(I15
I9
tp3441
asg67
(lp3442
sg69
(lp3443
I0
aI0
aI0
aI0
asba(iNavigator_0_0663
NODE
p3444
(dp3445
g62
I0
sg63
(lp3446
(I16
I11
tp3447
a(I14
I11
tp3448
a(I15
I12
tp3449
a(I15
I10
tp3450
asg67
(lp3451
sg69
(lp3452
I0
aI0
aI0
aI0
asba(iNavigator_0_0663
NODE
p3453
(dp3454
g62
I0
sg63
(lp3455
(I16
I12
tp3456
a(I14
I12
tp3457
a(I15
I13
tp3458
a(I15
I11
tp3459
asg67
(lp3460
sg69
(lp3461
I0
aI0
aI0
aI0
asba(iNavigator_0_0663
NODE
p3462
(dp3463
g62
I0
sg63
(lp3464
(I16
I13
tp3465
a(I14
I13
tp3466
a(I15
I14
tp3467
a(I15
I12
tp3468
asg67
(lp3469
sg69
(lp3470
I0
aI0
aI0
aI0
asba(iNavigator_0_0663
NODE
p3471
(dp3472
g62
I0
sg63
(lp3473
(I16
I14
tp3474
a(I14
I14
tp3475
a(I15
I15
tp3476
a(I15
I13
tp3477
asg67
(lp3478
sg69
(lp3479
I0
aI0
aI0
aI0
asba(iNavigator_0_0663
NODE
p3480
(dp3481
g62
I0
sg63
(lp3482
(I16
I15
tp3483
a(I14
I15
tp3484
a(I15
I16
tp3485
a(I15
I14
tp3486
asg67
(lp3487
sg69
(lp3488
I0
aI0
aI0
aI0
asba(iNavigator_0_0663
NODE
p3489
(dp3490
g62
I0
sg63
(lp3491
(I16
I16
tp3492
a(I14
I16
tp3493
a(I15
I17
tp3494
a(I15
I15
tp3495
asg67
(lp3496
sg69
(lp3497
I0
aI0
aI0
aI0
asba(iNavigator_0_0663
NODE
p3498
(dp3499
g62
I0
sg63
(lp3500
(I16
I17
tp3501
a(I14
I17
tp3502
a(I15
I18
tp3503
a(I15
I16
tp3504
asg67
(lp3505
sg69
(lp3506
I0
aI0
aI0
aI0
asba(iNavigator_0_0663
NODE
p3507
(dp3508
g62
I0
sg63
(lp3509
(I16
I18
tp3510
a(I14
I18
tp3511
a(I15
I19
tp3512
a(I15
I17
tp3513
asg67
(lp3514
sg69
(lp3515
I0
aI0
aI0
aI0
asba(iNavigator_0_0663
NODE
p3516
(dp3517
g62
I0
sg63
(lp3518
(I16
I19
tp3519
a(I14
I19
tp3520
a(I15
I20
tp3521
a(I15
I18
tp3522
asg67
(lp3523
sg69
(lp3524
I0
aI0
aI0
aI0
asba(iNavigator_0_0663
NODE
p3525
(dp3526
g62
I0
sg63
(lp3527
(I16
I20
tp3528
a(I14
I20
tp3529
a(I15
I21
tp3530
a(I15
I19
tp3531
asg67
(lp3532
sg69
(lp3533
I0
aI0
aI0
aI0
asba(iNavigator_0_0663
NODE
p3534
(dp3535
g62
I0
sg63
(lp3536
(I16
I21
tp3537
a(I14
I21
tp3538
a(I15
I22
tp3539
a(I15
I20
tp3540
asg67
(lp3541
sg69
(lp3542
I0
aI0
aI0
aI0
asba(iNavigator_0_0663
NODE
p3543
(dp3544
g62
I0
sg63
(lp3545
(I16
I22
tp3546
a(I14
I22
tp3547
a(I15
I23
tp3548
a(I15
I21
tp3549
asg67
(lp3550
sg69
(lp3551
I0
aI0
aI0
aI0
asba(iNavigator_0_0663
NODE
p3552
(dp3553
g62
I0
sg63
(lp3554
(I16
I23
tp3555
a(I14
I23
tp3556
a(I15
I24
tp3557
a(I15
I22
tp3558
asg67
(lp3559
sg69
(lp3560
I0
aI0
aI0
aI0
asba(iNavigator_0_0663
NODE
p3561
(dp3562
g62
I0
sg63
(lp3563
(I16
I24
tp3564
a(I14
I24
tp3565
a(I15
I23
tp3566
asg67
(lp3567
sg69
(lp3568
I0
aI0
aI0
aI0
asbaa(lp3569
(iNavigator_0_0663
NODE
p3570
(dp3571
g62
I0
sg63
(lp3572
(I17
I0
tp3573
a(I15
I0
tp3574
a(I16
I1
tp3575
asg67
(lp3576
sg69
(lp3577
I0
aI0
aI0
aI0
asba(iNavigator_0_0663
NODE
p3578
(dp3579
g62
I0
sg63
(lp3580
(I17
I1
tp3581
a(I15
I1
tp3582
a(I16
I2
tp3583
a(I16
I0
tp3584
asg67
(lp3585
sg69
(lp3586
I0
aI0
aI0
aI0
asba(iNavigator_0_0663
NODE
p3587
(dp3588
g62
I0
sg63
(lp3589
(I17
I2
tp3590
a(I15
I2
tp3591
a(I16
I3
tp3592
a(I16
I1
tp3593
asg67
(lp3594
sg69
(lp3595
I0
aI0
aI0
aI0
asba(iNavigator_0_0663
NODE
p3596
(dp3597
g62
I0
sg63
(lp3598
(I17
I3
tp3599
a(I15
I3
tp3600
a(I16
I4
tp3601
a(I16
I2
tp3602
asg67
(lp3603
sg69
(lp3604
I0
aI0
aI0
aI0
asba(iNavigator_0_0663
NODE
p3605
(dp3606
g62
I0
sg63
(lp3607
(I17
I4
tp3608
a(I15
I4
tp3609
a(I16
I5
tp3610
a(I16
I3
tp3611
asg67
(lp3612
sg69
(lp3613
I0
aI0
aI0
aI0
asba(iNavigator_0_0663
NODE
p3614
(dp3615
g62
I0
sg63
(lp3616
(I17
I5
tp3617
a(I15
I5
tp3618
a(I16
I6
tp3619
a(I16
I4
tp3620
asg67
(lp3621
sg69
(lp3622
I0
aI0
aI0
aI0
asba(iNavigator_0_0663
NODE
p3623
(dp3624
g62
I0
sg63
(lp3625
(I17
I6
tp3626
a(I15
I6
tp3627
a(I16
I7
tp3628
a(I16
I5
tp3629
asg67
(lp3630
sg69
(lp3631
I0
aI0
aI0
aI0
asba(iNavigator_0_0663
NODE
p3632
(dp3633
g62
I0
sg63
(lp3634
(I17
I7
tp3635
a(I15
I7
tp3636
a(I16
I8
tp3637
a(I16
I6
tp3638
asg67
(lp3639
sg69
(lp3640
I0
aI0
aI0
aI0
asba(iNavigator_0_0663
NODE
p3641
(dp3642
g62
I0
sg63
(lp3643
(I17
I8
tp3644
a(I15
I8
tp3645
a(I16
I9
tp3646
a(I16
I7
tp3647
asg67
(lp3648
sg69
(lp3649
I0
aI0
aI0
aI0
asba(iNavigator_0_0663
NODE
p3650
(dp3651
g62
I0
sg63
(lp3652
(I17
I9
tp3653
a(I15
I9
tp3654
a(I16
I10
tp3655
a(I16
I8
tp3656
asg67
(lp3657
sg69
(lp3658
I0
aI0
aI0
aI0
asba(iNavigator_0_0663
NODE
p3659
(dp3660
g62
I0
sg63
(lp3661
(I17
I10
tp3662
a(I15
I10
tp3663
a(I16
I11
tp3664
a(I16
I9
tp3665
asg67
(lp3666
sg69
(lp3667
I0
aI0
aI0
aI0
asba(iNavigator_0_0663
NODE
p3668
(dp3669
g62
I0
sg63
(lp3670
(I17
I11
tp3671
a(I15
I11
tp3672
a(I16
I12
tp3673
a(I16
I10
tp3674
asg67
(lp3675
sg69
(lp3676
I0
aI0
aI0
aI0
asba(iNavigator_0_0663
NODE
p3677
(dp3678
g62
I0
sg63
(lp3679
(I17
I12
tp3680
a(I15
I12
tp3681
a(I16
I13
tp3682
a(I16
I11
tp3683
asg67
(lp3684
sg69
(lp3685
I0
aI0
aI0
aI0
asba(iNavigator_0_0663
NODE
p3686
(dp3687
g62
I0
sg63
(lp3688
(I17
I13
tp3689
a(I15
I13
tp3690
a(I16
I14
tp3691
a(I16
I12
tp3692
asg67
(lp3693
sg69
(lp3694
I0
aI0
aI0
aI0
asba(iNavigator_0_0663
NODE
p3695
(dp3696
g62
I0
sg63
(lp3697
(I17
I14
tp3698
a(I15
I14
tp3699
a(I16
I15
tp3700
a(I16
I13
tp3701
asg67
(lp3702
sg69
(lp3703
I0
aI0
aI0
aI0
asba(iNavigator_0_0663
NODE
p3704
(dp3705
g62
I0
sg63
(lp3706
(I17
I15
tp3707
a(I15
I15
tp3708
a(I16
I16
tp3709
a(I16
I14
tp3710
asg67
(lp3711
sg69
(lp3712
I0
aI0
aI0
aI0
asba(iNavigator_0_0663
NODE
p3713
(dp3714
g62
I0
sg63
(lp3715
(I17
I16
tp3716
a(I15
I16
tp3717
a(I16
I17
tp3718
a(I16
I15
tp3719
asg67
(lp3720
sg69
(lp3721
I0
aI0
aI0
aI0
asba(iNavigator_0_0663
NODE
p3722
(dp3723
g62
I0
sg63
(lp3724
(I17
I17
tp3725
a(I15
I17
tp3726
a(I16
I18
tp3727
a(I16
I16
tp3728
asg67
(lp3729
sg69
(lp3730
I0
aI0
aI0
aI0
asba(iNavigator_0_0663
NODE
p3731
(dp3732
g62
I0
sg63
(lp3733
(I17
I18
tp3734
a(I15
I18
tp3735
a(I16
I19
tp3736
a(I16
I17
tp3737
asg67
(lp3738
sg69
(lp3739
I0
aI0
aI0
aI0
asba(iNavigator_0_0663
NODE
p3740
(dp3741
g62
I0
sg63
(lp3742
(I17
I19
tp3743
a(I15
I19
tp3744
a(I16
I20
tp3745
a(I16
I18
tp3746
asg67
(lp3747
sg69
(lp3748
I0
aI0
aI0
aI0
asba(iNavigator_0_0663
NODE
p3749
(dp3750
g62
I0
sg63
(lp3751
(I17
I20
tp3752
a(I15
I20
tp3753
a(I16
I21
tp3754
a(I16
I19
tp3755
asg67
(lp3756
sg69
(lp3757
I0
aI0
aI0
aI0
asba(iNavigator_0_0663
NODE
p3758
(dp3759
g62
I0
sg63
(lp3760
(I17
I21
tp3761
a(I15
I21
tp3762
a(I16
I22
tp3763
a(I16
I20
tp3764
asg67
(lp3765
sg69
(lp3766
I0
aI0
aI0
aI0
asba(iNavigator_0_0663
NODE
p3767
(dp3768
g62
I0
sg63
(lp3769
(I17
I22
tp3770
a(I15
I22
tp3771
a(I16
I23
tp3772
a(I16
I21
tp3773
asg67
(lp3774
sg69
(lp3775
I0
aI0
aI0
aI0
asba(iNavigator_0_0663
NODE
p3776
(dp3777
g62
I0
sg63
(lp3778
(I17
I23
tp3779
a(I15
I23
tp3780
a(I16
I24
tp3781
a(I16
I22
tp3782
asg67
(lp3783
sg69
(lp3784
I0
aI0
aI0
aI0
asba(iNavigator_0_0663
NODE
p3785
(dp3786
g62
I0
sg63
(lp3787
(I17
I24
tp3788
a(I15
I24
tp3789
a(I16
I23
tp3790
asg67
(lp3791
sg69
(lp3792
I0
aI0
aI0
aI0
asbaa(lp3793
(iNavigator_0_0663
NODE
p3794
(dp3795
g62
I0
sg63
(lp3796
(I18
I0
tp3797
a(I16
I0
tp3798
a(I17
I1
tp3799
asg67
(lp3800
sg69
(lp3801
I0
aI0
aI0
aI0
asba(iNavigator_0_0663
NODE
p3802
(dp3803
g62
I0
sg63
(lp3804
(I18
I1
tp3805
a(I16
I1
tp3806
a(I17
I2
tp3807
a(I17
I0
tp3808
asg67
(lp3809
sg69
(lp3810
I0
aI0
aI0
aI0
asba(iNavigator_0_0663
NODE
p3811
(dp3812
g62
I0
sg63
(lp3813
(I18
I2
tp3814
a(I16
I2
tp3815
a(I17
I3
tp3816
a(I17
I1
tp3817
asg67
(lp3818
sg69
(lp3819
I0
aI0
aI0
aI0
asba(iNavigator_0_0663
NODE
p3820
(dp3821
g62
I0
sg63
(lp3822
(I18
I3
tp3823
a(I16
I3
tp3824
a(I17
I4
tp3825
a(I17
I2
tp3826
asg67
(lp3827
sg69
(lp3828
I0
aI0
aI0
aI0
asba(iNavigator_0_0663
NODE
p3829
(dp3830
g62
I0
sg63
(lp3831
(I18
I4
tp3832
a(I16
I4
tp3833
a(I17
I5
tp3834
a(I17
I3
tp3835
asg67
(lp3836
sg69
(lp3837
I0
aI0
aI0
aI0
asba(iNavigator_0_0663
NODE
p3838
(dp3839
g62
I0
sg63
(lp3840
(I18
I5
tp3841
a(I16
I5
tp3842
a(I17
I6
tp3843
a(I17
I4
tp3844
asg67
(lp3845
sg69
(lp3846
I0
aI0
aI0
aI0
asba(iNavigator_0_0663
NODE
p3847
(dp3848
g62
I0
sg63
(lp3849
(I18
I6
tp3850
a(I16
I6
tp3851
a(I17
I7
tp3852
a(I17
I5
tp3853
asg67
(lp3854
sg69
(lp3855
I0
aI0
aI0
aI0
asba(iNavigator_0_0663
NODE
p3856
(dp3857
g62
I0
sg63
(lp3858
(I18
I7
tp3859
a(I16
I7
tp3860
a(I17
I8
tp3861
a(I17
I6
tp3862
asg67
(lp3863
sg69
(lp3864
I0
aI0
aI0
aI0
asba(iNavigator_0_0663
NODE
p3865
(dp3866
g62
I0
sg63
(lp3867
(I18
I8
tp3868
a(I16
I8
tp3869
a(I17
I9
tp3870
a(I17
I7
tp3871
asg67
(lp3872
sg69
(lp3873
I0
aI0
aI0
aI0
asba(iNavigator_0_0663
NODE
p3874
(dp3875
g62
I0
sg63
(lp3876
(I18
I9
tp3877
a(I16
I9
tp3878
a(I17
I10
tp3879
a(I17
I8
tp3880
asg67
(lp3881
sg69
(lp3882
I0
aI0
aI0
aI0
asba(iNavigator_0_0663
NODE
p3883
(dp3884
g62
I0
sg63
(lp3885
(I18
I10
tp3886
a(I16
I10
tp3887
a(I17
I11
tp3888
a(I17
I9
tp3889
asg67
(lp3890
sg69
(lp3891
I0
aI0
aI0
aI0
asba(iNavigator_0_0663
NODE
p3892
(dp3893
g62
I0
sg63
(lp3894
(I18
I11
tp3895
a(I16
I11
tp3896
a(I17
I12
tp3897
a(I17
I10
tp3898
asg67
(lp3899
sg69
(lp3900
I0
aI0
aI0
aI0
asba(iNavigator_0_0663
NODE
p3901
(dp3902
g62
I0
sg63
(lp3903
(I18
I12
tp3904
a(I16
I12
tp3905
a(I17
I13
tp3906
a(I17
I11
tp3907
asg67
(lp3908
sg69
(lp3909
I0
aI0
aI0
aI0
asba(iNavigator_0_0663
NODE
p3910
(dp3911
g62
I0
sg63
(lp3912
(I18
I13
tp3913
a(I16
I13
tp3914
a(I17
I14
tp3915
a(I17
I12
tp3916
asg67
(lp3917
sg69
(lp3918
I0
aI0
aI0
aI0
asba(iNavigator_0_0663
NODE
p3919
(dp3920
g62
I0
sg63
(lp3921
(I18
I14
tp3922
a(I16
I14
tp3923
a(I17
I15
tp3924
a(I17
I13
tp3925
asg67
(lp3926
sg69
(lp3927
I0
aI0
aI0
aI0
asba(iNavigator_0_0663
NODE
p3928
(dp3929
g62
I0
sg63
(lp3930
(I18
I15
tp3931
a(I16
I15
tp3932
a(I17
I16
tp3933
a(I17
I14
tp3934
asg67
(lp3935
sg69
(lp3936
I0
aI0
aI0
aI0
asba(iNavigator_0_0663
NODE
p3937
(dp3938
g62
I0
sg63
(lp3939
(I18
I16
tp3940
a(I16
I16
tp3941
a(I17
I17
tp3942
a(I17
I15
tp3943
asg67
(lp3944
sg69
(lp3945
I0
aI0
aI0
aI0
asba(iNavigator_0_0663
NODE
p3946
(dp3947
g62
I0
sg63
(lp3948
(I18
I17
tp3949
a(I16
I17
tp3950
a(I17
I18
tp3951
a(I17
I16
tp3952
asg67
(lp3953
sg69
(lp3954
I0
aI0
aI0
aI0
asba(iNavigator_0_0663
NODE
p3955
(dp3956
g62
I0
sg63
(lp3957
(I18
I18
tp3958
a(I16
I18
tp3959
a(I17
I19
tp3960
a(I17
I17
tp3961
asg67
(lp3962
sg69
(lp3963
I0
aI0
aI0
aI0
asba(iNavigator_0_0663
NODE
p3964
(dp3965
g62
I0
sg63
(lp3966
(I18
I19
tp3967
a(I16
I19
tp3968
a(I17
I20
tp3969
a(I17
I18
tp3970
asg67
(lp3971
sg69
(lp3972
I0
aI0
aI0
aI0
asba(iNavigator_0_0663
NODE
p3973
(dp3974
g62
I0
sg63
(lp3975
(I18
I20
tp3976
a(I16
I20
tp3977
a(I17
I21
tp3978
a(I17
I19
tp3979
asg67
(lp3980
sg69
(lp3981
I0
aI0
aI0
aI0
asba(iNavigator_0_0663
NODE
p3982
(dp3983
g62
I0
sg63
(lp3984
(I18
I21
tp3985
a(I16
I21
tp3986
a(I17
I22
tp3987
a(I17
I20
tp3988
asg67
(lp3989
sg69
(lp3990
I0
aI0
aI0
aI0
asba(iNavigator_0_0663
NODE
p3991
(dp3992
g62
I0
sg63
(lp3993
(I18
I22
tp3994
a(I16
I22
tp3995
a(I17
I23
tp3996
a(I17
I21
tp3997
asg67
(lp3998
sg69
(lp3999
I0
aI0
aI0
aI0
asba(iNavigator_0_0663
NODE
p4000
(dp4001
g62
I0
sg63
(lp4002
(I18
I23
tp4003
a(I16
I23
tp4004
a(I17
I24
tp4005
a(I17
I22
tp4006
asg67
(lp4007
sg69
(lp4008
I0
aI0
aI0
aI0
asba(iNavigator_0_0663
NODE
p4009
(dp4010
g62
I0
sg63
(lp4011
(I18
I24
tp4012
a(I16
I24
tp4013
a(I17
I23
tp4014
asg67
(lp4015
sg69
(lp4016
I0
aI0
aI0
aI0
asbaa(lp4017
(iNavigator_0_0663
NODE
p4018
(dp4019
g62
I0
sg63
(lp4020
(I19
I0
tp4021
a(I17
I0
tp4022
a(I18
I1
tp4023
asg67
(lp4024
sg69
(lp4025
I0
aI0
aI0
aI0
asba(iNavigator_0_0663
NODE
p4026
(dp4027
g62
I0
sg63
(lp4028
(I19
I1
tp4029
a(I17
I1
tp4030
a(I18
I2
tp4031
a(I18
I0
tp4032
asg67
(lp4033
sg69
(lp4034
I0
aI0
aI0
aI0
asba(iNavigator_0_0663
NODE
p4035
(dp4036
g62
I0
sg63
(lp4037
(I19
I2
tp4038
a(I17
I2
tp4039
a(I18
I3
tp4040
a(I18
I1
tp4041
asg67
(lp4042
sg69
(lp4043
I0
aI0
aI0
aI0
asba(iNavigator_0_0663
NODE
p4044
(dp4045
g62
I0
sg63
(lp4046
(I19
I3
tp4047
a(I17
I3
tp4048
a(I18
I4
tp4049
a(I18
I2
tp4050
asg67
(lp4051
sg69
(lp4052
I0
aI0
aI0
aI0
asba(iNavigator_0_0663
NODE
p4053
(dp4054
g62
I0
sg63
(lp4055
(I19
I4
tp4056
a(I17
I4
tp4057
a(I18
I5
tp4058
a(I18
I3
tp4059
asg67
(lp4060
sg69
(lp4061
I0
aI0
aI0
aI0
asba(iNavigator_0_0663
NODE
p4062
(dp4063
g62
I0
sg63
(lp4064
(I19
I5
tp4065
a(I17
I5
tp4066
a(I18
I6
tp4067
a(I18
I4
tp4068
asg67
(lp4069
sg69
(lp4070
I0
aI0
aI0
aI0
asba(iNavigator_0_0663
NODE
p4071
(dp4072
g62
I0
sg63
(lp4073
(I19
I6
tp4074
a(I17
I6
tp4075
a(I18
I7
tp4076
a(I18
I5
tp4077
asg67
(lp4078
sg69
(lp4079
I0
aI0
aI0
aI0
asba(iNavigator_0_0663
NODE
p4080
(dp4081
g62
I0
sg63
(lp4082
(I19
I7
tp4083
a(I17
I7
tp4084
a(I18
I8
tp4085
a(I18
I6
tp4086
asg67
(lp4087
sg69
(lp4088
I0
aI0
aI0
aI0
asba(iNavigator_0_0663
NODE
p4089
(dp4090
g62
I0
sg63
(lp4091
(I19
I8
tp4092
a(I17
I8
tp4093
a(I18
I9
tp4094
a(I18
I7
tp4095
asg67
(lp4096
sg69
(lp4097
I0
aI0
aI0
aI0
asba(iNavigator_0_0663
NODE
p4098
(dp4099
g62
I0
sg63
(lp4100
(I19
I9
tp4101
a(I17
I9
tp4102
a(I18
I10
tp4103
a(I18
I8
tp4104
asg67
(lp4105
sg69
(lp4106
I0
aI0
aI0
aI0
asba(iNavigator_0_0663
NODE
p4107
(dp4108
g62
I0
sg63
(lp4109
(I19
I10
tp4110
a(I17
I10
tp4111
a(I18
I11
tp4112
a(I18
I9
tp4113
asg67
(lp4114
sg69
(lp4115
I0
aI0
aI0
aI0
asba(iNavigator_0_0663
NODE
p4116
(dp4117
g62
I0
sg63
(lp4118
(I19
I11
tp4119
a(I17
I11
tp4120
a(I18
I12
tp4121
a(I18
I10
tp4122
asg67
(lp4123
sg69
(lp4124
I0
aI0
aI0
aI0
asba(iNavigator_0_0663
NODE
p4125
(dp4126
g62
I0
sg63
(lp4127
(I19
I12
tp4128
a(I17
I12
tp4129
a(I18
I13
tp4130
a(I18
I11
tp4131
asg67
(lp4132
sg69
(lp4133
I0
aI0
aI0
aI0
asba(iNavigator_0_0663
NODE
p4134
(dp4135
g62
I0
sg63
(lp4136
(I19
I13
tp4137
a(I17
I13
tp4138
a(I18
I14
tp4139
a(I18
I12
tp4140
asg67
(lp4141
sg69
(lp4142
I0
aI0
aI0
aI0
asba(iNavigator_0_0663
NODE
p4143
(dp4144
g62
I0
sg63
(lp4145
(I19
I14
tp4146
a(I17
I14
tp4147
a(I18
I15
tp4148
a(I18
I13
tp4149
asg67
(lp4150
sg69
(lp4151
I0
aI0
aI0
aI0
asba(iNavigator_0_0663
NODE
p4152
(dp4153
g62
I0
sg63
(lp4154
(I19
I15
tp4155
a(I17
I15
tp4156
a(I18
I16
tp4157
a(I18
I14
tp4158
asg67
(lp4159
sg69
(lp4160
I0
aI0
aI0
aI0
asba(iNavigator_0_0663
NODE
p4161
(dp4162
g62
I0
sg63
(lp4163
(I19
I16
tp4164
a(I17
I16
tp4165
a(I18
I17
tp4166
a(I18
I15
tp4167
asg67
(lp4168
sg69
(lp4169
I0
aI0
aI0
aI0
asba(iNavigator_0_0663
NODE
p4170
(dp4171
g62
I0
sg63
(lp4172
(I19
I17
tp4173
a(I17
I17
tp4174
a(I18
I18
tp4175
a(I18
I16
tp4176
asg67
(lp4177
sg69
(lp4178
I0
aI0
aI0
aI0
asba(iNavigator_0_0663
NODE
p4179
(dp4180
g62
I0
sg63
(lp4181
(I19
I18
tp4182
a(I17
I18
tp4183
a(I18
I19
tp4184
a(I18
I17
tp4185
asg67
(lp4186
sg69
(lp4187
I0
aI0
aI0
aI0
asba(iNavigator_0_0663
NODE
p4188
(dp4189
g62
I0
sg63
(lp4190
(I19
I19
tp4191
a(I17
I19
tp4192
a(I18
I20
tp4193
a(I18
I18
tp4194
asg67
(lp4195
sg69
(lp4196
I0
aI0
aI0
aI0
asba(iNavigator_0_0663
NODE
p4197
(dp4198
g62
I0
sg63
(lp4199
(I19
I20
tp4200
a(I17
I20
tp4201
a(I18
I21
tp4202
a(I18
I19
tp4203
asg67
(lp4204
sg69
(lp4205
I0
aI0
aI0
aI0
asba(iNavigator_0_0663
NODE
p4206
(dp4207
g62
I0
sg63
(lp4208
(I19
I21
tp4209
a(I17
I21
tp4210
a(I18
I22
tp4211
a(I18
I20
tp4212
asg67
(lp4213
sg69
(lp4214
I0
aI0
aI0
aI0
asba(iNavigator_0_0663
NODE
p4215
(dp4216
g62
I0
sg63
(lp4217
(I19
I22
tp4218
a(I17
I22
tp4219
a(I18
I23
tp4220
a(I18
I21
tp4221
asg67
(lp4222
sg69
(lp4223
I0
aI0
aI0
aI0
asba(iNavigator_0_0663
NODE
p4224
(dp4225
g62
I0
sg63
(lp4226
(I19
I23
tp4227
a(I17
I23
tp4228
a(I18
I24
tp4229
a(I18
I22
tp4230
asg67
(lp4231
sg69
(lp4232
I0
aI0
aI0
aI0
asba(iNavigator_0_0663
NODE
p4233
(dp4234
g62
I0
sg63
(lp4235
(I19
I24
tp4236
a(I17
I24
tp4237
a(I18
I23
tp4238
asg67
(lp4239
sg69
(lp4240
I0
aI0
aI0
aI0
asbaa(lp4241
(iNavigator_0_0663
NODE
p4242
(dp4243
g62
I0
sg63
(lp4244
(I20
I0
tp4245
a(I18
I0
tp4246
a(I19
I1
tp4247
asg67
(lp4248
sg69
(lp4249
I0
aI0
aI0
aI0
asba(iNavigator_0_0663
NODE
p4250
(dp4251
g62
I0
sg63
(lp4252
(I20
I1
tp4253
a(I18
I1
tp4254
a(I19
I2
tp4255
a(I19
I0
tp4256
asg67
(lp4257
sg69
(lp4258
I0
aI0
aI0
aI0
asba(iNavigator_0_0663
NODE
p4259
(dp4260
g62
I0
sg63
(lp4261
(I20
I2
tp4262
a(I18
I2
tp4263
a(I19
I3
tp4264
a(I19
I1
tp4265
asg67
(lp4266
sg69
(lp4267
I0
aI0
aI0
aI0
asba(iNavigator_0_0663
NODE
p4268
(dp4269
g62
I0
sg63
(lp4270
(I20
I3
tp4271
a(I18
I3
tp4272
a(I19
I4
tp4273
a(I19
I2
tp4274
asg67
(lp4275
sg69
(lp4276
I0
aI0
aI0
aI0
asba(iNavigator_0_0663
NODE
p4277
(dp4278
g62
I0
sg63
(lp4279
(I20
I4
tp4280
a(I18
I4
tp4281
a(I19
I5
tp4282
a(I19
I3
tp4283
asg67
(lp4284
sg69
(lp4285
I0
aI0
aI0
aI0
asba(iNavigator_0_0663
NODE
p4286
(dp4287
g62
I0
sg63
(lp4288
(I20
I5
tp4289
a(I18
I5
tp4290
a(I19
I6
tp4291
a(I19
I4
tp4292
asg67
(lp4293
sg69
(lp4294
I0
aI0
aI0
aI0
asba(iNavigator_0_0663
NODE
p4295
(dp4296
g62
I0
sg63
(lp4297
(I20
I6
tp4298
a(I18
I6
tp4299
a(I19
I7
tp4300
a(I19
I5
tp4301
asg67
(lp4302
sg69
(lp4303
I0
aI0
aI0
aI0
asba(iNavigator_0_0663
NODE
p4304
(dp4305
g62
I0
sg63
(lp4306
(I20
I7
tp4307
a(I18
I7
tp4308
a(I19
I8
tp4309
a(I19
I6
tp4310
asg67
(lp4311
sg69
(lp4312
I0
aI0
aI0
aI0
asba(iNavigator_0_0663
NODE
p4313
(dp4314
g62
I0
sg63
(lp4315
(I20
I8
tp4316
a(I18
I8
tp4317
a(I19
I9
tp4318
a(I19
I7
tp4319
asg67
(lp4320
sg69
(lp4321
I0
aI0
aI0
aI0
asba(iNavigator_0_0663
NODE
p4322
(dp4323
g62
I0
sg63
(lp4324
(I20
I9
tp4325
a(I18
I9
tp4326
a(I19
I10
tp4327
a(I19
I8
tp4328
asg67
(lp4329
sg69
(lp4330
I0
aI0
aI0
aI0
asba(iNavigator_0_0663
NODE
p4331
(dp4332
g62
I0
sg63
(lp4333
(I20
I10
tp4334
a(I18
I10
tp4335
a(I19
I11
tp4336
a(I19
I9
tp4337
asg67
(lp4338
sg69
(lp4339
I0
aI0
aI0
aI0
asba(iNavigator_0_0663
NODE
p4340
(dp4341
g62
I0
sg63
(lp4342
(I20
I11
tp4343
a(I18
I11
tp4344
a(I19
I12
tp4345
a(I19
I10
tp4346
asg67
(lp4347
sg69
(lp4348
I0
aI0
aI0
aI0
asba(iNavigator_0_0663
NODE
p4349
(dp4350
g62
I0
sg63
(lp4351
(I20
I12
tp4352
a(I18
I12
tp4353
a(I19
I13
tp4354
a(I19
I11
tp4355
asg67
(lp4356
sg69
(lp4357
I0
aI0
aI0
aI0
asba(iNavigator_0_0663
NODE
p4358
(dp4359
g62
I0
sg63
(lp4360
(I20
I13
tp4361
a(I18
I13
tp4362
a(I19
I14
tp4363
a(I19
I12
tp4364
asg67
(lp4365
sg69
(lp4366
I0
aI0
aI0
aI0
asba(iNavigator_0_0663
NODE
p4367
(dp4368
g62
I0
sg63
(lp4369
(I20
I14
tp4370
a(I18
I14
tp4371
a(I19
I15
tp4372
a(I19
I13
tp4373
asg67
(lp4374
sg69
(lp4375
I0
aI0
aI0
aI0
asba(iNavigator_0_0663
NODE
p4376
(dp4377
g62
I0
sg63
(lp4378
(I20
I15
tp4379
a(I18
I15
tp4380
a(I19
I16
tp4381
a(I19
I14
tp4382
asg67
(lp4383
sg69
(lp4384
I0
aI0
aI0
aI0
asba(iNavigator_0_0663
NODE
p4385
(dp4386
g62
I0
sg63
(lp4387
(I20
I16
tp4388
a(I18
I16
tp4389
a(I19
I17
tp4390
a(I19
I15
tp4391
asg67
(lp4392
sg69
(lp4393
I0
aI0
aI0
aI0
asba(iNavigator_0_0663
NODE
p4394
(dp4395
g62
I0
sg63
(lp4396
(I20
I17
tp4397
a(I18
I17
tp4398
a(I19
I18
tp4399
a(I19
I16
tp4400
asg67
(lp4401
sg69
(lp4402
I0
aI0
aI0
aI0
asba(iNavigator_0_0663
NODE
p4403
(dp4404
g62
I0
sg63
(lp4405
(I20
I18
tp4406
a(I18
I18
tp4407
a(I19
I19
tp4408
a(I19
I17
tp4409
asg67
(lp4410
sg69
(lp4411
I0
aI0
aI0
aI0
asba(iNavigator_0_0663
NODE
p4412
(dp4413
g62
I0
sg63
(lp4414
(I20
I19
tp4415
a(I18
I19
tp4416
a(I19
I20
tp4417
a(I19
I18
tp4418
asg67
(lp4419
sg69
(lp4420
I0
aI0
aI0
aI0
asba(iNavigator_0_0663
NODE
p4421
(dp4422
g62
I0
sg63
(lp4423
(I20
I20
tp4424
a(I18
I20
tp4425
a(I19
I21
tp4426
a(I19
I19
tp4427
asg67
(lp4428
sg69
(lp4429
I0
aI0
aI0
aI0
asba(iNavigator_0_0663
NODE
p4430
(dp4431
g62
I0
sg63
(lp4432
(I20
I21
tp4433
a(I18
I21
tp4434
a(I19
I22
tp4435
a(I19
I20
tp4436
asg67
(lp4437
sg69
(lp4438
I0
aI0
aI0
aI0
asba(iNavigator_0_0663
NODE
p4439
(dp4440
g62
I0
sg63
(lp4441
(I20
I22
tp4442
a(I18
I22
tp4443
a(I19
I23
tp4444
a(I19
I21
tp4445
asg67
(lp4446
sg69
(lp4447
I0
aI0
aI0
aI0
asba(iNavigator_0_0663
NODE
p4448
(dp4449
g62
I0
sg63
(lp4450
(I20
I23
tp4451
a(I18
I23
tp4452
a(I19
I24
tp4453
a(I19
I22
tp4454
asg67
(lp4455
sg69
(lp4456
I0
aI0
aI0
aI0
asba(iNavigator_0_0663
NODE
p4457
(dp4458
g62
I0
sg63
(lp4459
(I20
I24
tp4460
a(I18
I24
tp4461
a(I19
I23
tp4462
asg67
(lp4463
sg69
(lp4464
I0
aI0
aI0
aI0
asbaa(lp4465
(iNavigator_0_0663
NODE
p4466
(dp4467
g62
I0
sg63
(lp4468
(I21
I0
tp4469
a(I19
I0
tp4470
a(I20
I1
tp4471
asg67
(lp4472
sg69
(lp4473
I0
aI0
aI0
aI0
asba(iNavigator_0_0663
NODE
p4474
(dp4475
g62
I0
sg63
(lp4476
(I21
I1
tp4477
a(I19
I1
tp4478
a(I20
I2
tp4479
a(I20
I0
tp4480
asg67
(lp4481
sg69
(lp4482
I0
aI0
aI0
aI0
asba(iNavigator_0_0663
NODE
p4483
(dp4484
g62
I0
sg63
(lp4485
(I21
I2
tp4486
a(I19
I2
tp4487
a(I20
I3
tp4488
a(I20
I1
tp4489
asg67
(lp4490
sg69
(lp4491
I0
aI0
aI0
aI0
asba(iNavigator_0_0663
NODE
p4492
(dp4493
g62
I0
sg63
(lp4494
(I21
I3
tp4495
a(I19
I3
tp4496
a(I20
I4
tp4497
a(I20
I2
tp4498
asg67
(lp4499
sg69
(lp4500
I0
aI0
aI0
aI0
asba(iNavigator_0_0663
NODE
p4501
(dp4502
g62
I0
sg63
(lp4503
(I21
I4
tp4504
a(I19
I4
tp4505
a(I20
I5
tp4506
a(I20
I3
tp4507
asg67
(lp4508
sg69
(lp4509
I0
aI0
aI0
aI0
asba(iNavigator_0_0663
NODE
p4510
(dp4511
g62
I0
sg63
(lp4512
(I21
I5
tp4513
a(I19
I5
tp4514
a(I20
I6
tp4515
a(I20
I4
tp4516
asg67
(lp4517
sg69
(lp4518
I0
aI0
aI0
aI0
asba(iNavigator_0_0663
NODE
p4519
(dp4520
g62
I0
sg63
(lp4521
(I21
I6
tp4522
a(I19
I6
tp4523
a(I20
I7
tp4524
a(I20
I5
tp4525
asg67
(lp4526
sg69
(lp4527
I0
aI0
aI0
aI0
asba(iNavigator_0_0663
NODE
p4528
(dp4529
g62
I0
sg63
(lp4530
(I21
I7
tp4531
a(I19
I7
tp4532
a(I20
I8
tp4533
a(I20
I6
tp4534
asg67
(lp4535
sg69
(lp4536
I0
aI0
aI0
aI0
asba(iNavigator_0_0663
NODE
p4537
(dp4538
g62
I0
sg63
(lp4539
(I21
I8
tp4540
a(I19
I8
tp4541
a(I20
I9
tp4542
a(I20
I7
tp4543
asg67
(lp4544
sg69
(lp4545
I0
aI0
aI0
aI0
asba(iNavigator_0_0663
NODE
p4546
(dp4547
g62
I0
sg63
(lp4548
(I21
I9
tp4549
a(I19
I9
tp4550
a(I20
I10
tp4551
a(I20
I8
tp4552
asg67
(lp4553
sg69
(lp4554
I0
aI0
aI0
aI0
asba(iNavigator_0_0663
NODE
p4555
(dp4556
g62
I0
sg63
(lp4557
(I21
I10
tp4558
a(I19
I10
tp4559
a(I20
I11
tp4560
a(I20
I9
tp4561
asg67
(lp4562
sg69
(lp4563
I0
aI0
aI0
aI0
asba(iNavigator_0_0663
NODE
p4564
(dp4565
g62
I0
sg63
(lp4566
(I21
I11
tp4567
a(I19
I11
tp4568
a(I20
I12
tp4569
a(I20
I10
tp4570
asg67
(lp4571
sg69
(lp4572
I0
aI0
aI0
aI0
asba(iNavigator_0_0663
NODE
p4573
(dp4574
g62
I0
sg63
(lp4575
(I21
I12
tp4576
a(I19
I12
tp4577
a(I20
I13
tp4578
a(I20
I11
tp4579
asg67
(lp4580
sg69
(lp4581
I0
aI0
aI0
aI0
asba(iNavigator_0_0663
NODE
p4582
(dp4583
g62
I0
sg63
(lp4584
(I21
I13
tp4585
a(I19
I13
tp4586
a(I20
I14
tp4587
a(I20
I12
tp4588
asg67
(lp4589
sg69
(lp4590
I0
aI0
aI0
aI0
asba(iNavigator_0_0663
NODE
p4591
(dp4592
g62
I0
sg63
(lp4593
(I21
I14
tp4594
a(I19
I14
tp4595
a(I20
I15
tp4596
a(I20
I13
tp4597
asg67
(lp4598
sg69
(lp4599
I0
aI0
aI0
aI0
asba(iNavigator_0_0663
NODE
p4600
(dp4601
g62
I0
sg63
(lp4602
(I21
I15
tp4603
a(I19
I15
tp4604
a(I20
I16
tp4605
a(I20
I14
tp4606
asg67
(lp4607
sg69
(lp4608
I0
aI0
aI0
aI0
asba(iNavigator_0_0663
NODE
p4609
(dp4610
g62
I0
sg63
(lp4611
(I21
I16
tp4612
a(I19
I16
tp4613
a(I20
I17
tp4614
a(I20
I15
tp4615
asg67
(lp4616
sg69
(lp4617
I0
aI0
aI0
aI0
asba(iNavigator_0_0663
NODE
p4618
(dp4619
g62
I0
sg63
(lp4620
(I21
I17
tp4621
a(I19
I17
tp4622
a(I20
I18
tp4623
a(I20
I16
tp4624
asg67
(lp4625
sg69
(lp4626
I0
aI0
aI0
aI0
asba(iNavigator_0_0663
NODE
p4627
(dp4628
g62
I0
sg63
(lp4629
(I21
I18
tp4630
a(I19
I18
tp4631
a(I20
I19
tp4632
a(I20
I17
tp4633
asg67
(lp4634
sg69
(lp4635
I0
aI0
aI0
aI0
asba(iNavigator_0_0663
NODE
p4636
(dp4637
g62
I0
sg63
(lp4638
(I21
I19
tp4639
a(I19
I19
tp4640
a(I20
I20
tp4641
a(I20
I18
tp4642
asg67
(lp4643
sg69
(lp4644
I0
aI0
aI0
aI0
asba(iNavigator_0_0663
NODE
p4645
(dp4646
g62
I0
sg63
(lp4647
(I21
I20
tp4648
a(I19
I20
tp4649
a(I20
I21
tp4650
a(I20
I19
tp4651
asg67
(lp4652
sg69
(lp4653
I0
aI0
aI0
aI0
asba(iNavigator_0_0663
NODE
p4654
(dp4655
g62
I0
sg63
(lp4656
(I21
I21
tp4657
a(I19
I21
tp4658
a(I20
I22
tp4659
a(I20
I20
tp4660
asg67
(lp4661
sg69
(lp4662
I0
aI0
aI0
aI0
asba(iNavigator_0_0663
NODE
p4663
(dp4664
g62
I0
sg63
(lp4665
(I21
I22
tp4666
a(I19
I22
tp4667
a(I20
I23
tp4668
a(I20
I21
tp4669
asg67
(lp4670
sg69
(lp4671
I0
aI0
aI0
aI0
asba(iNavigator_0_0663
NODE
p4672
(dp4673
g62
I0
sg63
(lp4674
(I21
I23
tp4675
a(I19
I23
tp4676
a(I20
I24
tp4677
a(I20
I22
tp4678
asg67
(lp4679
sg69
(lp4680
I0
aI0
aI0
aI0
asba(iNavigator_0_0663
NODE
p4681
(dp4682
g62
I0
sg63
(lp4683
(I21
I24
tp4684
a(I19
I24
tp4685
a(I20
I23
tp4686
asg67
(lp4687
sg69
(lp4688
I0
aI0
aI0
aI0
asbaa(lp4689
(iNavigator_0_0663
NODE
p4690
(dp4691
g62
I0
sg63
(lp4692
(I22
I0
tp4693
a(I20
I0
tp4694
a(I21
I1
tp4695
asg67
(lp4696
sg69
(lp4697
I0
aI0
aI0
aI0
asba(iNavigator_0_0663
NODE
p4698
(dp4699
g62
I0
sg63
(lp4700
(I22
I1
tp4701
a(I20
I1
tp4702
a(I21
I2
tp4703
a(I21
I0
tp4704
asg67
(lp4705
sg69
(lp4706
I0
aI0
aI0
aI0
asba(iNavigator_0_0663
NODE
p4707
(dp4708
g62
I0
sg63
(lp4709
(I22
I2
tp4710
a(I20
I2
tp4711
a(I21
I3
tp4712
a(I21
I1
tp4713
asg67
(lp4714
sg69
(lp4715
I0
aI0
aI0
aI0
asba(iNavigator_0_0663
NODE
p4716
(dp4717
g62
I0
sg63
(lp4718
(I22
I3
tp4719
a(I20
I3
tp4720
a(I21
I4
tp4721
a(I21
I2
tp4722
asg67
(lp4723
sg69
(lp4724
I0
aI0
aI0
aI0
asba(iNavigator_0_0663
NODE
p4725
(dp4726
g62
I0
sg63
(lp4727
(I22
I4
tp4728
a(I20
I4
tp4729
a(I21
I5
tp4730
a(I21
I3
tp4731
asg67
(lp4732
sg69
(lp4733
I0
aI0
aI0
aI0
asba(iNavigator_0_0663
NODE
p4734
(dp4735
g62
I0
sg63
(lp4736
(I22
I5
tp4737
a(I20
I5
tp4738
a(I21
I6
tp4739
a(I21
I4
tp4740
asg67
(lp4741
sg69
(lp4742
I0
aI0
aI0
aI0
asba(iNavigator_0_0663
NODE
p4743
(dp4744
g62
I0
sg63
(lp4745
(I22
I6
tp4746
a(I20
I6
tp4747
a(I21
I7
tp4748
a(I21
I5
tp4749
asg67
(lp4750
sg69
(lp4751
I0
aI0
aI0
aI0
asba(iNavigator_0_0663
NODE
p4752
(dp4753
g62
I0
sg63
(lp4754
(I22
I7
tp4755
a(I20
I7
tp4756
a(I21
I8
tp4757
a(I21
I6
tp4758
asg67
(lp4759
sg69
(lp4760
I0
aI0
aI0
aI0
asba(iNavigator_0_0663
NODE
p4761
(dp4762
g62
I0
sg63
(lp4763
(I22
I8
tp4764
a(I20
I8
tp4765
a(I21
I9
tp4766
a(I21
I7
tp4767
asg67
(lp4768
sg69
(lp4769
I0
aI0
aI0
aI0
asba(iNavigator_0_0663
NODE
p4770
(dp4771
g62
I0
sg63
(lp4772
(I22
I9
tp4773
a(I20
I9
tp4774
a(I21
I10
tp4775
a(I21
I8
tp4776
asg67
(lp4777
sg69
(lp4778
I0
aI0
aI0
aI0
asba(iNavigator_0_0663
NODE
p4779
(dp4780
g62
I0
sg63
(lp4781
(I22
I10
tp4782
a(I20
I10
tp4783
a(I21
I11
tp4784
a(I21
I9
tp4785
asg67
(lp4786
sg69
(lp4787
I0
aI0
aI0
aI0
asba(iNavigator_0_0663
NODE
p4788
(dp4789
g62
I0
sg63
(lp4790
(I22
I11
tp4791
a(I20
I11
tp4792
a(I21
I12
tp4793
a(I21
I10
tp4794
asg67
(lp4795
sg69
(lp4796
I0
aI0
aI0
aI0
asba(iNavigator_0_0663
NODE
p4797
(dp4798
g62
I0
sg63
(lp4799
(I22
I12
tp4800
a(I20
I12
tp4801
a(I21
I13
tp4802
a(I21
I11
tp4803
asg67
(lp4804
sg69
(lp4805
I0
aI0
aI0
aI0
asba(iNavigator_0_0663
NODE
p4806
(dp4807
g62
I0
sg63
(lp4808
(I22
I13
tp4809
a(I20
I13
tp4810
a(I21
I14
tp4811
a(I21
I12
tp4812
asg67
(lp4813
sg69
(lp4814
I0
aI0
aI0
aI0
asba(iNavigator_0_0663
NODE
p4815
(dp4816
g62
I0
sg63
(lp4817
(I22
I14
tp4818
a(I20
I14
tp4819
a(I21
I15
tp4820
a(I21
I13
tp4821
asg67
(lp4822
sg69
(lp4823
I0
aI0
aI0
aI0
asba(iNavigator_0_0663
NODE
p4824
(dp4825
g62
I0
sg63
(lp4826
(I22
I15
tp4827
a(I20
I15
tp4828
a(I21
I16
tp4829
a(I21
I14
tp4830
asg67
(lp4831
sg69
(lp4832
I0
aI0
aI0
aI0
asba(iNavigator_0_0663
NODE
p4833
(dp4834
g62
I0
sg63
(lp4835
(I22
I16
tp4836
a(I20
I16
tp4837
a(I21
I17
tp4838
a(I21
I15
tp4839
asg67
(lp4840
sg69
(lp4841
I0
aI0
aI0
aI0
asba(iNavigator_0_0663
NODE
p4842
(dp4843
g62
I0
sg63
(lp4844
(I22
I17
tp4845
a(I20
I17
tp4846
a(I21
I18
tp4847
a(I21
I16
tp4848
asg67
(lp4849
sg69
(lp4850
I0
aI0
aI0
aI0
asba(iNavigator_0_0663
NODE
p4851
(dp4852
g62
I0
sg63
(lp4853
(I22
I18
tp4854
a(I20
I18
tp4855
a(I21
I19
tp4856
a(I21
I17
tp4857
asg67
(lp4858
sg69
(lp4859
I0
aI0
aI0
aI0
asba(iNavigator_0_0663
NODE
p4860
(dp4861
g62
I0
sg63
(lp4862
(I22
I19
tp4863
a(I20
I19
tp4864
a(I21
I20
tp4865
a(I21
I18
tp4866
asg67
(lp4867
sg69
(lp4868
I0
aI0
aI0
aI0
asba(iNavigator_0_0663
NODE
p4869
(dp4870
g62
I0
sg63
(lp4871
(I22
I20
tp4872
a(I20
I20
tp4873
a(I21
I21
tp4874
a(I21
I19
tp4875
asg67
(lp4876
sg69
(lp4877
I0
aI0
aI0
aI0
asba(iNavigator_0_0663
NODE
p4878
(dp4879
g62
I0
sg63
(lp4880
(I22
I21
tp4881
a(I20
I21
tp4882
a(I21
I22
tp4883
a(I21
I20
tp4884
asg67
(lp4885
sg69
(lp4886
I0
aI0
aI0
aI0
asba(iNavigator_0_0663
NODE
p4887
(dp4888
g62
I0
sg63
(lp4889
(I22
I22
tp4890
a(I20
I22
tp4891
a(I21
I23
tp4892
a(I21
I21
tp4893
asg67
(lp4894
sg69
(lp4895
I0
aI0
aI0
aI0
asba(iNavigator_0_0663
NODE
p4896
(dp4897
g62
I0
sg63
(lp4898
(I22
I23
tp4899
a(I20
I23
tp4900
a(I21
I24
tp4901
a(I21
I22
tp4902
asg67
(lp4903
sg69
(lp4904
I0
aI0
aI0
aI0
asba(iNavigator_0_0663
NODE
p4905
(dp4906
g62
I0
sg63
(lp4907
(I22
I24
tp4908
a(I20
I24
tp4909
a(I21
I23
tp4910
asg67
(lp4911
sg69
(lp4912
I0
aI0
aI0
aI0
asbaa(lp4913
(iNavigator_0_0663
NODE
p4914
(dp4915
g62
I0
sg63
(lp4916
(I23
I0
tp4917
a(I21
I0
tp4918
a(I22
I1
tp4919
asg67
(lp4920
sg69
(lp4921
I0
aI0
aI0
aI0
asba(iNavigator_0_0663
NODE
p4922
(dp4923
g62
I0
sg63
(lp4924
(I23
I1
tp4925
a(I21
I1
tp4926
a(I22
I2
tp4927
a(I22
I0
tp4928
asg67
(lp4929
sg69
(lp4930
I0
aI0
aI0
aI0
asba(iNavigator_0_0663
NODE
p4931
(dp4932
g62
I0
sg63
(lp4933
(I23
I2
tp4934
a(I21
I2
tp4935
a(I22
I3
tp4936
a(I22
I1
tp4937
asg67
(lp4938
sg69
(lp4939
I0
aI0
aI0
aI0
asba(iNavigator_0_0663
NODE
p4940
(dp4941
g62
I0
sg63
(lp4942
(I23
I3
tp4943
a(I21
I3
tp4944
a(I22
I4
tp4945
a(I22
I2
tp4946
asg67
(lp4947
sg69
(lp4948
I0
aI0
aI0
aI0
asba(iNavigator_0_0663
NODE
p4949
(dp4950
g62
I0
sg63
(lp4951
(I23
I4
tp4952
a(I21
I4
tp4953
a(I22
I5
tp4954
a(I22
I3
tp4955
asg67
(lp4956
sg69
(lp4957
I0
aI0
aI0
aI0
asba(iNavigator_0_0663
NODE
p4958
(dp4959
g62
I0
sg63
(lp4960
(I23
I5
tp4961
a(I21
I5
tp4962
a(I22
I6
tp4963
a(I22
I4
tp4964
asg67
(lp4965
sg69
(lp4966
I0
aI0
aI0
aI0
asba(iNavigator_0_0663
NODE
p4967
(dp4968
g62
I0
sg63
(lp4969
(I23
I6
tp4970
a(I21
I6
tp4971
a(I22
I7
tp4972
a(I22
I5
tp4973
asg67
(lp4974
sg69
(lp4975
I0
aI0
aI0
aI0
asba(iNavigator_0_0663
NODE
p4976
(dp4977
g62
I0
sg63
(lp4978
(I23
I7
tp4979
a(I21
I7
tp4980
a(I22
I8
tp4981
a(I22
I6
tp4982
asg67
(lp4983
sg69
(lp4984
I0
aI0
aI0
aI0
asba(iNavigator_0_0663
NODE
p4985
(dp4986
g62
I0
sg63
(lp4987
(I23
I8
tp4988
a(I21
I8
tp4989
a(I22
I9
tp4990
a(I22
I7
tp4991
asg67
(lp4992
sg69
(lp4993
I0
aI0
aI0
aI0
asba(iNavigator_0_0663
NODE
p4994
(dp4995
g62
I0
sg63
(lp4996
(I23
I9
tp4997
a(I21
I9
tp4998
a(I22
I10
tp4999
a(I22
I8
tp5000
asg67
(lp5001
sg69
(lp5002
I0
aI0
aI0
aI0
asba(iNavigator_0_0663
NODE
p5003
(dp5004
g62
I0
sg63
(lp5005
(I23
I10
tp5006
a(I21
I10
tp5007
a(I22
I11
tp5008
a(I22
I9
tp5009
asg67
(lp5010
sg69
(lp5011
I0
aI0
aI0
aI0
asba(iNavigator_0_0663
NODE
p5012
(dp5013
g62
I0
sg63
(lp5014
(I23
I11
tp5015
a(I21
I11
tp5016
a(I22
I12
tp5017
a(I22
I10
tp5018
asg67
(lp5019
sg69
(lp5020
I0
aI0
aI0
aI0
asba(iNavigator_0_0663
NODE
p5021
(dp5022
g62
I0
sg63
(lp5023
(I23
I12
tp5024
a(I21
I12
tp5025
a(I22
I13
tp5026
a(I22
I11
tp5027
asg67
(lp5028
sg69
(lp5029
I0
aI0
aI0
aI0
asba(iNavigator_0_0663
NODE
p5030
(dp5031
g62
I0
sg63
(lp5032
(I23
I13
tp5033
a(I21
I13
tp5034
a(I22
I14
tp5035
a(I22
I12
tp5036
asg67
(lp5037
sg69
(lp5038
I0
aI0
aI0
aI0
asba(iNavigator_0_0663
NODE
p5039
(dp5040
g62
I0
sg63
(lp5041
(I23
I14
tp5042
a(I21
I14
tp5043
a(I22
I15
tp5044
a(I22
I13
tp5045
asg67
(lp5046
sg69
(lp5047
I0
aI0
aI0
aI0
asba(iNavigator_0_0663
NODE
p5048
(dp5049
g62
I0
sg63
(lp5050
(I23
I15
tp5051
a(I21
I15
tp5052
a(I22
I16
tp5053
a(I22
I14
tp5054
asg67
(lp5055
sg69
(lp5056
I0
aI0
aI0
aI0
asba(iNavigator_0_0663
NODE
p5057
(dp5058
g62
I0
sg63
(lp5059
(I23
I16
tp5060
a(I21
I16
tp5061
a(I22
I17
tp5062
a(I22
I15
tp5063
asg67
(lp5064
sg69
(lp5065
I0
aI0
aI0
aI0
asba(iNavigator_0_0663
NODE
p5066
(dp5067
g62
I0
sg63
(lp5068
(I23
I17
tp5069
a(I21
I17
tp5070
a(I22
I18
tp5071
a(I22
I16
tp5072
asg67
(lp5073
sg69
(lp5074
I0
aI0
aI0
aI0
asba(iNavigator_0_0663
NODE
p5075
(dp5076
g62
I0
sg63
(lp5077
(I23
I18
tp5078
a(I21
I18
tp5079
a(I22
I19
tp5080
a(I22
I17
tp5081
asg67
(lp5082
sg69
(lp5083
I0
aI0
aI0
aI0
asba(iNavigator_0_0663
NODE
p5084
(dp5085
g62
I0
sg63
(lp5086
(I23
I19
tp5087
a(I21
I19
tp5088
a(I22
I20
tp5089
a(I22
I18
tp5090
asg67
(lp5091
sg69
(lp5092
I0
aI0
aI0
aI0
asba(iNavigator_0_0663
NODE
p5093
(dp5094
g62
I0
sg63
(lp5095
(I23
I20
tp5096
a(I21
I20
tp5097
a(I22
I21
tp5098
a(I22
I19
tp5099
asg67
(lp5100
sg69
(lp5101
I0
aI0
aI0
aI0
asba(iNavigator_0_0663
NODE
p5102
(dp5103
g62
I0
sg63
(lp5104
(I23
I21
tp5105
a(I21
I21
tp5106
a(I22
I22
tp5107
a(I22
I20
tp5108
asg67
(lp5109
sg69
(lp5110
I0
aI0
aI0
aI0
asba(iNavigator_0_0663
NODE
p5111
(dp5112
g62
I0
sg63
(lp5113
(I23
I22
tp5114
a(I21
I22
tp5115
a(I22
I23
tp5116
a(I22
I21
tp5117
asg67
(lp5118
sg69
(lp5119
I0
aI0
aI0
aI0
asba(iNavigator_0_0663
NODE
p5120
(dp5121
g62
I0
sg63
(lp5122
(I23
I23
tp5123
a(I21
I23
tp5124
a(I22
I24
tp5125
a(I22
I22
tp5126
asg67
(lp5127
sg69
(lp5128
I0
aI0
aI0
aI0
asba(iNavigator_0_0663
NODE
p5129
(dp5130
g62
I0
sg63
(lp5131
(I23
I24
tp5132
a(I21
I24
tp5133
a(I22
I23
tp5134
asg67
(lp5135
sg69
(lp5136
I0
aI0
aI0
aI0
asbaa(lp5137
(iNavigator_0_0663
NODE
p5138
(dp5139
g62
I0
sg63
(lp5140
(I24
I0
tp5141
a(I22
I0
tp5142
a(I23
I1
tp5143
asg67
(lp5144
sg69
(lp5145
I0
aI0
aI0
aI0
asba(iNavigator_0_0663
NODE
p5146
(dp5147
g62
I0
sg63
(lp5148
(I24
I1
tp5149
a(I22
I1
tp5150
a(I23
I2
tp5151
a(I23
I0
tp5152
asg67
(lp5153
sg69
(lp5154
I0
aI0
aI0
aI0
asba(iNavigator_0_0663
NODE
p5155
(dp5156
g62
I0
sg63
(lp5157
(I24
I2
tp5158
a(I22
I2
tp5159
a(I23
I3
tp5160
a(I23
I1
tp5161
asg67
(lp5162
sg69
(lp5163
I0
aI0
aI0
aI0
asba(iNavigator_0_0663
NODE
p5164
(dp5165
g62
I0
sg63
(lp5166
(I24
I3
tp5167
a(I22
I3
tp5168
a(I23
I4
tp5169
a(I23
I2
tp5170
asg67
(lp5171
sg69
(lp5172
I0
aI0
aI0
aI0
asba(iNavigator_0_0663
NODE
p5173
(dp5174
g62
I0
sg63
(lp5175
(I24
I4
tp5176
a(I22
I4
tp5177
a(I23
I5
tp5178
a(I23
I3
tp5179
asg67
(lp5180
sg69
(lp5181
I0
aI0
aI0
aI0
asba(iNavigator_0_0663
NODE
p5182
(dp5183
g62
I0
sg63
(lp5184
(I24
I5
tp5185
a(I22
I5
tp5186
a(I23
I6
tp5187
a(I23
I4
tp5188
asg67
(lp5189
sg69
(lp5190
I0
aI0
aI0
aI0
asba(iNavigator_0_0663
NODE
p5191
(dp5192
g62
I0
sg63
(lp5193
(I24
I6
tp5194
a(I22
I6
tp5195
a(I23
I7
tp5196
a(I23
I5
tp5197
asg67
(lp5198
sg69
(lp5199
I0
aI0
aI0
aI0
asba(iNavigator_0_0663
NODE
p5200
(dp5201
g62
I0
sg63
(lp5202
(I24
I7
tp5203
a(I22
I7
tp5204
a(I23
I8
tp5205
a(I23
I6
tp5206
asg67
(lp5207
sg69
(lp5208
I0
aI0
aI0
aI0
asba(iNavigator_0_0663
NODE
p5209
(dp5210
g62
I0
sg63
(lp5211
(I24
I8
tp5212
a(I22
I8
tp5213
a(I23
I9
tp5214
a(I23
I7
tp5215
asg67
(lp5216
sg69
(lp5217
I0
aI0
aI0
aI0
asba(iNavigator_0_0663
NODE
p5218
(dp5219
g62
I0
sg63
(lp5220
(I24
I9
tp5221
a(I22
I9
tp5222
a(I23
I10
tp5223
a(I23
I8
tp5224
asg67
(lp5225
sg69
(lp5226
I0
aI0
aI0
aI0
asba(iNavigator_0_0663
NODE
p5227
(dp5228
g62
I0
sg63
(lp5229
(I24
I10
tp5230
a(I22
I10
tp5231
a(I23
I11
tp5232
a(I23
I9
tp5233
asg67
(lp5234
sg69
(lp5235
I0
aI0
aI0
aI0
asba(iNavigator_0_0663
NODE
p5236
(dp5237
g62
I0
sg63
(lp5238
(I24
I11
tp5239
a(I22
I11
tp5240
a(I23
I12
tp5241
a(I23
I10
tp5242
asg67
(lp5243
sg69
(lp5244
I0
aI0
aI0
aI0
asba(iNavigator_0_0663
NODE
p5245
(dp5246
g62
I0
sg63
(lp5247
(I24
I12
tp5248
a(I22
I12
tp5249
a(I23
I13
tp5250
a(I23
I11
tp5251
asg67
(lp5252
sg69
(lp5253
I0
aI0
aI0
aI0
asba(iNavigator_0_0663
NODE
p5254
(dp5255
g62
I0
sg63
(lp5256
(I24
I13
tp5257
a(I22
I13
tp5258
a(I23
I14
tp5259
a(I23
I12
tp5260
asg67
(lp5261
sg69
(lp5262
I0
aI0
aI0
aI0
asba(iNavigator_0_0663
NODE
p5263
(dp5264
g62
I0
sg63
(lp5265
(I24
I14
tp5266
a(I22
I14
tp5267
a(I23
I15
tp5268
a(I23
I13
tp5269
asg67
(lp5270
sg69
(lp5271
I0
aI0
aI0
aI0
asba(iNavigator_0_0663
NODE
p5272
(dp5273
g62
I0
sg63
(lp5274
(I24
I15
tp5275
a(I22
I15
tp5276
a(I23
I16
tp5277
a(I23
I14
tp5278
asg67
(lp5279
sg69
(lp5280
I0
aI0
aI0
aI0
asba(iNavigator_0_0663
NODE
p5281
(dp5282
g62
I0
sg63
(lp5283
(I24
I16
tp5284
a(I22
I16
tp5285
a(I23
I17
tp5286
a(I23
I15
tp5287
asg67
(lp5288
sg69
(lp5289
I0
aI0
aI0
aI0
asba(iNavigator_0_0663
NODE
p5290
(dp5291
g62
I0
sg63
(lp5292
(I24
I17
tp5293
a(I22
I17
tp5294
a(I23
I18
tp5295
a(I23
I16
tp5296
asg67
(lp5297
sg69
(lp5298
I0
aI0
aI0
aI0
asba(iNavigator_0_0663
NODE
p5299
(dp5300
g62
I0
sg63
(lp5301
(I24
I18
tp5302
a(I22
I18
tp5303
a(I23
I19
tp5304
a(I23
I17
tp5305
asg67
(lp5306
sg69
(lp5307
I0
aI0
aI0
aI0
asba(iNavigator_0_0663
NODE
p5308
(dp5309
g62
I0
sg63
(lp5310
(I24
I19
tp5311
a(I22
I19
tp5312
a(I23
I20
tp5313
a(I23
I18
tp5314
asg67
(lp5315
sg69
(lp5316
I0
aI0
aI0
aI0
asba(iNavigator_0_0663
NODE
p5317
(dp5318
g62
I0
sg63
(lp5319
(I24
I20
tp5320
a(I22
I20
tp5321
a(I23
I21
tp5322
a(I23
I19
tp5323
asg67
(lp5324
sg69
(lp5325
I0
aI0
aI0
aI0
asba(iNavigator_0_0663
NODE
p5326
(dp5327
g62
I0
sg63
(lp5328
(I24
I21
tp5329
a(I22
I21
tp5330
a(I23
I22
tp5331
a(I23
I20
tp5332
asg67
(lp5333
sg69
(lp5334
I0
aI0
aI0
aI0
asba(iNavigator_0_0663
NODE
p5335
(dp5336
g62
I0
sg63
(lp5337
(I24
I22
tp5338
a(I22
I22
tp5339
a(I23
I23
tp5340
a(I23
I21
tp5341
asg67
(lp5342
sg69
(lp5343
I0
aI0
aI0
aI0
asba(iNavigator_0_0663
NODE
p5344
(dp5345
g62
I0
sg63
(lp5346
(I24
I23
tp5347
a(I22
I23
tp5348
a(I23
I24
tp5349
a(I23
I22
tp5350
asg67
(lp5351
sg69
(lp5352
I0
aI0
aI0
aI0
asba(iNavigator_0_0663
NODE
p5353
(dp5354
g62
I0
sg63
(lp5355
(I24
I24
tp5356
a(I22
I24
tp5357
a(I23
I23
tp5358
asg67
(lp5359
sg69
(lp5360
I0
aI0
aI0
aI0
asbaa(lp5361
(iNavigator_0_0663
NODE
p5362
(dp5363
g62
I0
sg63
(lp5364
(I23
I0
tp5365
a(I24
I1
tp5366
asg67
(lp5367
sg69
(lp5368
I0
aI0
aI0
aI0
asba(iNavigator_0_0663
NODE
p5369
(dp5370
g62
I0
sg63
(lp5371
(I23
I1
tp5372
a(I24
I2
tp5373
a(I24
I0
tp5374
asg67
(lp5375
sg69
(lp5376
I0
aI0
aI0
aI0
asba(iNavigator_0_0663
NODE
p5377
(dp5378
g62
I0
sg63
(lp5379
(I23
I2
tp5380
a(I24
I3
tp5381
a(I24
I1
tp5382
asg67
(lp5383
sg69
(lp5384
I0
aI0
aI0
aI0
asba(iNavigator_0_0663
NODE
p5385
(dp5386
g62
I0
sg63
(lp5387
(I23
I3
tp5388
a(I24
I4
tp5389
a(I24
I2
tp5390
asg67
(lp5391
sg69
(lp5392
I0
aI0
aI0
aI0
asba(iNavigator_0_0663
NODE
p5393
(dp5394
g62
I0
sg63
(lp5395
(I23
I4
tp5396
a(I24
I5
tp5397
a(I24
I3
tp5398
asg67
(lp5399
sg69
(lp5400
I0
aI0
aI0
aI0
asba(iNavigator_0_0663
NODE
p5401
(dp5402
g62
I0
sg63
(lp5403
(I23
I5
tp5404
a(I24
I6
tp5405
a(I24
I4
tp5406
asg67
(lp5407
sg69
(lp5408
I0
aI0
aI0
aI0
asba(iNavigator_0_0663
NODE
p5409
(dp5410
g62
I0
sg63
(lp5411
(I23
I6
tp5412
a(I24
I7
tp5413
a(I24
I5
tp5414
asg67
(lp5415
sg69
(lp5416
I0
aI0
aI0
aI0
asba(iNavigator_0_0663
NODE
p5417
(dp5418
g62
I0
sg63
(lp5419
(I23
I7
tp5420
a(I24
I8
tp5421
a(I24
I6
tp5422
asg67
(lp5423
sg69
(lp5424
I0
aI0
aI0
aI0
asba(iNavigator_0_0663
NODE
p5425
(dp5426
g62
I0
sg63
(lp5427
(I23
I8
tp5428
a(I24
I9
tp5429
a(I24
I7
tp5430
asg67
(lp5431
sg69
(lp5432
I0
aI0
aI0
aI0
asba(iNavigator_0_0663
NODE
p5433
(dp5434
g62
I0
sg63
(lp5435
(I23
I9
tp5436
a(I24
I10
tp5437
a(I24
I8
tp5438
asg67
(lp5439
sg69
(lp5440
I0
aI0
aI0
aI0
asba(iNavigator_0_0663
NODE
p5441
(dp5442
g62
I0
sg63
(lp5443
(I23
I10
tp5444
a(I24
I11
tp5445
a(I24
I9
tp5446
asg67
(lp5447
sg69
(lp5448
I0
aI0
aI0
aI0
asba(iNavigator_0_0663
NODE
p5449
(dp5450
g62
I0
sg63
(lp5451
(I23
I11
tp5452
a(I24
I12
tp5453
a(I24
I10
tp5454
asg67
(lp5455
sg69
(lp5456
I0
aI0
aI0
aI0
asba(iNavigator_0_0663
NODE
p5457
(dp5458
g62
I0
sg63
(lp5459
(I23
I12
tp5460
a(I24
I13
tp5461
a(I24
I11
tp5462
asg67
(lp5463
sg69
(lp5464
I0
aI0
aI0
aI0
asba(iNavigator_0_0663
NODE
p5465
(dp5466
g62
I0
sg63
(lp5467
(I23
I13
tp5468
a(I24
I14
tp5469
a(I24
I12
tp5470
asg67
(lp5471
sg69
(lp5472
I0
aI0
aI0
aI0
asba(iNavigator_0_0663
NODE
p5473
(dp5474
g62
I0
sg63
(lp5475
(I23
I14
tp5476
a(I24
I15
tp5477
a(I24
I13
tp5478
asg67
(lp5479
sg69
(lp5480
I0
aI0
aI0
aI0
asba(iNavigator_0_0663
NODE
p5481
(dp5482
g62
I0
sg63
(lp5483
(I23
I15
tp5484
a(I24
I16
tp5485
a(I24
I14
tp5486
asg67
(lp5487
sg69
(lp5488
I0
aI0
aI0
aI0
asba(iNavigator_0_0663
NODE
p5489
(dp5490
g62
I0
sg63
(lp5491
(I23
I16
tp5492
a(I24
I17
tp5493
a(I24
I15
tp5494
asg67
(lp5495
sg69
(lp5496
I0
aI0
aI0
aI0
asba(iNavigator_0_0663
NODE
p5497
(dp5498
g62
I0
sg63
(lp5499
(I23
I17
tp5500
a(I24
I18
tp5501
a(I24
I16
tp5502
asg67
(lp5503
sg69
(lp5504
I0
aI0
aI0
aI0
asba(iNavigator_0_0663
NODE
p5505
(dp5506
g62
I0
sg63
(lp5507
(I23
I18
tp5508
a(I24
I19
tp5509
a(I24
I17
tp5510
asg67
(lp5511
sg69
(lp5512
I0
aI0
aI0
aI0
asba(iNavigator_0_0663
NODE
p5513
(dp5514
g62
I0
sg63
(lp5515
(I23
I19
tp5516
a(I24
I20
tp5517
a(I24
I18
tp5518
asg67
(lp5519
sg69
(lp5520
I0
aI0
aI0
aI0
asba(iNavigator_0_0663
NODE
p5521
(dp5522
g62
I0
sg63
(lp5523
(I23
I20
tp5524
a(I24
I21
tp5525
a(I24
I19
tp5526
asg67
(lp5527
sg69
(lp5528
I0
aI0
aI0
aI0
asba(iNavigator_0_0663
NODE
p5529
(dp5530
g62
I0
sg63
(lp5531
(I23
I21
tp5532
a(I24
I22
tp5533
a(I24
I20
tp5534
asg67
(lp5535
sg69
(lp5536
I0
aI0
aI0
aI0
asba(iNavigator_0_0663
NODE
p5537
(dp5538
g62
I0
sg63
(lp5539
(I23
I22
tp5540
a(I24
I23
tp5541
a(I24
I21
tp5542
asg67
(lp5543
sg69
(lp5544
I0
aI0
aI0
aI0
asba(iNavigator_0_0663
NODE
p5545
(dp5546
g62
I0
sg63
(lp5547
(I23
I23
tp5548
a(I24
I24
tp5549
a(I24
I22
tp5550
asg67
(lp5551
sg69
(lp5552
I0
aI0
aI0
aI0
asba(iNavigator_0_0663
NODE
p5553
(dp5554
g62
I0
sg63
(lp5555
(I23
I24
tp5556
a(I24
I23
tp5557
asg67
(lp5558
sg69
(lp5559
I0
aI0
aI0
aI0
asbaasb(lp5560
(lp5561
(lp5562
S'Chair'
p5563
aS'SharedMedia/Objects/Chair42_vrc.wrl'
p5564
aS'None'
p5565
ag5565
aI1
aI-1
aI0
aS'blue'
p5566
aaF362.0
aF0.0
aF402.0
aF225.0
aa(lp5567
(lp5568
S'Coatrack'
p5569
aS'SharedMedia/Objects/Coatrack_vrc.wrl'
p5570
ag5565
ag5565
aI1
aI-1
aI0
aS'cyan'
p5571
aaF442.0
aF0.0
aF402.0
aF225.0
aa(lp5572
(lp5573
S'Barstool'
p5574
aS'SharedMedia/Objects/Barstool_vrc.wrl'
p5575
ag5565
ag5565
aI1
aI-1
aI0
aS'green'
p5576
aaF322.0
aF0.0
aF442.0
aF225.0
aa(lp5577
(lp5578
S'Lamp'
p5579
aS'SharedMedia/Objects/Lamp02_vrc.wrl'
p5580
ag5565
ag5565
aI1
aI-1
aI0
aS'yellow'
p5581
aaF362.0
aF0.0
aF442.0
aF225.0
aa(lp5582
g5568
aF402.0
aF0.0
aF442.0
aF225.0
aa(lp5583
g5573
aF442.0
aF0.0
aF442.0
aF225.0
aa(lp5584
g5562
aF522.0
aF0.0
aF442.0
aF225.0
aa(lp5585
(lp5586
S'Bench'
p5587
aS'SharedMedia/Objects/Sofa05_vrc.wrl'
p5588
ag5565
ag5565
aI1
aI-1
aI0
aS'magenta'
p5589
aaF482.0
aF0.0
aF522.0
aF225.0
aa(lp5590
g5578
aF562.0
aF0.0
aF522.0
aF225.0
aa(lp5591
g5573
ag5562
ag5578
ag5586
ag5568
a(lp5592
S'Easel'
p5593
aS'SharedMedia/Objects/Easel_vrc.wrl'
p5594
ag5565
ag5565
aI1
aI-1
aI0
aS'orange'
p5595
aa(lp5596
(g5573
I10
tp5597
a(g5562
I10
tp5598
a(g5578
I10
tp5599
a(g5586
I10
tp5600
a(g5568
I10
tp5601
a(g5592
I10
tp5602
a(lp5603
(lp5604
F2.0
aF0.0
aF2.0
aF225.0
aa(lp5605
(lp5606
(lp5607
(I1
(lp5608
F400.0
aF-400.0
aS'None'
p5609
S'None'
p5610
tp5611
a(I2
(lp5612
F360.0
aF-440.0
aS'None'
p5613
S'None'
p5614
tp5615
a(I3
(lp5616
F520.0
aF-480.0
aS'None'
p5617
S'None'
p5618
tp5619
a(I4
(lp5620
F320.0
aF-400.0
aS'None'
p5621
S'None'
p5622
tp5623
a(I5
(lp5624
F480.0
aF-440.0
aS'None'
p5625
S'None'
p5626
tp5627
a(I6
(lp5628
F440.0
aF-520.0
aS'None'
p5629
S'None'
p5630
tp5631
a(I7
(lp5632
F440.0
aF-480.0
aS'None'
p5633
S'None'
p5634
tp5635
aNtp5636
.