((iNavigator_0_0663
PLAT
p0
(dp1
S'ChosenList'
p2
(lp3
(I0
I5
tp4
a(I1
I5
tp5
a(I2
I5
tp6
a(I3
I5
tp7
a(I0
I6
tp8
a(I1
I6
tp9
a(I2
I6
tp10
a(I3
I6
tp11
a(I0
I7
tp12
a(I1
I7
tp13
a(I2
I7
tp14
a(I3
I7
tp15
a(I0
I8
tp16
a(I1
I8
tp17
a(I3
I8
tp18
a(I4
I7
tp19
a(I4
I8
tp20
a(I2
I8
tp21
a(I0
I9
tp22
a(I1
I9
tp23
a(I2
I9
tp24
a(I0
I10
tp25
a(I1
I10
tp26
a(I2
I10
tp27
a(I0
I11
tp28
a(I1
I11
tp29
a(I0
I12
tp30
a(I1
I12
tp31
asS'Nodes'
p32
(lp33
(lp34
(iNavigator_0_0663
NODE
p35
(dp36
S'View'
p37
(lp38
I0
aI0
aI0
aI0
asS'Linked'
p39
(lp40
sS'ProspectList'
p41
(lp42
(I1
I0
tp43
a(I0
I1
tp44
asS'Active'
p45
I0
sba(iNavigator_0_0663
NODE
p46
(dp47
g37
(lp48
I0
aI0
aI0
aI0
asg39
(lp49
sg41
(lp50
(I1
I1
tp51
a(I0
I2
tp52
a(I0
I0
tp53
asg45
I0
sba(iNavigator_0_0663
NODE
p54
(dp55
g37
(lp56
I0
aI0
aI0
aI0
asg39
(lp57
sg41
(lp58
(I1
I2
tp59
a(I0
I3
tp60
a(I0
I1
tp61
asg45
I0
sba(iNavigator_0_0663
NODE
p62
(dp63
g37
(lp64
I0
aI0
aI0
aI0
asg39
(lp65
sg41
(lp66
(I1
I3
tp67
a(I0
I4
tp68
a(I0
I2
tp69
asg45
I0
sba(iNavigator_0_0663
NODE
p70
(dp71
g37
(lp72
I0
aI0
aI0
aI0
asg39
(lp73
sg41
(lp74
(I1
I4
tp75
a(I0
I5
tp76
a(I0
I3
tp77
asg45
I0
sba(iNavigator_0_0663
NODE
p78
(dp79
g37
(lp80
I0
aI0
aI0
aI0
asg39
(lp81
(I1
I5
tp82
a(I0
I6
tp83
asg41
(lp84
(I1
I5
tp85
a(I0
I6
tp86
a(I0
I4
tp87
asg45
I0
sba(iNavigator_0_0663
NODE
p88
(dp89
g37
(lp90
I0
aI0
aI0
aI0
asg39
(lp91
(I0
I5
tp92
a(I1
I6
tp93
a(I0
I7
tp94
asg41
(lp95
(I1
I6
tp96
a(I0
I7
tp97
a(I0
I5
tp98
asg45
I0
sba(iNavigator_0_0663
NODE
p99
(dp100
g37
(lp101
I0
aI0
aI0
aI0
asg39
(lp102
(I0
I6
tp103
a(I1
I7
tp104
a(I0
I8
tp105
asg41
(lp106
(I1
I7
tp107
a(I0
I8
tp108
a(I0
I6
tp109
asg45
I0
sba(iNavigator_0_0663
NODE
p110
(dp111
g37
(lp112
I0
aI0
aI0
aI0
asg39
(lp113
(I0
I7
tp114
a(I1
I8
tp115
a(I0
I9
tp116
asg41
(lp117
(I1
I8
tp118
a(I0
I9
tp119
a(I0
I7
tp120
asg45
I0
sba(iNavigator_0_0663
NODE
p121
(dp122
g37
(lp123
I0
aI0
aI0
aI0
asg39
(lp124
(I0
I8
tp125
a(I1
I9
tp126
a(I0
I10
tp127
asg41
(lp128
(I1
I9
tp129
a(I0
I10
tp130
a(I0
I8
tp131
asg45
I0
sba(iNavigator_0_0663
NODE
p132
(dp133
g37
(lp134
I0
aI0
aI0
aI0
asg39
(lp135
(I0
I9
tp136
a(I1
I10
tp137
a(I0
I11
tp138
asg41
(lp139
(I1
I10
tp140
a(I0
I11
tp141
a(I0
I9
tp142
asg45
I0
sba(iNavigator_0_0663
NODE
p143
(dp144
g37
(lp145
I0
aI0
aI0
aI0
asg39
(lp146
(I0
I10
tp147
a(I1
I11
tp148
a(I0
I12
tp149
asg41
(lp150
(I1
I11
tp151
a(I0
I12
tp152
a(I0
I10
tp153
asg45
I0
sba(iNavigator_0_0663
NODE
p154
(dp155
g37
(lp156
I0
aI0
aI0
aI0
asg39
(lp157
(I0
I11
tp158
a(I1
I12
tp159
asg41
(lp160
(I1
I12
tp161
a(I0
I13
tp162
a(I0
I11
tp163
asg45
I0
sba(iNavigator_0_0663
NODE
p164
(dp165
g37
(lp166
I0
aI0
aI0
aI0
asg39
(lp167
sg41
(lp168
(I1
I13
tp169
a(I0
I14
tp170
a(I0
I12
tp171
asg45
I0
sba(iNavigator_0_0663
NODE
p172
(dp173
g37
(lp174
I0
aI0
aI0
aI0
asg39
(lp175
sg41
(lp176
(I1
I14
tp177
a(I0
I15
tp178
a(I0
I13
tp179
asg45
I0
sba(iNavigator_0_0663
NODE
p180
(dp181
g37
(lp182
I0
aI0
aI0
aI0
asg39
(lp183
sg41
(lp184
(I1
I15
tp185
a(I0
I16
tp186
a(I0
I14
tp187
asg45
I0
sba(iNavigator_0_0663
NODE
p188
(dp189
g37
(lp190
I0
aI0
aI0
aI0
asg39
(lp191
sg41
(lp192
(I1
I16
tp193
a(I0
I17
tp194
a(I0
I15
tp195
asg45
I0
sba(iNavigator_0_0663
NODE
p196
(dp197
g37
(lp198
I0
aI0
aI0
aI0
asg39
(lp199
sg41
(lp200
(I1
I17
tp201
a(I0
I18
tp202
a(I0
I16
tp203
asg45
I0
sba(iNavigator_0_0663
NODE
p204
(dp205
g37
(lp206
I0
aI0
aI0
aI0
asg39
(lp207
sg41
(lp208
(I1
I18
tp209
a(I0
I19
tp210
a(I0
I17
tp211
asg45
I0
sba(iNavigator_0_0663
NODE
p212
(dp213
g37
(lp214
I0
aI0
aI0
aI0
asg39
(lp215
sg41
(lp216
(I1
I19
tp217
a(I0
I20
tp218
a(I0
I18
tp219
asg45
I0
sba(iNavigator_0_0663
NODE
p220
(dp221
g37
(lp222
I0
aI0
aI0
aI0
asg39
(lp223
sg41
(lp224
(I1
I20
tp225
a(I0
I21
tp226
a(I0
I19
tp227
asg45
I0
sba(iNavigator_0_0663
NODE
p228
(dp229
g37
(lp230
I0
aI0
aI0
aI0
asg39
(lp231
sg41
(lp232
(I1
I21
tp233
a(I0
I22
tp234
a(I0
I20
tp235
asg45
I0
sba(iNavigator_0_0663
NODE
p236
(dp237
g37
(lp238
I0
aI0
aI0
aI0
asg39
(lp239
sg41
(lp240
(I1
I22
tp241
a(I0
I23
tp242
a(I0
I21
tp243
asg45
I0
sba(iNavigator_0_0663
NODE
p244
(dp245
g37
(lp246
I0
aI0
aI0
aI0
asg39
(lp247
sg41
(lp248
(I1
I23
tp249
a(I0
I24
tp250
a(I0
I22
tp251
asg45
I0
sba(iNavigator_0_0663
NODE
p252
(dp253
g37
(lp254
I0
aI0
aI0
aI0
asg39
(lp255
sg41
(lp256
(I1
I24
tp257
a(I0
I23
tp258
asg45
I0
sbaa(lp259
(iNavigator_0_0663
NODE
p260
(dp261
g37
(lp262
I0
aI0
aI0
aI0
asg39
(lp263
sg41
(lp264
(I2
I0
tp265
a(I0
I0
tp266
a(I1
I1
tp267
asg45
I0
sba(iNavigator_0_0663
NODE
p268
(dp269
g37
(lp270
I0
aI0
aI0
aI0
asg39
(lp271
sg41
(lp272
(I2
I1
tp273
a(I0
I1
tp274
a(I1
I2
tp275
a(I1
I0
tp276
asg45
I0
sba(iNavigator_0_0663
NODE
p277
(dp278
g37
(lp279
I0
aI0
aI0
aI0
asg39
(lp280
sg41
(lp281
(I2
I2
tp282
a(I0
I2
tp283
a(I1
I3
tp284
a(I1
I1
tp285
asg45
I0
sba(iNavigator_0_0663
NODE
p286
(dp287
g37
(lp288
I0
aI0
aI0
aI0
asg39
(lp289
sg41
(lp290
(I2
I3
tp291
a(I0
I3
tp292
a(I1
I4
tp293
a(I1
I2
tp294
asg45
I0
sba(iNavigator_0_0663
NODE
p295
(dp296
g37
(lp297
I0
aI0
aI0
aI0
asg39
(lp298
sg41
(lp299
(I2
I4
tp300
a(I0
I4
tp301
a(I1
I5
tp302
a(I1
I3
tp303
asg45
I0
sba(iNavigator_0_0663
NODE
p304
(dp305
g37
(lp306
I0
aI0
aI0
aI0
asg39
(lp307
(I0
I5
tp308
a(I2
I5
tp309
a(I1
I6
tp310
asg41
(lp311
(I2
I5
tp312
a(I0
I5
tp313
a(I1
I6
tp314
a(I1
I4
tp315
asg45
I0
sba(iNavigator_0_0663
NODE
p316
(dp317
g37
(lp318
I0
aI0
aI0
aI0
asg39
(lp319
(I1
I5
tp320
a(I0
I6
tp321
a(I2
I6
tp322
a(I1
I7
tp323
asg41
(lp324
(I2
I6
tp325
a(I0
I6
tp326
a(I1
I7
tp327
a(I1
I5
tp328
asg45
I0
sba(iNavigator_0_0663
NODE
p329
(dp330
g37
(lp331
I0
aI0
aI0
aI0
asg39
(lp332
(I1
I6
tp333
a(I0
I7
tp334
a(I2
I7
tp335
a(I1
I8
tp336
asg41
(lp337
(I2
I7
tp338
a(I0
I7
tp339
a(I1
I8
tp340
a(I1
I6
tp341
asg45
I0
sba(iNavigator_0_0663
NODE
p342
(dp343
g37
(lp344
I0
aI0
aI0
aI0
asg39
(lp345
(I1
I7
tp346
a(I0
I8
tp347
a(I2
I8
tp348
a(I1
I9
tp349
asg41
(lp350
(I2
I8
tp351
a(I0
I8
tp352
a(I1
I9
tp353
a(I1
I7
tp354
asg45
I0
sba(iNavigator_0_0663
NODE
p355
(dp356
g37
(lp357
I0
aI0
aI0
aI0
asg39
(lp358
(I1
I8
tp359
a(I0
I9
tp360
a(I2
I9
tp361
a(I1
I10
tp362
asg41
(lp363
(I2
I9
tp364
a(I0
I9
tp365
a(I1
I10
tp366
a(I1
I8
tp367
asg45
I0
sba(iNavigator_0_0663
NODE
p368
(dp369
g37
(lp370
I0
aI0
aI0
aI0
asg39
(lp371
(I1
I9
tp372
a(I0
I10
tp373
a(I2
I10
tp374
asg41
(lp375
(I2
I10
tp376
a(I0
I10
tp377
a(I1
I11
tp378
a(I1
I9
tp379
asg45
I0
sba(iNavigator_0_0663
NODE
p380
(dp381
g37
(lp382
I0
aI0
aI0
aI0
asg39
(lp383
(I0
I11
tp384
a(I1
I12
tp385
asg41
(lp386
(I2
I11
tp387
a(I0
I11
tp388
a(I1
I12
tp389
a(I1
I10
tp390
asg45
I0
sba(iNavigator_0_0663
NODE
p391
(dp392
g37
(lp393
I0
aI0
aI0
aI0
asg39
(lp394
(I1
I11
tp395
a(I0
I12
tp396
asg41
(lp397
(I2
I12
tp398
a(I0
I12
tp399
a(I1
I13
tp400
a(I1
I11
tp401
asg45
I0
sba(iNavigator_0_0663
NODE
p402
(dp403
g37
(lp404
I0
aI0
aI0
aI0
asg39
(lp405
sg41
(lp406
(I2
I13
tp407
a(I0
I13
tp408
a(I1
I14
tp409
a(I1
I12
tp410
asg45
I0
sba(iNavigator_0_0663
NODE
p411
(dp412
g37
(lp413
I0
aI0
aI0
aI0
asg39
(lp414
sg41
(lp415
(I2
I14
tp416
a(I0
I14
tp417
a(I1
I15
tp418
a(I1
I13
tp419
asg45
I0
sba(iNavigator_0_0663
NODE
p420
(dp421
g37
(lp422
I0
aI0
aI0
aI0
asg39
(lp423
sg41
(lp424
(I2
I15
tp425
a(I0
I15
tp426
a(I1
I16
tp427
a(I1
I14
tp428
asg45
I0
sba(iNavigator_0_0663
NODE
p429
(dp430
g37
(lp431
I0
aI0
aI0
aI0
asg39
(lp432
sg41
(lp433
(I2
I16
tp434
a(I0
I16
tp435
a(I1
I17
tp436
a(I1
I15
tp437
asg45
I0
sba(iNavigator_0_0663
NODE
p438
(dp439
g37
(lp440
I0
aI0
aI0
aI0
asg39
(lp441
sg41
(lp442
(I2
I17
tp443
a(I0
I17
tp444
a(I1
I18
tp445
a(I1
I16
tp446
asg45
I0
sba(iNavigator_0_0663
NODE
p447
(dp448
g37
(lp449
I0
aI0
aI0
aI0
asg39
(lp450
sg41
(lp451
(I2
I18
tp452
a(I0
I18
tp453
a(I1
I19
tp454
a(I1
I17
tp455
asg45
I0
sba(iNavigator_0_0663
NODE
p456
(dp457
g37
(lp458
I0
aI0
aI0
aI0
asg39
(lp459
sg41
(lp460
(I2
I19
tp461
a(I0
I19
tp462
a(I1
I20
tp463
a(I1
I18
tp464
asg45
I0
sba(iNavigator_0_0663
NODE
p465
(dp466
g37
(lp467
I0
aI0
aI0
aI0
asg39
(lp468
sg41
(lp469
(I2
I20
tp470
a(I0
I20
tp471
a(I1
I21
tp472
a(I1
I19
tp473
asg45
I0
sba(iNavigator_0_0663
NODE
p474
(dp475
g37
(lp476
I0
aI0
aI0
aI0
asg39
(lp477
sg41
(lp478
(I2
I21
tp479
a(I0
I21
tp480
a(I1
I22
tp481
a(I1
I20
tp482
asg45
I0
sba(iNavigator_0_0663
NODE
p483
(dp484
g37
(lp485
I0
aI0
aI0
aI0
asg39
(lp486
sg41
(lp487
(I2
I22
tp488
a(I0
I22
tp489
a(I1
I23
tp490
a(I1
I21
tp491
asg45
I0
sba(iNavigator_0_0663
NODE
p492
(dp493
g37
(lp494
I0
aI0
aI0
aI0
asg39
(lp495
sg41
(lp496
(I2
I23
tp497
a(I0
I23
tp498
a(I1
I24
tp499
a(I1
I22
tp500
asg45
I0
sba(iNavigator_0_0663
NODE
p501
(dp502
g37
(lp503
I0
aI0
aI0
aI0
asg39
(lp504
sg41
(lp505
(I2
I24
tp506
a(I0
I24
tp507
a(I1
I23
tp508
asg45
I0
sbaa(lp509
(iNavigator_0_0663
NODE
p510
(dp511
g37
(lp512
I0
aI0
aI0
aI0
asg39
(lp513
sg41
(lp514
(I3
I0
tp515
a(I1
I0
tp516
a(I2
I1
tp517
asg45
I0
sba(iNavigator_0_0663
NODE
p518
(dp519
g37
(lp520
I0
aI0
aI0
aI0
asg39
(lp521
sg41
(lp522
(I3
I1
tp523
a(I1
I1
tp524
a(I2
I2
tp525
a(I2
I0
tp526
asg45
I0
sba(iNavigator_0_0663
NODE
p527
(dp528
g37
(lp529
I0
aI0
aI0
aI0
asg39
(lp530
sg41
(lp531
(I3
I2
tp532
a(I1
I2
tp533
a(I2
I3
tp534
a(I2
I1
tp535
asg45
I0
sba(iNavigator_0_0663
NODE
p536
(dp537
g37
(lp538
I0
aI0
aI0
aI0
asg39
(lp539
sg41
(lp540
(I3
I3
tp541
a(I1
I3
tp542
a(I2
I4
tp543
a(I2
I2
tp544
asg45
I0
sba(iNavigator_0_0663
NODE
p545
(dp546
g37
(lp547
I0
aI0
aI0
aI0
asg39
(lp548
sg41
(lp549
(I3
I4
tp550
a(I1
I4
tp551
a(I2
I5
tp552
a(I2
I3
tp553
asg45
I0
sba(iNavigator_0_0663
NODE
p554
(dp555
g37
(lp556
I0
aI0
aI0
aI0
asg39
(lp557
(I1
I5
tp558
a(I3
I5
tp559
a(I2
I6
tp560
asg41
(lp561
(I3
I5
tp562
a(I1
I5
tp563
a(I2
I6
tp564
a(I2
I4
tp565
asg45
I0
sba(iNavigator_0_0663
NODE
p566
(dp567
g37
(lp568
I0
aI0
aI0
aI0
asg39
(lp569
(I2
I5
tp570
a(I1
I6
tp571
a(I3
I6
tp572
a(I2
I7
tp573
asg41
(lp574
(I3
I6
tp575
a(I1
I6
tp576
a(I2
I7
tp577
a(I2
I5
tp578
asg45
I0
sba(iNavigator_0_0663
NODE
p579
(dp580
g37
(lp581
I0
aI0
aI0
aI0
asg39
(lp582
(I2
I6
tp583
a(I1
I7
tp584
a(I3
I7
tp585
asg41
(lp586
(I3
I7
tp587
a(I1
I7
tp588
a(I2
I8
tp589
a(I2
I6
tp590
asg45
I0
sba(iNavigator_0_0663
NODE
p591
(dp592
g37
(lp593
I0
aI0
aI0
aI0
asg39
(lp594
(I1
I8
tp595
a(I3
I8
tp596
a(I2
I9
tp597
asg41
(lp598
(I3
I8
tp599
a(I1
I8
tp600
a(I2
I9
tp601
a(I2
I7
tp602
asg45
I0
sba(iNavigator_0_0663
NODE
p603
(dp604
g37
(lp605
I0
aI0
aI0
aI0
asg39
(lp606
(I2
I8
tp607
a(I1
I9
tp608
a(I2
I10
tp609
asg41
(lp610
(I3
I9
tp611
a(I1
I9
tp612
a(I2
I10
tp613
a(I2
I8
tp614
asg45
I0
sba(iNavigator_0_0663
NODE
p615
(dp616
g37
(lp617
I0
aI0
aI0
aI0
asg39
(lp618
(I2
I9
tp619
a(I1
I10
tp620
asg41
(lp621
(I3
I10
tp622
a(I1
I10
tp623
a(I2
I11
tp624
a(I2
I9
tp625
asg45
I0
sba(iNavigator_0_0663
NODE
p626
(dp627
g37
(lp628
I0
aI0
aI0
aI0
asg39
(lp629
sg41
(lp630
(I3
I11
tp631
a(I1
I11
tp632
a(I2
I12
tp633
a(I2
I10
tp634
asg45
I0
sba(iNavigator_0_0663
NODE
p635
(dp636
g37
(lp637
I0
aI0
aI0
aI0
asg39
(lp638
sg41
(lp639
(I3
I12
tp640
a(I1
I12
tp641
a(I2
I13
tp642
a(I2
I11
tp643
asg45
I0
sba(iNavigator_0_0663
NODE
p644
(dp645
g37
(lp646
I0
aI0
aI0
aI0
asg39
(lp647
sg41
(lp648
(I3
I13
tp649
a(I1
I13
tp650
a(I2
I14
tp651
a(I2
I12
tp652
asg45
I0
sba(iNavigator_0_0663
NODE
p653
(dp654
g37
(lp655
I0
aI0
aI0
aI0
asg39
(lp656
sg41
(lp657
(I3
I14
tp658
a(I1
I14
tp659
a(I2
I15
tp660
a(I2
I13
tp661
asg45
I0
sba(iNavigator_0_0663
NODE
p662
(dp663
g37
(lp664
I0
aI0
aI0
aI0
asg39
(lp665
sg41
(lp666
(I3
I15
tp667
a(I1
I15
tp668
a(I2
I16
tp669
a(I2
I14
tp670
asg45
I0
sba(iNavigator_0_0663
NODE
p671
(dp672
g37
(lp673
I0
aI0
aI0
aI0
asg39
(lp674
sg41
(lp675
(I3
I16
tp676
a(I1
I16
tp677
a(I2
I17
tp678
a(I2
I15
tp679
asg45
I0
sba(iNavigator_0_0663
NODE
p680
(dp681
g37
(lp682
I0
aI0
aI0
aI0
asg39
(lp683
sg41
(lp684
(I3
I17
tp685
a(I1
I17
tp686
a(I2
I18
tp687
a(I2
I16
tp688
asg45
I0
sba(iNavigator_0_0663
NODE
p689
(dp690
g37
(lp691
I0
aI0
aI0
aI0
asg39
(lp692
sg41
(lp693
(I3
I18
tp694
a(I1
I18
tp695
a(I2
I19
tp696
a(I2
I17
tp697
asg45
I0
sba(iNavigator_0_0663
NODE
p698
(dp699
g37
(lp700
I0
aI0
aI0
aI0
asg39
(lp701
sg41
(lp702
(I3
I19
tp703
a(I1
I19
tp704
a(I2
I20
tp705
a(I2
I18
tp706
asg45
I0
sba(iNavigator_0_0663
NODE
p707
(dp708
g37
(lp709
I0
aI0
aI0
aI0
asg39
(lp710
sg41
(lp711
(I3
I20
tp712
a(I1
I20
tp713
a(I2
I21
tp714
a(I2
I19
tp715
asg45
I0
sba(iNavigator_0_0663
NODE
p716
(dp717
g37
(lp718
I0
aI0
aI0
aI0
asg39
(lp719
sg41
(lp720
(I3
I21
tp721
a(I1
I21
tp722
a(I2
I22
tp723
a(I2
I20
tp724
asg45
I0
sba(iNavigator_0_0663
NODE
p725
(dp726
g37
(lp727
I0
aI0
aI0
aI0
asg39
(lp728
sg41
(lp729
(I3
I22
tp730
a(I1
I22
tp731
a(I2
I23
tp732
a(I2
I21
tp733
asg45
I0
sba(iNavigator_0_0663
NODE
p734
(dp735
g37
(lp736
I0
aI0
aI0
aI0
asg39
(lp737
sg41
(lp738
(I3
I23
tp739
a(I1
I23
tp740
a(I2
I24
tp741
a(I2
I22
tp742
asg45
I0
sba(iNavigator_0_0663
NODE
p743
(dp744
g37
(lp745
I0
aI0
aI0
aI0
asg39
(lp746
sg41
(lp747
(I3
I24
tp748
a(I1
I24
tp749
a(I2
I23
tp750
asg45
I0
sbaa(lp751
(iNavigator_0_0663
NODE
p752
(dp753
g37
(lp754
I0
aI0
aI0
aI0
asg39
(lp755
sg41
(lp756
(I4
I0
tp757
a(I2
I0
tp758
a(I3
I1
tp759
asg45
I0
sba(iNavigator_0_0663
NODE
p760
(dp761
g37
(lp762
I0
aI0
aI0
aI0
asg39
(lp763
sg41
(lp764
(I4
I1
tp765
a(I2
I1
tp766
a(I3
I2
tp767
a(I3
I0
tp768
asg45
I0
sba(iNavigator_0_0663
NODE
p769
(dp770
g37
(lp771
I0
aI0
aI0
aI0
asg39
(lp772
sg41
(lp773
(I4
I2
tp774
a(I2
I2
tp775
a(I3
I3
tp776
a(I3
I1
tp777
asg45
I0
sba(iNavigator_0_0663
NODE
p778
(dp779
g37
(lp780
I0
aI0
aI0
aI0
asg39
(lp781
sg41
(lp782
(I4
I3
tp783
a(I2
I3
tp784
a(I3
I4
tp785
a(I3
I2
tp786
asg45
I0
sba(iNavigator_0_0663
NODE
p787
(dp788
g37
(lp789
I0
aI0
aI0
aI0
asg39
(lp790
sg41
(lp791
(I4
I4
tp792
a(I2
I4
tp793
a(I3
I5
tp794
a(I3
I3
tp795
asg45
I0
sba(iNavigator_0_0663
NODE
p796
(dp797
g37
(lp798
I0
aI0
aI0
aI0
asg39
(lp799
(I2
I5
tp800
a(I3
I6
tp801
asg41
(lp802
(I4
I5
tp803
a(I2
I5
tp804
a(I3
I6
tp805
a(I3
I4
tp806
asg45
I0
sba(iNavigator_0_0663
NODE
p807
(dp808
g37
(lp809
I0
aI0
aI0
aI0
asg39
(lp810
(I3
I5
tp811
a(I2
I6
tp812
a(I3
I7
tp813
asg41
(lp814
(I4
I6
tp815
a(I2
I6
tp816
a(I3
I7
tp817
a(I3
I5
tp818
asg45
I0
sba(iNavigator_0_0663
NODE
p819
(dp820
g37
(lp821
I0
aI0
aI0
aI0
asg39
(lp822
(I3
I6
tp823
a(I2
I7
tp824
a(I3
I8
tp825
asg41
(lp826
(I4
I7
tp827
a(I2
I7
tp828
a(I3
I8
tp829
a(I3
I6
tp830
asg45
I0
sba(iNavigator_0_0663
NODE
p831
(dp832
g37
(lp833
I0
aI0
aI0
aI0
asg39
(lp834
(I3
I7
tp835
a(I2
I8
tp836
a(I4
I8
tp837
asg41
(lp838
(I4
I8
tp839
a(I2
I8
tp840
a(I3
I9
tp841
a(I3
I7
tp842
asg45
I0
sba(iNavigator_0_0663
NODE
p843
(dp844
g37
(lp845
I0
aI0
aI0
aI0
asg39
(lp846
sg41
(lp847
(I4
I9
tp848
a(I2
I9
tp849
a(I3
I10
tp850
a(I3
I8
tp851
asg45
I0
sba(iNavigator_0_0663
NODE
p852
(dp853
g37
(lp854
I0
aI0
aI0
aI0
asg39
(lp855
sg41
(lp856
(I4
I10
tp857
a(I2
I10
tp858
a(I3
I11
tp859
a(I3
I9
tp860
asg45
I0
sba(iNavigator_0_0663
NODE
p861
(dp862
g37
(lp863
I0
aI0
aI0
aI0
asg39
(lp864
sg41
(lp865
(I4
I11
tp866
a(I2
I11
tp867
a(I3
I12
tp868
a(I3
I10
tp869
asg45
I0
sba(iNavigator_0_0663
NODE
p870
(dp871
g37
(lp872
I0
aI0
aI0
aI0
asg39
(lp873
sg41
(lp874
(I4
I12
tp875
a(I2
I12
tp876
a(I3
I13
tp877
a(I3
I11
tp878
asg45
I0
sba(iNavigator_0_0663
NODE
p879
(dp880
g37
(lp881
I0
aI0
aI0
aI0
asg39
(lp882
sg41
(lp883
(I4
I13
tp884
a(I2
I13
tp885
a(I3
I14
tp886
a(I3
I12
tp887
asg45
I0
sba(iNavigator_0_0663
NODE
p888
(dp889
g37
(lp890
I0
aI0
aI0
aI0
asg39
(lp891
sg41
(lp892
(I4
I14
tp893
a(I2
I14
tp894
a(I3
I15
tp895
a(I3
I13
tp896
asg45
I0
sba(iNavigator_0_0663
NODE
p897
(dp898
g37
(lp899
I0
aI0
aI0
aI0
asg39
(lp900
sg41
(lp901
(I4
I15
tp902
a(I2
I15
tp903
a(I3
I16
tp904
a(I3
I14
tp905
asg45
I0
sba(iNavigator_0_0663
NODE
p906
(dp907
g37
(lp908
I0
aI0
aI0
aI0
asg39
(lp909
sg41
(lp910
(I4
I16
tp911
a(I2
I16
tp912
a(I3
I17
tp913
a(I3
I15
tp914
asg45
I0
sba(iNavigator_0_0663
NODE
p915
(dp916
g37
(lp917
I0
aI0
aI0
aI0
asg39
(lp918
sg41
(lp919
(I4
I17
tp920
a(I2
I17
tp921
a(I3
I18
tp922
a(I3
I16
tp923
asg45
I0
sba(iNavigator_0_0663
NODE
p924
(dp925
g37
(lp926
I0
aI0
aI0
aI0
asg39
(lp927
sg41
(lp928
(I4
I18
tp929
a(I2
I18
tp930
a(I3
I19
tp931
a(I3
I17
tp932
asg45
I0
sba(iNavigator_0_0663
NODE
p933
(dp934
g37
(lp935
I0
aI0
aI0
aI0
asg39
(lp936
sg41
(lp937
(I4
I19
tp938
a(I2
I19
tp939
a(I3
I20
tp940
a(I3
I18
tp941
asg45
I0
sba(iNavigator_0_0663
NODE
p942
(dp943
g37
(lp944
I0
aI0
aI0
aI0
asg39
(lp945
sg41
(lp946
(I4
I20
tp947
a(I2
I20
tp948
a(I3
I21
tp949
a(I3
I19
tp950
asg45
I0
sba(iNavigator_0_0663
NODE
p951
(dp952
g37
(lp953
I0
aI0
aI0
aI0
asg39
(lp954
sg41
(lp955
(I4
I21
tp956
a(I2
I21
tp957
a(I3
I22
tp958
a(I3
I20
tp959
asg45
I0
sba(iNavigator_0_0663
NODE
p960
(dp961
g37
(lp962
I0
aI0
aI0
aI0
asg39
(lp963
sg41
(lp964
(I4
I22
tp965
a(I2
I22
tp966
a(I3
I23
tp967
a(I3
I21
tp968
asg45
I0
sba(iNavigator_0_0663
NODE
p969
(dp970
g37
(lp971
I0
aI0
aI0
aI0
asg39
(lp972
sg41
(lp973
(I4
I23
tp974
a(I2
I23
tp975
a(I3
I24
tp976
a(I3
I22
tp977
asg45
I0
sba(iNavigator_0_0663
NODE
p978
(dp979
g37
(lp980
I0
aI0
aI0
aI0
asg39
(lp981
sg41
(lp982
(I4
I24
tp983
a(I2
I24
tp984
a(I3
I23
tp985
asg45
I0
sbaa(lp986
(iNavigator_0_0663
NODE
p987
(dp988
g37
(lp989
I0
aI0
aI0
aI0
asg39
(lp990
sg41
(lp991
(I5
I0
tp992
a(I3
I0
tp993
a(I4
I1
tp994
asg45
I0
sba(iNavigator_0_0663
NODE
p995
(dp996
g37
(lp997
I0
aI0
aI0
aI0
asg39
(lp998
sg41
(lp999
(I5
I1
tp1000
a(I3
I1
tp1001
a(I4
I2
tp1002
a(I4
I0
tp1003
asg45
I0
sba(iNavigator_0_0663
NODE
p1004
(dp1005
g37
(lp1006
I0
aI0
aI0
aI0
asg39
(lp1007
sg41
(lp1008
(I5
I2
tp1009
a(I3
I2
tp1010
a(I4
I3
tp1011
a(I4
I1
tp1012
asg45
I0
sba(iNavigator_0_0663
NODE
p1013
(dp1014
g37
(lp1015
I0
aI0
aI0
aI0
asg39
(lp1016
sg41
(lp1017
(I5
I3
tp1018
a(I3
I3
tp1019
a(I4
I4
tp1020
a(I4
I2
tp1021
asg45
I0
sba(iNavigator_0_0663
NODE
p1022
(dp1023
g37
(lp1024
I0
aI0
aI0
aI0
asg39
(lp1025
sg41
(lp1026
(I5
I4
tp1027
a(I3
I4
tp1028
a(I4
I5
tp1029
a(I4
I3
tp1030
asg45
I0
sba(iNavigator_0_0663
NODE
p1031
(dp1032
g37
(lp1033
I0
aI0
aI0
aI0
asg39
(lp1034
sg41
(lp1035
(I5
I5
tp1036
a(I3
I5
tp1037
a(I4
I6
tp1038
a(I4
I4
tp1039
asg45
I0
sba(iNavigator_0_0663
NODE
p1040
(dp1041
g37
(lp1042
I0
aI0
aI0
aI0
asg39
(lp1043
sg41
(lp1044
(I5
I6
tp1045
a(I3
I6
tp1046
a(I4
I7
tp1047
a(I4
I5
tp1048
asg45
I0
sba(iNavigator_0_0663
NODE
p1049
(dp1050
g37
(lp1051
I0
aI0
aI0
aI0
asg39
(lp1052
(I4
I8
tp1053
asg41
(lp1054
(I5
I7
tp1055
a(I3
I7
tp1056
a(I4
I8
tp1057
a(I4
I6
tp1058
asg45
I0
sba(iNavigator_0_0663
NODE
p1059
(dp1060
g37
(lp1061
I0
aI0
aI0
aI0
asg39
(lp1062
(I4
I7
tp1063
a(I3
I8
tp1064
asg41
(lp1065
(I5
I8
tp1066
a(I3
I8
tp1067
a(I4
I9
tp1068
a(I4
I7
tp1069
asg45
I0
sba(iNavigator_0_0663
NODE
p1070
(dp1071
g37
(lp1072
I0
aI0
aI0
aI0
asg39
(lp1073
sg41
(lp1074
(I5
I9
tp1075
a(I3
I9
tp1076
a(I4
I10
tp1077
a(I4
I8
tp1078
asg45
I0
sba(iNavigator_0_0663
NODE
p1079
(dp1080
g37
(lp1081
I0
aI0
aI0
aI0
asg39
(lp1082
sg41
(lp1083
(I5
I10
tp1084
a(I3
I10
tp1085
a(I4
I11
tp1086
a(I4
I9
tp1087
asg45
I0
sba(iNavigator_0_0663
NODE
p1088
(dp1089
g37
(lp1090
I0
aI0
aI0
aI0
asg39
(lp1091
sg41
(lp1092
(I5
I11
tp1093
a(I3
I11
tp1094
a(I4
I12
tp1095
a(I4
I10
tp1096
asg45
I0
sba(iNavigator_0_0663
NODE
p1097
(dp1098
g37
(lp1099
I0
aI0
aI0
aI0
asg39
(lp1100
sg41
(lp1101
(I5
I12
tp1102
a(I3
I12
tp1103
a(I4
I13
tp1104
a(I4
I11
tp1105
asg45
I0
sba(iNavigator_0_0663
NODE
p1106
(dp1107
g37
(lp1108
I0
aI0
aI0
aI0
asg39
(lp1109
sg41
(lp1110
(I5
I13
tp1111
a(I3
I13
tp1112
a(I4
I14
tp1113
a(I4
I12
tp1114
asg45
I0
sba(iNavigator_0_0663
NODE
p1115
(dp1116
g37
(lp1117
I0
aI0
aI0
aI0
asg39
(lp1118
sg41
(lp1119
(I5
I14
tp1120
a(I3
I14
tp1121
a(I4
I15
tp1122
a(I4
I13
tp1123
asg45
I0
sba(iNavigator_0_0663
NODE
p1124
(dp1125
g37
(lp1126
I0
aI0
aI0
aI0
asg39
(lp1127
sg41
(lp1128
(I5
I15
tp1129
a(I3
I15
tp1130
a(I4
I16
tp1131
a(I4
I14
tp1132
asg45
I0
sba(iNavigator_0_0663
NODE
p1133
(dp1134
g37
(lp1135
I0
aI0
aI0
aI0
asg39
(lp1136
sg41
(lp1137
(I5
I16
tp1138
a(I3
I16
tp1139
a(I4
I17
tp1140
a(I4
I15
tp1141
asg45
I0
sba(iNavigator_0_0663
NODE
p1142
(dp1143
g37
(lp1144
I0
aI0
aI0
aI0
asg39
(lp1145
sg41
(lp1146
(I5
I17
tp1147
a(I3
I17
tp1148
a(I4
I18
tp1149
a(I4
I16
tp1150
asg45
I0
sba(iNavigator_0_0663
NODE
p1151
(dp1152
g37
(lp1153
I0
aI0
aI0
aI0
asg39
(lp1154
sg41
(lp1155
(I5
I18
tp1156
a(I3
I18
tp1157
a(I4
I19
tp1158
a(I4
I17
tp1159
asg45
I0
sba(iNavigator_0_0663
NODE
p1160
(dp1161
g37
(lp1162
I0
aI0
aI0
aI0
asg39
(lp1163
sg41
(lp1164
(I5
I19
tp1165
a(I3
I19
tp1166
a(I4
I20
tp1167
a(I4
I18
tp1168
asg45
I0
sba(iNavigator_0_0663
NODE
p1169
(dp1170
g37
(lp1171
I0
aI0
aI0
aI0
asg39
(lp1172
sg41
(lp1173
(I5
I20
tp1174
a(I3
I20
tp1175
a(I4
I21
tp1176
a(I4
I19
tp1177
asg45
I0
sba(iNavigator_0_0663
NODE
p1178
(dp1179
g37
(lp1180
I0
aI0
aI0
aI0
asg39
(lp1181
sg41
(lp1182
(I5
I21
tp1183
a(I3
I21
tp1184
a(I4
I22
tp1185
a(I4
I20
tp1186
asg45
I0
sba(iNavigator_0_0663
NODE
p1187
(dp1188
g37
(lp1189
I0
aI0
aI0
aI0
asg39
(lp1190
sg41
(lp1191
(I5
I22
tp1192
a(I3
I22
tp1193
a(I4
I23
tp1194
a(I4
I21
tp1195
asg45
I0
sba(iNavigator_0_0663
NODE
p1196
(dp1197
g37
(lp1198
I0
aI0
aI0
aI0
asg39
(lp1199
sg41
(lp1200
(I5
I23
tp1201
a(I3
I23
tp1202
a(I4
I24
tp1203
a(I4
I22
tp1204
asg45
I0
sba(iNavigator_0_0663
NODE
p1205
(dp1206
g37
(lp1207
I0
aI0
aI0
aI0
asg39
(lp1208
sg41
(lp1209
(I5
I24
tp1210
a(I3
I24
tp1211
a(I4
I23
tp1212
asg45
I0
sbaa(lp1213
(iNavigator_0_0663
NODE
p1214
(dp1215
g37
(lp1216
I0
aI0
aI0
aI0
asg39
(lp1217
sg41
(lp1218
(I6
I0
tp1219
a(I4
I0
tp1220
a(I5
I1
tp1221
asg45
I0
sba(iNavigator_0_0663
NODE
p1222
(dp1223
g37
(lp1224
I0
aI0
aI0
aI0
asg39
(lp1225
sg41
(lp1226
(I6
I1
tp1227
a(I4
I1
tp1228
a(I5
I2
tp1229
a(I5
I0
tp1230
asg45
I0
sba(iNavigator_0_0663
NODE
p1231
(dp1232
g37
(lp1233
I0
aI0
aI0
aI0
asg39
(lp1234
sg41
(lp1235
(I6
I2
tp1236
a(I4
I2
tp1237
a(I5
I3
tp1238
a(I5
I1
tp1239
asg45
I0
sba(iNavigator_0_0663
NODE
p1240
(dp1241
g37
(lp1242
I0
aI0
aI0
aI0
asg39
(lp1243
sg41
(lp1244
(I6
I3
tp1245
a(I4
I3
tp1246
a(I5
I4
tp1247
a(I5
I2
tp1248
asg45
I0
sba(iNavigator_0_0663
NODE
p1249
(dp1250
g37
(lp1251
I0
aI0
aI0
aI0
asg39
(lp1252
sg41
(lp1253
(I6
I4
tp1254
a(I4
I4
tp1255
a(I5
I5
tp1256
a(I5
I3
tp1257
asg45
I0
sba(iNavigator_0_0663
NODE
p1258
(dp1259
g37
(lp1260
I0
aI0
aI0
aI0
asg39
(lp1261
sg41
(lp1262
(I6
I5
tp1263
a(I4
I5
tp1264
a(I5
I6
tp1265
a(I5
I4
tp1266
asg45
I0
sba(iNavigator_0_0663
NODE
p1267
(dp1268
g37
(lp1269
I0
aI0
aI0
aI0
asg39
(lp1270
sg41
(lp1271
(I6
I6
tp1272
a(I4
I6
tp1273
a(I5
I7
tp1274
a(I5
I5
tp1275
asg45
I0
sba(iNavigator_0_0663
NODE
p1276
(dp1277
g37
(lp1278
I0
aI0
aI0
aI0
asg39
(lp1279
sg41
(lp1280
(I6
I7
tp1281
a(I4
I7
tp1282
a(I5
I8
tp1283
a(I5
I6
tp1284
asg45
I0
sba(iNavigator_0_0663
NODE
p1285
(dp1286
g37
(lp1287
I0
aI0
aI0
aI0
asg39
(lp1288
sg41
(lp1289
(I6
I8
tp1290
a(I4
I8
tp1291
a(I5
I9
tp1292
a(I5
I7
tp1293
asg45
I0
sba(iNavigator_0_0663
NODE
p1294
(dp1295
g37
(lp1296
I0
aI0
aI0
aI0
asg39
(lp1297
sg41
(lp1298
(I6
I9
tp1299
a(I4
I9
tp1300
a(I5
I10
tp1301
a(I5
I8
tp1302
asg45
I0
sba(iNavigator_0_0663
NODE
p1303
(dp1304
g37
(lp1305
I0
aI0
aI0
aI0
asg39
(lp1306
sg41
(lp1307
(I6
I10
tp1308
a(I4
I10
tp1309
a(I5
I11
tp1310
a(I5
I9
tp1311
asg45
I0
sba(iNavigator_0_0663
NODE
p1312
(dp1313
g37
(lp1314
I0
aI0
aI0
aI0
asg39
(lp1315
sg41
(lp1316
(I6
I11
tp1317
a(I4
I11
tp1318
a(I5
I12
tp1319
a(I5
I10
tp1320
asg45
I0
sba(iNavigator_0_0663
NODE
p1321
(dp1322
g37
(lp1323
I0
aI0
aI0
aI0
asg39
(lp1324
sg41
(lp1325
(I6
I12
tp1326
a(I4
I12
tp1327
a(I5
I13
tp1328
a(I5
I11
tp1329
asg45
I0
sba(iNavigator_0_0663
NODE
p1330
(dp1331
g37
(lp1332
I0
aI0
aI0
aI0
asg39
(lp1333
sg41
(lp1334
(I6
I13
tp1335
a(I4
I13
tp1336
a(I5
I14
tp1337
a(I5
I12
tp1338
asg45
I0
sba(iNavigator_0_0663
NODE
p1339
(dp1340
g37
(lp1341
I0
aI0
aI0
aI0
asg39
(lp1342
sg41
(lp1343
(I6
I14
tp1344
a(I4
I14
tp1345
a(I5
I15
tp1346
a(I5
I13
tp1347
asg45
I0
sba(iNavigator_0_0663
NODE
p1348
(dp1349
g37
(lp1350
I0
aI0
aI0
aI0
asg39
(lp1351
sg41
(lp1352
(I6
I15
tp1353
a(I4
I15
tp1354
a(I5
I16
tp1355
a(I5
I14
tp1356
asg45
I0
sba(iNavigator_0_0663
NODE
p1357
(dp1358
g37
(lp1359
I0
aI0
aI0
aI0
asg39
(lp1360
sg41
(lp1361
(I6
I16
tp1362
a(I4
I16
tp1363
a(I5
I17
tp1364
a(I5
I15
tp1365
asg45
I0
sba(iNavigator_0_0663
NODE
p1366
(dp1367
g37
(lp1368
I0
aI0
aI0
aI0
asg39
(lp1369
sg41
(lp1370
(I6
I17
tp1371
a(I4
I17
tp1372
a(I5
I18
tp1373
a(I5
I16
tp1374
asg45
I0
sba(iNavigator_0_0663
NODE
p1375
(dp1376
g37
(lp1377
I0
aI0
aI0
aI0
asg39
(lp1378
sg41
(lp1379
(I6
I18
tp1380
a(I4
I18
tp1381
a(I5
I19
tp1382
a(I5
I17
tp1383
asg45
I0
sba(iNavigator_0_0663
NODE
p1384
(dp1385
g37
(lp1386
I0
aI0
aI0
aI0
asg39
(lp1387
sg41
(lp1388
(I6
I19
tp1389
a(I4
I19
tp1390
a(I5
I20
tp1391
a(I5
I18
tp1392
asg45
I0
sba(iNavigator_0_0663
NODE
p1393
(dp1394
g37
(lp1395
I0
aI0
aI0
aI0
asg39
(lp1396
sg41
(lp1397
(I6
I20
tp1398
a(I4
I20
tp1399
a(I5
I21
tp1400
a(I5
I19
tp1401
asg45
I0
sba(iNavigator_0_0663
NODE
p1402
(dp1403
g37
(lp1404
I0
aI0
aI0
aI0
asg39
(lp1405
sg41
(lp1406
(I6
I21
tp1407
a(I4
I21
tp1408
a(I5
I22
tp1409
a(I5
I20
tp1410
asg45
I0
sba(iNavigator_0_0663
NODE
p1411
(dp1412
g37
(lp1413
I0
aI0
aI0
aI0
asg39
(lp1414
sg41
(lp1415
(I6
I22
tp1416
a(I4
I22
tp1417
a(I5
I23
tp1418
a(I5
I21
tp1419
asg45
I0
sba(iNavigator_0_0663
NODE
p1420
(dp1421
g37
(lp1422
I0
aI0
aI0
aI0
asg39
(lp1423
sg41
(lp1424
(I6
I23
tp1425
a(I4
I23
tp1426
a(I5
I24
tp1427
a(I5
I22
tp1428
asg45
I0
sba(iNavigator_0_0663
NODE
p1429
(dp1430
g37
(lp1431
I0
aI0
aI0
aI0
asg39
(lp1432
sg41
(lp1433
(I6
I24
tp1434
a(I4
I24
tp1435
a(I5
I23
tp1436
asg45
I0
sbaa(lp1437
(iNavigator_0_0663
NODE
p1438
(dp1439
g37
(lp1440
I0
aI0
aI0
aI0
asg39
(lp1441
sg41
(lp1442
(I7
I0
tp1443
a(I5
I0
tp1444
a(I6
I1
tp1445
asg45
I0
sba(iNavigator_0_0663
NODE
p1446
(dp1447
g37
(lp1448
I0
aI0
aI0
aI0
asg39
(lp1449
sg41
(lp1450
(I7
I1
tp1451
a(I5
I1
tp1452
a(I6
I2
tp1453
a(I6
I0
tp1454
asg45
I0
sba(iNavigator_0_0663
NODE
p1455
(dp1456
g37
(lp1457
I0
aI0
aI0
aI0
asg39
(lp1458
sg41
(lp1459
(I7
I2
tp1460
a(I5
I2
tp1461
a(I6
I3
tp1462
a(I6
I1
tp1463
asg45
I0
sba(iNavigator_0_0663
NODE
p1464
(dp1465
g37
(lp1466
I0
aI0
aI0
aI0
asg39
(lp1467
sg41
(lp1468
(I7
I3
tp1469
a(I5
I3
tp1470
a(I6
I4
tp1471
a(I6
I2
tp1472
asg45
I0
sba(iNavigator_0_0663
NODE
p1473
(dp1474
g37
(lp1475
I0
aI0
aI0
aI0
asg39
(lp1476
sg41
(lp1477
(I7
I4
tp1478
a(I5
I4
tp1479
a(I6
I5
tp1480
a(I6
I3
tp1481
asg45
I0
sba(iNavigator_0_0663
NODE
p1482
(dp1483
g37
(lp1484
I0
aI0
aI0
aI0
asg39
(lp1485
sg41
(lp1486
(I7
I5
tp1487
a(I5
I5
tp1488
a(I6
I6
tp1489
a(I6
I4
tp1490
asg45
I0
sba(iNavigator_0_0663
NODE
p1491
(dp1492
g37
(lp1493
I0
aI0
aI0
aI0
asg39
(lp1494
sg41
(lp1495
(I7
I6
tp1496
a(I5
I6
tp1497
a(I6
I7
tp1498
a(I6
I5
tp1499
asg45
I0
sba(iNavigator_0_0663
NODE
p1500
(dp1501
g37
(lp1502
I0
aI0
aI0
aI0
asg39
(lp1503
sg41
(lp1504
(I7
I7
tp1505
a(I5
I7
tp1506
a(I6
I8
tp1507
a(I6
I6
tp1508
asg45
I0
sba(iNavigator_0_0663
NODE
p1509
(dp1510
g37
(lp1511
I0
aI0
aI0
aI0
asg39
(lp1512
sg41
(lp1513
(I7
I8
tp1514
a(I5
I8
tp1515
a(I6
I9
tp1516
a(I6
I7
tp1517
asg45
I0
sba(iNavigator_0_0663
NODE
p1518
(dp1519
g37
(lp1520
I0
aI0
aI0
aI0
asg39
(lp1521
sg41
(lp1522
(I7
I9
tp1523
a(I5
I9
tp1524
a(I6
I10
tp1525
a(I6
I8
tp1526
asg45
I0
sba(iNavigator_0_0663
NODE
p1527
(dp1528
g37
(lp1529
I0
aI0
aI0
aI0
asg39
(lp1530
sg41
(lp1531
(I7
I10
tp1532
a(I5
I10
tp1533
a(I6
I11
tp1534
a(I6
I9
tp1535
asg45
I0
sba(iNavigator_0_0663
NODE
p1536
(dp1537
g37
(lp1538
I0
aI0
aI0
aI0
asg39
(lp1539
sg41
(lp1540
(I7
I11
tp1541
a(I5
I11
tp1542
a(I6
I12
tp1543
a(I6
I10
tp1544
asg45
I0
sba(iNavigator_0_0663
NODE
p1545
(dp1546
g37
(lp1547
I0
aI0
aI0
aI0
asg39
(lp1548
sg41
(lp1549
(I7
I12
tp1550
a(I5
I12
tp1551
a(I6
I13
tp1552
a(I6
I11
tp1553
asg45
I0
sba(iNavigator_0_0663
NODE
p1554
(dp1555
g37
(lp1556
I0
aI0
aI0
aI0
asg39
(lp1557
sg41
(lp1558
(I7
I13
tp1559
a(I5
I13
tp1560
a(I6
I14
tp1561
a(I6
I12
tp1562
asg45
I0
sba(iNavigator_0_0663
NODE
p1563
(dp1564
g37
(lp1565
I0
aI0
aI0
aI0
asg39
(lp1566
sg41
(lp1567
(I7
I14
tp1568
a(I5
I14
tp1569
a(I6
I15
tp1570
a(I6
I13
tp1571
asg45
I0
sba(iNavigator_0_0663
NODE
p1572
(dp1573
g37
(lp1574
I0
aI0
aI0
aI0
asg39
(lp1575
sg41
(lp1576
(I7
I15
tp1577
a(I5
I15
tp1578
a(I6
I16
tp1579
a(I6
I14
tp1580
asg45
I0
sba(iNavigator_0_0663
NODE
p1581
(dp1582
g37
(lp1583
I0
aI0
aI0
aI0
asg39
(lp1584
sg41
(lp1585
(I7
I16
tp1586
a(I5
I16
tp1587
a(I6
I17
tp1588
a(I6
I15
tp1589
asg45
I0
sba(iNavigator_0_0663
NODE
p1590
(dp1591
g37
(lp1592
I0
aI0
aI0
aI0
asg39
(lp1593
sg41
(lp1594
(I7
I17
tp1595
a(I5
I17
tp1596
a(I6
I18
tp1597
a(I6
I16
tp1598
asg45
I0
sba(iNavigator_0_0663
NODE
p1599
(dp1600
g37
(lp1601
I0
aI0
aI0
aI0
asg39
(lp1602
sg41
(lp1603
(I7
I18
tp1604
a(I5
I18
tp1605
a(I6
I19
tp1606
a(I6
I17
tp1607
asg45
I0
sba(iNavigator_0_0663
NODE
p1608
(dp1609
g37
(lp1610
I0
aI0
aI0
aI0
asg39
(lp1611
sg41
(lp1612
(I7
I19
tp1613
a(I5
I19
tp1614
a(I6
I20
tp1615
a(I6
I18
tp1616
asg45
I0
sba(iNavigator_0_0663
NODE
p1617
(dp1618
g37
(lp1619
I0
aI0
aI0
aI0
asg39
(lp1620
sg41
(lp1621
(I7
I20
tp1622
a(I5
I20
tp1623
a(I6
I21
tp1624
a(I6
I19
tp1625
asg45
I0
sba(iNavigator_0_0663
NODE
p1626
(dp1627
g37
(lp1628
I0
aI0
aI0
aI0
asg39
(lp1629
sg41
(lp1630
(I7
I21
tp1631
a(I5
I21
tp1632
a(I6
I22
tp1633
a(I6
I20
tp1634
asg45
I0
sba(iNavigator_0_0663
NODE
p1635
(dp1636
g37
(lp1637
I0
aI0
aI0
aI0
asg39
(lp1638
sg41
(lp1639
(I7
I22
tp1640
a(I5
I22
tp1641
a(I6
I23
tp1642
a(I6
I21
tp1643
asg45
I0
sba(iNavigator_0_0663
NODE
p1644
(dp1645
g37
(lp1646
I0
aI0
aI0
aI0
asg39
(lp1647
sg41
(lp1648
(I7
I23
tp1649
a(I5
I23
tp1650
a(I6
I24
tp1651
a(I6
I22
tp1652
asg45
I0
sba(iNavigator_0_0663
NODE
p1653
(dp1654
g37
(lp1655
I0
aI0
aI0
aI0
asg39
(lp1656
sg41
(lp1657
(I7
I24
tp1658
a(I5
I24
tp1659
a(I6
I23
tp1660
asg45
I0
sbaa(lp1661
(iNavigator_0_0663
NODE
p1662
(dp1663
g37
(lp1664
I0
aI0
aI0
aI0
asg39
(lp1665
sg41
(lp1666
(I8
I0
tp1667
a(I6
I0
tp1668
a(I7
I1
tp1669
asg45
I0
sba(iNavigator_0_0663
NODE
p1670
(dp1671
g37
(lp1672
I0
aI0
aI0
aI0
asg39
(lp1673
sg41
(lp1674
(I8
I1
tp1675
a(I6
I1
tp1676
a(I7
I2
tp1677
a(I7
I0
tp1678
asg45
I0
sba(iNavigator_0_0663
NODE
p1679
(dp1680
g37
(lp1681
I0
aI0
aI0
aI0
asg39
(lp1682
sg41
(lp1683
(I8
I2
tp1684
a(I6
I2
tp1685
a(I7
I3
tp1686
a(I7
I1
tp1687
asg45
I0
sba(iNavigator_0_0663
NODE
p1688
(dp1689
g37
(lp1690
I0
aI0
aI0
aI0
asg39
(lp1691
sg41
(lp1692
(I8
I3
tp1693
a(I6
I3
tp1694
a(I7
I4
tp1695
a(I7
I2
tp1696
asg45
I0
sba(iNavigator_0_0663
NODE
p1697
(dp1698
g37
(lp1699
I0
aI0
aI0
aI0
asg39
(lp1700
sg41
(lp1701
(I8
I4
tp1702
a(I6
I4
tp1703
a(I7
I5
tp1704
a(I7
I3
tp1705
asg45
I0
sba(iNavigator_0_0663
NODE
p1706
(dp1707
g37
(lp1708
I0
aI0
aI0
aI0
asg39
(lp1709
sg41
(lp1710
(I8
I5
tp1711
a(I6
I5
tp1712
a(I7
I6
tp1713
a(I7
I4
tp1714
asg45
I0
sba(iNavigator_0_0663
NODE
p1715
(dp1716
g37
(lp1717
I0
aI0
aI0
aI0
asg39
(lp1718
sg41
(lp1719
(I8
I6
tp1720
a(I6
I6
tp1721
a(I7
I7
tp1722
a(I7
I5
tp1723
asg45
I0
sba(iNavigator_0_0663
NODE
p1724
(dp1725
g37
(lp1726
I0
aI0
aI0
aI0
asg39
(lp1727
sg41
(lp1728
(I8
I7
tp1729
a(I6
I7
tp1730
a(I7
I8
tp1731
a(I7
I6
tp1732
asg45
I0
sba(iNavigator_0_0663
NODE
p1733
(dp1734
g37
(lp1735
I0
aI0
aI0
aI0
asg39
(lp1736
sg41
(lp1737
(I8
I8
tp1738
a(I6
I8
tp1739
a(I7
I9
tp1740
a(I7
I7
tp1741
asg45
I0
sba(iNavigator_0_0663
NODE
p1742
(dp1743
g37
(lp1744
I0
aI0
aI0
aI0
asg39
(lp1745
sg41
(lp1746
(I8
I9
tp1747
a(I6
I9
tp1748
a(I7
I10
tp1749
a(I7
I8
tp1750
asg45
I0
sba(iNavigator_0_0663
NODE
p1751
(dp1752
g37
(lp1753
I0
aI0
aI0
aI0
asg39
(lp1754
sg41
(lp1755
(I8
I10
tp1756
a(I6
I10
tp1757
a(I7
I11
tp1758
a(I7
I9
tp1759
asg45
I0
sba(iNavigator_0_0663
NODE
p1760
(dp1761
g37
(lp1762
I0
aI0
aI0
aI0
asg39
(lp1763
sg41
(lp1764
(I8
I11
tp1765
a(I6
I11
tp1766
a(I7
I12
tp1767
a(I7
I10
tp1768
asg45
I0
sba(iNavigator_0_0663
NODE
p1769
(dp1770
g37
(lp1771
I0
aI0
aI0
aI0
asg39
(lp1772
sg41
(lp1773
(I8
I12
tp1774
a(I6
I12
tp1775
a(I7
I13
tp1776
a(I7
I11
tp1777
asg45
I0
sba(iNavigator_0_0663
NODE
p1778
(dp1779
g37
(lp1780
I0
aI0
aI0
aI0
asg39
(lp1781
sg41
(lp1782
(I8
I13
tp1783
a(I6
I13
tp1784
a(I7
I14
tp1785
a(I7
I12
tp1786
asg45
I0
sba(iNavigator_0_0663
NODE
p1787
(dp1788
g37
(lp1789
I0
aI0
aI0
aI0
asg39
(lp1790
sg41
(lp1791
(I8
I14
tp1792
a(I6
I14
tp1793
a(I7
I15
tp1794
a(I7
I13
tp1795
asg45
I0
sba(iNavigator_0_0663
NODE
p1796
(dp1797
g37
(lp1798
I0
aI0
aI0
aI0
asg39
(lp1799
sg41
(lp1800
(I8
I15
tp1801
a(I6
I15
tp1802
a(I7
I16
tp1803
a(I7
I14
tp1804
asg45
I0
sba(iNavigator_0_0663
NODE
p1805
(dp1806
g37
(lp1807
I0
aI0
aI0
aI0
asg39
(lp1808
sg41
(lp1809
(I8
I16
tp1810
a(I6
I16
tp1811
a(I7
I17
tp1812
a(I7
I15
tp1813
asg45
I0
sba(iNavigator_0_0663
NODE
p1814
(dp1815
g37
(lp1816
I0
aI0
aI0
aI0
asg39
(lp1817
sg41
(lp1818
(I8
I17
tp1819
a(I6
I17
tp1820
a(I7
I18
tp1821
a(I7
I16
tp1822
asg45
I0
sba(iNavigator_0_0663
NODE
p1823
(dp1824
g37
(lp1825
I0
aI0
aI0
aI0
asg39
(lp1826
sg41
(lp1827
(I8
I18
tp1828
a(I6
I18
tp1829
a(I7
I19
tp1830
a(I7
I17
tp1831
asg45
I0
sba(iNavigator_0_0663
NODE
p1832
(dp1833
g37
(lp1834
I0
aI0
aI0
aI0
asg39
(lp1835
sg41
(lp1836
(I8
I19
tp1837
a(I6
I19
tp1838
a(I7
I20
tp1839
a(I7
I18
tp1840
asg45
I0
sba(iNavigator_0_0663
NODE
p1841
(dp1842
g37
(lp1843
I0
aI0
aI0
aI0
asg39
(lp1844
sg41
(lp1845
(I8
I20
tp1846
a(I6
I20
tp1847
a(I7
I21
tp1848
a(I7
I19
tp1849
asg45
I0
sba(iNavigator_0_0663
NODE
p1850
(dp1851
g37
(lp1852
I0
aI0
aI0
aI0
asg39
(lp1853
sg41
(lp1854
(I8
I21
tp1855
a(I6
I21
tp1856
a(I7
I22
tp1857
a(I7
I20
tp1858
asg45
I0
sba(iNavigator_0_0663
NODE
p1859
(dp1860
g37
(lp1861
I0
aI0
aI0
aI0
asg39
(lp1862
sg41
(lp1863
(I8
I22
tp1864
a(I6
I22
tp1865
a(I7
I23
tp1866
a(I7
I21
tp1867
asg45
I0
sba(iNavigator_0_0663
NODE
p1868
(dp1869
g37
(lp1870
I0
aI0
aI0
aI0
asg39
(lp1871
sg41
(lp1872
(I8
I23
tp1873
a(I6
I23
tp1874
a(I7
I24
tp1875
a(I7
I22
tp1876
asg45
I0
sba(iNavigator_0_0663
NODE
p1877
(dp1878
g37
(lp1879
I0
aI0
aI0
aI0
asg39
(lp1880
sg41
(lp1881
(I8
I24
tp1882
a(I6
I24
tp1883
a(I7
I23
tp1884
asg45
I0
sbaa(lp1885
(iNavigator_0_0663
NODE
p1886
(dp1887
g37
(lp1888
I0
aI0
aI0
aI0
asg39
(lp1889
sg41
(lp1890
(I9
I0
tp1891
a(I7
I0
tp1892
a(I8
I1
tp1893
asg45
I0
sba(iNavigator_0_0663
NODE
p1894
(dp1895
g37
(lp1896
I0
aI0
aI0
aI0
asg39
(lp1897
sg41
(lp1898
(I9
I1
tp1899
a(I7
I1
tp1900
a(I8
I2
tp1901
a(I8
I0
tp1902
asg45
I0
sba(iNavigator_0_0663
NODE
p1903
(dp1904
g37
(lp1905
I0
aI0
aI0
aI0
asg39
(lp1906
sg41
(lp1907
(I9
I2
tp1908
a(I7
I2
tp1909
a(I8
I3
tp1910
a(I8
I1
tp1911
asg45
I0
sba(iNavigator_0_0663
NODE
p1912
(dp1913
g37
(lp1914
I0
aI0
aI0
aI0
asg39
(lp1915
sg41
(lp1916
(I9
I3
tp1917
a(I7
I3
tp1918
a(I8
I4
tp1919
a(I8
I2
tp1920
asg45
I0
sba(iNavigator_0_0663
NODE
p1921
(dp1922
g37
(lp1923
I0
aI0
aI0
aI0
asg39
(lp1924
sg41
(lp1925
(I9
I4
tp1926
a(I7
I4
tp1927
a(I8
I5
tp1928
a(I8
I3
tp1929
asg45
I0
sba(iNavigator_0_0663
NODE
p1930
(dp1931
g37
(lp1932
I0
aI0
aI0
aI0
asg39
(lp1933
sg41
(lp1934
(I9
I5
tp1935
a(I7
I5
tp1936
a(I8
I6
tp1937
a(I8
I4
tp1938
asg45
I0
sba(iNavigator_0_0663
NODE
p1939
(dp1940
g37
(lp1941
I0
aI0
aI0
aI0
asg39
(lp1942
sg41
(lp1943
(I9
I6
tp1944
a(I7
I6
tp1945
a(I8
I7
tp1946
a(I8
I5
tp1947
asg45
I0
sba(iNavigator_0_0663
NODE
p1948
(dp1949
g37
(lp1950
I0
aI0
aI0
aI0
asg39
(lp1951
sg41
(lp1952
(I9
I7
tp1953
a(I7
I7
tp1954
a(I8
I8
tp1955
a(I8
I6
tp1956
asg45
I0
sba(iNavigator_0_0663
NODE
p1957
(dp1958
g37
(lp1959
I0
aI0
aI0
aI0
asg39
(lp1960
sg41
(lp1961
(I9
I8
tp1962
a(I7
I8
tp1963
a(I8
I9
tp1964
a(I8
I7
tp1965
asg45
I0
sba(iNavigator_0_0663
NODE
p1966
(dp1967
g37
(lp1968
I0
aI0
aI0
aI0
asg39
(lp1969
sg41
(lp1970
(I9
I9
tp1971
a(I7
I9
tp1972
a(I8
I10
tp1973
a(I8
I8
tp1974
asg45
I0
sba(iNavigator_0_0663
NODE
p1975
(dp1976
g37
(lp1977
I0
aI0
aI0
aI0
asg39
(lp1978
sg41
(lp1979
(I9
I10
tp1980
a(I7
I10
tp1981
a(I8
I11
tp1982
a(I8
I9
tp1983
asg45
I0
sba(iNavigator_0_0663
NODE
p1984
(dp1985
g37
(lp1986
I0
aI0
aI0
aI0
asg39
(lp1987
sg41
(lp1988
(I9
I11
tp1989
a(I7
I11
tp1990
a(I8
I12
tp1991
a(I8
I10
tp1992
asg45
I0
sba(iNavigator_0_0663
NODE
p1993
(dp1994
g37
(lp1995
I0
aI0
aI0
aI0
asg39
(lp1996
sg41
(lp1997
(I9
I12
tp1998
a(I7
I12
tp1999
a(I8
I13
tp2000
a(I8
I11
tp2001
asg45
I0
sba(iNavigator_0_0663
NODE
p2002
(dp2003
g37
(lp2004
I0
aI0
aI0
aI0
asg39
(lp2005
sg41
(lp2006
(I9
I13
tp2007
a(I7
I13
tp2008
a(I8
I14
tp2009
a(I8
I12
tp2010
asg45
I0
sba(iNavigator_0_0663
NODE
p2011
(dp2012
g37
(lp2013
I0
aI0
aI0
aI0
asg39
(lp2014
sg41
(lp2015
(I9
I14
tp2016
a(I7
I14
tp2017
a(I8
I15
tp2018
a(I8
I13
tp2019
asg45
I0
sba(iNavigator_0_0663
NODE
p2020
(dp2021
g37
(lp2022
I0
aI0
aI0
aI0
asg39
(lp2023
sg41
(lp2024
(I9
I15
tp2025
a(I7
I15
tp2026
a(I8
I16
tp2027
a(I8
I14
tp2028
asg45
I0
sba(iNavigator_0_0663
NODE
p2029
(dp2030
g37
(lp2031
I0
aI0
aI0
aI0
asg39
(lp2032
sg41
(lp2033
(I9
I16
tp2034
a(I7
I16
tp2035
a(I8
I17
tp2036
a(I8
I15
tp2037
asg45
I0
sba(iNavigator_0_0663
NODE
p2038
(dp2039
g37
(lp2040
I0
aI0
aI0
aI0
asg39
(lp2041
sg41
(lp2042
(I9
I17
tp2043
a(I7
I17
tp2044
a(I8
I18
tp2045
a(I8
I16
tp2046
asg45
I0
sba(iNavigator_0_0663
NODE
p2047
(dp2048
g37
(lp2049
I0
aI0
aI0
aI0
asg39
(lp2050
sg41
(lp2051
(I9
I18
tp2052
a(I7
I18
tp2053
a(I8
I19
tp2054
a(I8
I17
tp2055
asg45
I0
sba(iNavigator_0_0663
NODE
p2056
(dp2057
g37
(lp2058
I0
aI0
aI0
aI0
asg39
(lp2059
sg41
(lp2060
(I9
I19
tp2061
a(I7
I19
tp2062
a(I8
I20
tp2063
a(I8
I18
tp2064
asg45
I0
sba(iNavigator_0_0663
NODE
p2065
(dp2066
g37
(lp2067
I0
aI0
aI0
aI0
asg39
(lp2068
sg41
(lp2069
(I9
I20
tp2070
a(I7
I20
tp2071
a(I8
I21
tp2072
a(I8
I19
tp2073
asg45
I0
sba(iNavigator_0_0663
NODE
p2074
(dp2075
g37
(lp2076
I0
aI0
aI0
aI0
asg39
(lp2077
sg41
(lp2078
(I9
I21
tp2079
a(I7
I21
tp2080
a(I8
I22
tp2081
a(I8
I20
tp2082
asg45
I0
sba(iNavigator_0_0663
NODE
p2083
(dp2084
g37
(lp2085
I0
aI0
aI0
aI0
asg39
(lp2086
sg41
(lp2087
(I9
I22
tp2088
a(I7
I22
tp2089
a(I8
I23
tp2090
a(I8
I21
tp2091
asg45
I0
sba(iNavigator_0_0663
NODE
p2092
(dp2093
g37
(lp2094
I0
aI0
aI0
aI0
asg39
(lp2095
sg41
(lp2096
(I9
I23
tp2097
a(I7
I23
tp2098
a(I8
I24
tp2099
a(I8
I22
tp2100
asg45
I0
sba(iNavigator_0_0663
NODE
p2101
(dp2102
g37
(lp2103
I0
aI0
aI0
aI0
asg39
(lp2104
sg41
(lp2105
(I9
I24
tp2106
a(I7
I24
tp2107
a(I8
I23
tp2108
asg45
I0
sbaa(lp2109
(iNavigator_0_0663
NODE
p2110
(dp2111
g37
(lp2112
I0
aI0
aI0
aI0
asg39
(lp2113
sg41
(lp2114
(I10
I0
tp2115
a(I8
I0
tp2116
a(I9
I1
tp2117
asg45
I0
sba(iNavigator_0_0663
NODE
p2118
(dp2119
g37
(lp2120
I0
aI0
aI0
aI0
asg39
(lp2121
sg41
(lp2122
(I10
I1
tp2123
a(I8
I1
tp2124
a(I9
I2
tp2125
a(I9
I0
tp2126
asg45
I0
sba(iNavigator_0_0663
NODE
p2127
(dp2128
g37
(lp2129
I0
aI0
aI0
aI0
asg39
(lp2130
sg41
(lp2131
(I10
I2
tp2132
a(I8
I2
tp2133
a(I9
I3
tp2134
a(I9
I1
tp2135
asg45
I0
sba(iNavigator_0_0663
NODE
p2136
(dp2137
g37
(lp2138
I0
aI0
aI0
aI0
asg39
(lp2139
sg41
(lp2140
(I10
I3
tp2141
a(I8
I3
tp2142
a(I9
I4
tp2143
a(I9
I2
tp2144
asg45
I0
sba(iNavigator_0_0663
NODE
p2145
(dp2146
g37
(lp2147
I0
aI0
aI0
aI0
asg39
(lp2148
sg41
(lp2149
(I10
I4
tp2150
a(I8
I4
tp2151
a(I9
I5
tp2152
a(I9
I3
tp2153
asg45
I0
sba(iNavigator_0_0663
NODE
p2154
(dp2155
g37
(lp2156
I0
aI0
aI0
aI0
asg39
(lp2157
sg41
(lp2158
(I10
I5
tp2159
a(I8
I5
tp2160
a(I9
I6
tp2161
a(I9
I4
tp2162
asg45
I0
sba(iNavigator_0_0663
NODE
p2163
(dp2164
g37
(lp2165
I0
aI0
aI0
aI0
asg39
(lp2166
sg41
(lp2167
(I10
I6
tp2168
a(I8
I6
tp2169
a(I9
I7
tp2170
a(I9
I5
tp2171
asg45
I0
sba(iNavigator_0_0663
NODE
p2172
(dp2173
g37
(lp2174
I0
aI0
aI0
aI0
asg39
(lp2175
sg41
(lp2176
(I10
I7
tp2177
a(I8
I7
tp2178
a(I9
I8
tp2179
a(I9
I6
tp2180
asg45
I0
sba(iNavigator_0_0663
NODE
p2181
(dp2182
g37
(lp2183
I0
aI0
aI0
aI0
asg39
(lp2184
sg41
(lp2185
(I10
I8
tp2186
a(I8
I8
tp2187
a(I9
I9
tp2188
a(I9
I7
tp2189
asg45
I0
sba(iNavigator_0_0663
NODE
p2190
(dp2191
g37
(lp2192
I0
aI0
aI0
aI0
asg39
(lp2193
sg41
(lp2194
(I10
I9
tp2195
a(I8
I9
tp2196
a(I9
I10
tp2197
a(I9
I8
tp2198
asg45
I0
sba(iNavigator_0_0663
NODE
p2199
(dp2200
g37
(lp2201
I0
aI0
aI0
aI0
asg39
(lp2202
sg41
(lp2203
(I10
I10
tp2204
a(I8
I10
tp2205
a(I9
I11
tp2206
a(I9
I9
tp2207
asg45
I0
sba(iNavigator_0_0663
NODE
p2208
(dp2209
g37
(lp2210
I0
aI0
aI0
aI0
asg39
(lp2211
sg41
(lp2212
(I10
I11
tp2213
a(I8
I11
tp2214
a(I9
I12
tp2215
a(I9
I10
tp2216
asg45
I0
sba(iNavigator_0_0663
NODE
p2217
(dp2218
g37
(lp2219
I0
aI0
aI0
aI0
asg39
(lp2220
sg41
(lp2221
(I10
I12
tp2222
a(I8
I12
tp2223
a(I9
I13
tp2224
a(I9
I11
tp2225
asg45
I0
sba(iNavigator_0_0663
NODE
p2226
(dp2227
g37
(lp2228
I0
aI0
aI0
aI0
asg39
(lp2229
sg41
(lp2230
(I10
I13
tp2231
a(I8
I13
tp2232
a(I9
I14
tp2233
a(I9
I12
tp2234
asg45
I0
sba(iNavigator_0_0663
NODE
p2235
(dp2236
g37
(lp2237
I0
aI0
aI0
aI0
asg39
(lp2238
sg41
(lp2239
(I10
I14
tp2240
a(I8
I14
tp2241
a(I9
I15
tp2242
a(I9
I13
tp2243
asg45
I0
sba(iNavigator_0_0663
NODE
p2244
(dp2245
g37
(lp2246
I0
aI0
aI0
aI0
asg39
(lp2247
sg41
(lp2248
(I10
I15
tp2249
a(I8
I15
tp2250
a(I9
I16
tp2251
a(I9
I14
tp2252
asg45
I0
sba(iNavigator_0_0663
NODE
p2253
(dp2254
g37
(lp2255
I0
aI0
aI0
aI0
asg39
(lp2256
sg41
(lp2257
(I10
I16
tp2258
a(I8
I16
tp2259
a(I9
I17
tp2260
a(I9
I15
tp2261
asg45
I0
sba(iNavigator_0_0663
NODE
p2262
(dp2263
g37
(lp2264
I0
aI0
aI0
aI0
asg39
(lp2265
sg41
(lp2266
(I10
I17
tp2267
a(I8
I17
tp2268
a(I9
I18
tp2269
a(I9
I16
tp2270
asg45
I0
sba(iNavigator_0_0663
NODE
p2271
(dp2272
g37
(lp2273
I0
aI0
aI0
aI0
asg39
(lp2274
sg41
(lp2275
(I10
I18
tp2276
a(I8
I18
tp2277
a(I9
I19
tp2278
a(I9
I17
tp2279
asg45
I0
sba(iNavigator_0_0663
NODE
p2280
(dp2281
g37
(lp2282
I0
aI0
aI0
aI0
asg39
(lp2283
sg41
(lp2284
(I10
I19
tp2285
a(I8
I19
tp2286
a(I9
I20
tp2287
a(I9
I18
tp2288
asg45
I0
sba(iNavigator_0_0663
NODE
p2289
(dp2290
g37
(lp2291
I0
aI0
aI0
aI0
asg39
(lp2292
sg41
(lp2293
(I10
I20
tp2294
a(I8
I20
tp2295
a(I9
I21
tp2296
a(I9
I19
tp2297
asg45
I0
sba(iNavigator_0_0663
NODE
p2298
(dp2299
g37
(lp2300
I0
aI0
aI0
aI0
asg39
(lp2301
sg41
(lp2302
(I10
I21
tp2303
a(I8
I21
tp2304
a(I9
I22
tp2305
a(I9
I20
tp2306
asg45
I0
sba(iNavigator_0_0663
NODE
p2307
(dp2308
g37
(lp2309
I0
aI0
aI0
aI0
asg39
(lp2310
sg41
(lp2311
(I10
I22
tp2312
a(I8
I22
tp2313
a(I9
I23
tp2314
a(I9
I21
tp2315
asg45
I0
sba(iNavigator_0_0663
NODE
p2316
(dp2317
g37
(lp2318
I0
aI0
aI0
aI0
asg39
(lp2319
sg41
(lp2320
(I10
I23
tp2321
a(I8
I23
tp2322
a(I9
I24
tp2323
a(I9
I22
tp2324
asg45
I0
sba(iNavigator_0_0663
NODE
p2325
(dp2326
g37
(lp2327
I0
aI0
aI0
aI0
asg39
(lp2328
sg41
(lp2329
(I10
I24
tp2330
a(I8
I24
tp2331
a(I9
I23
tp2332
asg45
I0
sbaa(lp2333
(iNavigator_0_0663
NODE
p2334
(dp2335
g37
(lp2336
I0
aI0
aI0
aI0
asg39
(lp2337
sg41
(lp2338
(I11
I0
tp2339
a(I9
I0
tp2340
a(I10
I1
tp2341
asg45
I0
sba(iNavigator_0_0663
NODE
p2342
(dp2343
g37
(lp2344
I0
aI0
aI0
aI0
asg39
(lp2345
sg41
(lp2346
(I11
I1
tp2347
a(I9
I1
tp2348
a(I10
I2
tp2349
a(I10
I0
tp2350
asg45
I0
sba(iNavigator_0_0663
NODE
p2351
(dp2352
g37
(lp2353
I0
aI0
aI0
aI0
asg39
(lp2354
sg41
(lp2355
(I11
I2
tp2356
a(I9
I2
tp2357
a(I10
I3
tp2358
a(I10
I1
tp2359
asg45
I0
sba(iNavigator_0_0663
NODE
p2360
(dp2361
g37
(lp2362
I0
aI0
aI0
aI0
asg39
(lp2363
sg41
(lp2364
(I11
I3
tp2365
a(I9
I3
tp2366
a(I10
I4
tp2367
a(I10
I2
tp2368
asg45
I0
sba(iNavigator_0_0663
NODE
p2369
(dp2370
g37
(lp2371
I0
aI0
aI0
aI0
asg39
(lp2372
sg41
(lp2373
(I11
I4
tp2374
a(I9
I4
tp2375
a(I10
I5
tp2376
a(I10
I3
tp2377
asg45
I0
sba(iNavigator_0_0663
NODE
p2378
(dp2379
g37
(lp2380
I0
aI0
aI0
aI0
asg39
(lp2381
sg41
(lp2382
(I11
I5
tp2383
a(I9
I5
tp2384
a(I10
I6
tp2385
a(I10
I4
tp2386
asg45
I0
sba(iNavigator_0_0663
NODE
p2387
(dp2388
g37
(lp2389
I0
aI0
aI0
aI0
asg39
(lp2390
sg41
(lp2391
(I11
I6
tp2392
a(I9
I6
tp2393
a(I10
I7
tp2394
a(I10
I5
tp2395
asg45
I0
sba(iNavigator_0_0663
NODE
p2396
(dp2397
g37
(lp2398
I0
aI0
aI0
aI0
asg39
(lp2399
sg41
(lp2400
(I11
I7
tp2401
a(I9
I7
tp2402
a(I10
I8
tp2403
a(I10
I6
tp2404
asg45
I0
sba(iNavigator_0_0663
NODE
p2405
(dp2406
g37
(lp2407
I0
aI0
aI0
aI0
asg39
(lp2408
sg41
(lp2409
(I11
I8
tp2410
a(I9
I8
tp2411
a(I10
I9
tp2412
a(I10
I7
tp2413
asg45
I0
sba(iNavigator_0_0663
NODE
p2414
(dp2415
g37
(lp2416
I0
aI0
aI0
aI0
asg39
(lp2417
sg41
(lp2418
(I11
I9
tp2419
a(I9
I9
tp2420
a(I10
I10
tp2421
a(I10
I8
tp2422
asg45
I0
sba(iNavigator_0_0663
NODE
p2423
(dp2424
g37
(lp2425
I0
aI0
aI0
aI0
asg39
(lp2426
sg41
(lp2427
(I11
I10
tp2428
a(I9
I10
tp2429
a(I10
I11
tp2430
a(I10
I9
tp2431
asg45
I0
sba(iNavigator_0_0663
NODE
p2432
(dp2433
g37
(lp2434
I0
aI0
aI0
aI0
asg39
(lp2435
sg41
(lp2436
(I11
I11
tp2437
a(I9
I11
tp2438
a(I10
I12
tp2439
a(I10
I10
tp2440
asg45
I0
sba(iNavigator_0_0663
NODE
p2441
(dp2442
g37
(lp2443
I0
aI0
aI0
aI0
asg39
(lp2444
sg41
(lp2445
(I11
I12
tp2446
a(I9
I12
tp2447
a(I10
I13
tp2448
a(I10
I11
tp2449
asg45
I0
sba(iNavigator_0_0663
NODE
p2450
(dp2451
g37
(lp2452
I0
aI0
aI0
aI0
asg39
(lp2453
sg41
(lp2454
(I11
I13
tp2455
a(I9
I13
tp2456
a(I10
I14
tp2457
a(I10
I12
tp2458
asg45
I0
sba(iNavigator_0_0663
NODE
p2459
(dp2460
g37
(lp2461
I0
aI0
aI0
aI0
asg39
(lp2462
sg41
(lp2463
(I11
I14
tp2464
a(I9
I14
tp2465
a(I10
I15
tp2466
a(I10
I13
tp2467
asg45
I0
sba(iNavigator_0_0663
NODE
p2468
(dp2469
g37
(lp2470
I0
aI0
aI0
aI0
asg39
(lp2471
sg41
(lp2472
(I11
I15
tp2473
a(I9
I15
tp2474
a(I10
I16
tp2475
a(I10
I14
tp2476
asg45
I0
sba(iNavigator_0_0663
NODE
p2477
(dp2478
g37
(lp2479
I0
aI0
aI0
aI0
asg39
(lp2480
sg41
(lp2481
(I11
I16
tp2482
a(I9
I16
tp2483
a(I10
I17
tp2484
a(I10
I15
tp2485
asg45
I0
sba(iNavigator_0_0663
NODE
p2486
(dp2487
g37
(lp2488
I0
aI0
aI0
aI0
asg39
(lp2489
sg41
(lp2490
(I11
I17
tp2491
a(I9
I17
tp2492
a(I10
I18
tp2493
a(I10
I16
tp2494
asg45
I0
sba(iNavigator_0_0663
NODE
p2495
(dp2496
g37
(lp2497
I0
aI0
aI0
aI0
asg39
(lp2498
sg41
(lp2499
(I11
I18
tp2500
a(I9
I18
tp2501
a(I10
I19
tp2502
a(I10
I17
tp2503
asg45
I0
sba(iNavigator_0_0663
NODE
p2504
(dp2505
g37
(lp2506
I0
aI0
aI0
aI0
asg39
(lp2507
sg41
(lp2508
(I11
I19
tp2509
a(I9
I19
tp2510
a(I10
I20
tp2511
a(I10
I18
tp2512
asg45
I0
sba(iNavigator_0_0663
NODE
p2513
(dp2514
g37
(lp2515
I0
aI0
aI0
aI0
asg39
(lp2516
sg41
(lp2517
(I11
I20
tp2518
a(I9
I20
tp2519
a(I10
I21
tp2520
a(I10
I19
tp2521
asg45
I0
sba(iNavigator_0_0663
NODE
p2522
(dp2523
g37
(lp2524
I0
aI0
aI0
aI0
asg39
(lp2525
sg41
(lp2526
(I11
I21
tp2527
a(I9
I21
tp2528
a(I10
I22
tp2529
a(I10
I20
tp2530
asg45
I0
sba(iNavigator_0_0663
NODE
p2531
(dp2532
g37
(lp2533
I0
aI0
aI0
aI0
asg39
(lp2534
sg41
(lp2535
(I11
I22
tp2536
a(I9
I22
tp2537
a(I10
I23
tp2538
a(I10
I21
tp2539
asg45
I0
sba(iNavigator_0_0663
NODE
p2540
(dp2541
g37
(lp2542
I0
aI0
aI0
aI0
asg39
(lp2543
sg41
(lp2544
(I11
I23
tp2545
a(I9
I23
tp2546
a(I10
I24
tp2547
a(I10
I22
tp2548
asg45
I0
sba(iNavigator_0_0663
NODE
p2549
(dp2550
g37
(lp2551
I0
aI0
aI0
aI0
asg39
(lp2552
sg41
(lp2553
(I11
I24
tp2554
a(I9
I24
tp2555
a(I10
I23
tp2556
asg45
I0
sbaa(lp2557
(iNavigator_0_0663
NODE
p2558
(dp2559
g37
(lp2560
I0
aI0
aI0
aI0
asg39
(lp2561
sg41
(lp2562
(I12
I0
tp2563
a(I10
I0
tp2564
a(I11
I1
tp2565
asg45
I0
sba(iNavigator_0_0663
NODE
p2566
(dp2567
g37
(lp2568
I0
aI0
aI0
aI0
asg39
(lp2569
sg41
(lp2570
(I12
I1
tp2571
a(I10
I1
tp2572
a(I11
I2
tp2573
a(I11
I0
tp2574
asg45
I0
sba(iNavigator_0_0663
NODE
p2575
(dp2576
g37
(lp2577
I0
aI0
aI0
aI0
asg39
(lp2578
sg41
(lp2579
(I12
I2
tp2580
a(I10
I2
tp2581
a(I11
I3
tp2582
a(I11
I1
tp2583
asg45
I0
sba(iNavigator_0_0663
NODE
p2584
(dp2585
g37
(lp2586
I0
aI0
aI0
aI0
asg39
(lp2587
sg41
(lp2588
(I12
I3
tp2589
a(I10
I3
tp2590
a(I11
I4
tp2591
a(I11
I2
tp2592
asg45
I0
sba(iNavigator_0_0663
NODE
p2593
(dp2594
g37
(lp2595
I0
aI0
aI0
aI0
asg39
(lp2596
sg41
(lp2597
(I12
I4
tp2598
a(I10
I4
tp2599
a(I11
I5
tp2600
a(I11
I3
tp2601
asg45
I0
sba(iNavigator_0_0663
NODE
p2602
(dp2603
g37
(lp2604
I0
aI0
aI0
aI0
asg39
(lp2605
sg41
(lp2606
(I12
I5
tp2607
a(I10
I5
tp2608
a(I11
I6
tp2609
a(I11
I4
tp2610
asg45
I0
sba(iNavigator_0_0663
NODE
p2611
(dp2612
g37
(lp2613
I0
aI0
aI0
aI0
asg39
(lp2614
sg41
(lp2615
(I12
I6
tp2616
a(I10
I6
tp2617
a(I11
I7
tp2618
a(I11
I5
tp2619
asg45
I0
sba(iNavigator_0_0663
NODE
p2620
(dp2621
g37
(lp2622
I0
aI0
aI0
aI0
asg39
(lp2623
sg41
(lp2624
(I12
I7
tp2625
a(I10
I7
tp2626
a(I11
I8
tp2627
a(I11
I6
tp2628
asg45
I0
sba(iNavigator_0_0663
NODE
p2629
(dp2630
g37
(lp2631
I0
aI0
aI0
aI0
asg39
(lp2632
sg41
(lp2633
(I12
I8
tp2634
a(I10
I8
tp2635
a(I11
I9
tp2636
a(I11
I7
tp2637
asg45
I0
sba(iNavigator_0_0663
NODE
p2638
(dp2639
g37
(lp2640
I0
aI0
aI0
aI0
asg39
(lp2641
sg41
(lp2642
(I12
I9
tp2643
a(I10
I9
tp2644
a(I11
I10
tp2645
a(I11
I8
tp2646
asg45
I0
sba(iNavigator_0_0663
NODE
p2647
(dp2648
g37
(lp2649
I0
aI0
aI0
aI0
asg39
(lp2650
sg41
(lp2651
(I12
I10
tp2652
a(I10
I10
tp2653
a(I11
I11
tp2654
a(I11
I9
tp2655
asg45
I0
sba(iNavigator_0_0663
NODE
p2656
(dp2657
g37
(lp2658
I0
aI0
aI0
aI0
asg39
(lp2659
sg41
(lp2660
(I12
I11
tp2661
a(I10
I11
tp2662
a(I11
I12
tp2663
a(I11
I10
tp2664
asg45
I0
sba(iNavigator_0_0663
NODE
p2665
(dp2666
g37
(lp2667
I0
aI0
aI0
aI0
asg39
(lp2668
sg41
(lp2669
(I12
I12
tp2670
a(I10
I12
tp2671
a(I11
I13
tp2672
a(I11
I11
tp2673
asg45
I0
sba(iNavigator_0_0663
NODE
p2674
(dp2675
g37
(lp2676
I0
aI0
aI0
aI0
asg39
(lp2677
sg41
(lp2678
(I12
I13
tp2679
a(I10
I13
tp2680
a(I11
I14
tp2681
a(I11
I12
tp2682
asg45
I0
sba(iNavigator_0_0663
NODE
p2683
(dp2684
g37
(lp2685
I0
aI0
aI0
aI0
asg39
(lp2686
sg41
(lp2687
(I12
I14
tp2688
a(I10
I14
tp2689
a(I11
I15
tp2690
a(I11
I13
tp2691
asg45
I0
sba(iNavigator_0_0663
NODE
p2692
(dp2693
g37
(lp2694
I0
aI0
aI0
aI0
asg39
(lp2695
sg41
(lp2696
(I12
I15
tp2697
a(I10
I15
tp2698
a(I11
I16
tp2699
a(I11
I14
tp2700
asg45
I0
sba(iNavigator_0_0663
NODE
p2701
(dp2702
g37
(lp2703
I0
aI0
aI0
aI0
asg39
(lp2704
sg41
(lp2705
(I12
I16
tp2706
a(I10
I16
tp2707
a(I11
I17
tp2708
a(I11
I15
tp2709
asg45
I0
sba(iNavigator_0_0663
NODE
p2710
(dp2711
g37
(lp2712
I0
aI0
aI0
aI0
asg39
(lp2713
sg41
(lp2714
(I12
I17
tp2715
a(I10
I17
tp2716
a(I11
I18
tp2717
a(I11
I16
tp2718
asg45
I0
sba(iNavigator_0_0663
NODE
p2719
(dp2720
g37
(lp2721
I0
aI0
aI0
aI0
asg39
(lp2722
sg41
(lp2723
(I12
I18
tp2724
a(I10
I18
tp2725
a(I11
I19
tp2726
a(I11
I17
tp2727
asg45
I0
sba(iNavigator_0_0663
NODE
p2728
(dp2729
g37
(lp2730
I0
aI0
aI0
aI0
asg39
(lp2731
sg41
(lp2732
(I12
I19
tp2733
a(I10
I19
tp2734
a(I11
I20
tp2735
a(I11
I18
tp2736
asg45
I0
sba(iNavigator_0_0663
NODE
p2737
(dp2738
g37
(lp2739
I0
aI0
aI0
aI0
asg39
(lp2740
sg41
(lp2741
(I12
I20
tp2742
a(I10
I20
tp2743
a(I11
I21
tp2744
a(I11
I19
tp2745
asg45
I0
sba(iNavigator_0_0663
NODE
p2746
(dp2747
g37
(lp2748
I0
aI0
aI0
aI0
asg39
(lp2749
sg41
(lp2750
(I12
I21
tp2751
a(I10
I21
tp2752
a(I11
I22
tp2753
a(I11
I20
tp2754
asg45
I0
sba(iNavigator_0_0663
NODE
p2755
(dp2756
g37
(lp2757
I0
aI0
aI0
aI0
asg39
(lp2758
sg41
(lp2759
(I12
I22
tp2760
a(I10
I22
tp2761
a(I11
I23
tp2762
a(I11
I21
tp2763
asg45
I0
sba(iNavigator_0_0663
NODE
p2764
(dp2765
g37
(lp2766
I0
aI0
aI0
aI0
asg39
(lp2767
sg41
(lp2768
(I12
I23
tp2769
a(I10
I23
tp2770
a(I11
I24
tp2771
a(I11
I22
tp2772
asg45
I0
sba(iNavigator_0_0663
NODE
p2773
(dp2774
g37
(lp2775
I0
aI0
aI0
aI0
asg39
(lp2776
sg41
(lp2777
(I12
I24
tp2778
a(I10
I24
tp2779
a(I11
I23
tp2780
asg45
I0
sbaa(lp2781
(iNavigator_0_0663
NODE
p2782
(dp2783
g37
(lp2784
I0
aI0
aI0
aI0
asg39
(lp2785
sg41
(lp2786
(I13
I0
tp2787
a(I11
I0
tp2788
a(I12
I1
tp2789
asg45
I0
sba(iNavigator_0_0663
NODE
p2790
(dp2791
g37
(lp2792
I0
aI0
aI0
aI0
asg39
(lp2793
sg41
(lp2794
(I13
I1
tp2795
a(I11
I1
tp2796
a(I12
I2
tp2797
a(I12
I0
tp2798
asg45
I0
sba(iNavigator_0_0663
NODE
p2799
(dp2800
g37
(lp2801
I0
aI0
aI0
aI0
asg39
(lp2802
sg41
(lp2803
(I13
I2
tp2804
a(I11
I2
tp2805
a(I12
I3
tp2806
a(I12
I1
tp2807
asg45
I0
sba(iNavigator_0_0663
NODE
p2808
(dp2809
g37
(lp2810
I0
aI0
aI0
aI0
asg39
(lp2811
sg41
(lp2812
(I13
I3
tp2813
a(I11
I3
tp2814
a(I12
I4
tp2815
a(I12
I2
tp2816
asg45
I0
sba(iNavigator_0_0663
NODE
p2817
(dp2818
g37
(lp2819
I0
aI0
aI0
aI0
asg39
(lp2820
sg41
(lp2821
(I13
I4
tp2822
a(I11
I4
tp2823
a(I12
I5
tp2824
a(I12
I3
tp2825
asg45
I0
sba(iNavigator_0_0663
NODE
p2826
(dp2827
g37
(lp2828
I0
aI0
aI0
aI0
asg39
(lp2829
sg41
(lp2830
(I13
I5
tp2831
a(I11
I5
tp2832
a(I12
I6
tp2833
a(I12
I4
tp2834
asg45
I0
sba(iNavigator_0_0663
NODE
p2835
(dp2836
g37
(lp2837
I0
aI0
aI0
aI0
asg39
(lp2838
sg41
(lp2839
(I13
I6
tp2840
a(I11
I6
tp2841
a(I12
I7
tp2842
a(I12
I5
tp2843
asg45
I0
sba(iNavigator_0_0663
NODE
p2844
(dp2845
g37
(lp2846
I0
aI0
aI0
aI0
asg39
(lp2847
sg41
(lp2848
(I13
I7
tp2849
a(I11
I7
tp2850
a(I12
I8
tp2851
a(I12
I6
tp2852
asg45
I0
sba(iNavigator_0_0663
NODE
p2853
(dp2854
g37
(lp2855
I0
aI0
aI0
aI0
asg39
(lp2856
sg41
(lp2857
(I13
I8
tp2858
a(I11
I8
tp2859
a(I12
I9
tp2860
a(I12
I7
tp2861
asg45
I0
sba(iNavigator_0_0663
NODE
p2862
(dp2863
g37
(lp2864
I0
aI0
aI0
aI0
asg39
(lp2865
sg41
(lp2866
(I13
I9
tp2867
a(I11
I9
tp2868
a(I12
I10
tp2869
a(I12
I8
tp2870
asg45
I0
sba(iNavigator_0_0663
NODE
p2871
(dp2872
g37
(lp2873
I0
aI0
aI0
aI0
asg39
(lp2874
sg41
(lp2875
(I13
I10
tp2876
a(I11
I10
tp2877
a(I12
I11
tp2878
a(I12
I9
tp2879
asg45
I0
sba(iNavigator_0_0663
NODE
p2880
(dp2881
g37
(lp2882
I0
aI0
aI0
aI0
asg39
(lp2883
sg41
(lp2884
(I13
I11
tp2885
a(I11
I11
tp2886
a(I12
I12
tp2887
a(I12
I10
tp2888
asg45
I0
sba(iNavigator_0_0663
NODE
p2889
(dp2890
g37
(lp2891
I0
aI0
aI0
aI0
asg39
(lp2892
sg41
(lp2893
(I13
I12
tp2894
a(I11
I12
tp2895
a(I12
I13
tp2896
a(I12
I11
tp2897
asg45
I0
sba(iNavigator_0_0663
NODE
p2898
(dp2899
g37
(lp2900
I0
aI0
aI0
aI0
asg39
(lp2901
sg41
(lp2902
(I13
I13
tp2903
a(I11
I13
tp2904
a(I12
I14
tp2905
a(I12
I12
tp2906
asg45
I0
sba(iNavigator_0_0663
NODE
p2907
(dp2908
g37
(lp2909
I0
aI0
aI0
aI0
asg39
(lp2910
sg41
(lp2911
(I13
I14
tp2912
a(I11
I14
tp2913
a(I12
I15
tp2914
a(I12
I13
tp2915
asg45
I0
sba(iNavigator_0_0663
NODE
p2916
(dp2917
g37
(lp2918
I0
aI0
aI0
aI0
asg39
(lp2919
sg41
(lp2920
(I13
I15
tp2921
a(I11
I15
tp2922
a(I12
I16
tp2923
a(I12
I14
tp2924
asg45
I0
sba(iNavigator_0_0663
NODE
p2925
(dp2926
g37
(lp2927
I0
aI0
aI0
aI0
asg39
(lp2928
sg41
(lp2929
(I13
I16
tp2930
a(I11
I16
tp2931
a(I12
I17
tp2932
a(I12
I15
tp2933
asg45
I0
sba(iNavigator_0_0663
NODE
p2934
(dp2935
g37
(lp2936
I0
aI0
aI0
aI0
asg39
(lp2937
sg41
(lp2938
(I13
I17
tp2939
a(I11
I17
tp2940
a(I12
I18
tp2941
a(I12
I16
tp2942
asg45
I0
sba(iNavigator_0_0663
NODE
p2943
(dp2944
g37
(lp2945
I0
aI0
aI0
aI0
asg39
(lp2946
sg41
(lp2947
(I13
I18
tp2948
a(I11
I18
tp2949
a(I12
I19
tp2950
a(I12
I17
tp2951
asg45
I0
sba(iNavigator_0_0663
NODE
p2952
(dp2953
g37
(lp2954
I0
aI0
aI0
aI0
asg39
(lp2955
sg41
(lp2956
(I13
I19
tp2957
a(I11
I19
tp2958
a(I12
I20
tp2959
a(I12
I18
tp2960
asg45
I0
sba(iNavigator_0_0663
NODE
p2961
(dp2962
g37
(lp2963
I0
aI0
aI0
aI0
asg39
(lp2964
sg41
(lp2965
(I13
I20
tp2966
a(I11
I20
tp2967
a(I12
I21
tp2968
a(I12
I19
tp2969
asg45
I0
sba(iNavigator_0_0663
NODE
p2970
(dp2971
g37
(lp2972
I0
aI0
aI0
aI0
asg39
(lp2973
sg41
(lp2974
(I13
I21
tp2975
a(I11
I21
tp2976
a(I12
I22
tp2977
a(I12
I20
tp2978
asg45
I0
sba(iNavigator_0_0663
NODE
p2979
(dp2980
g37
(lp2981
I0
aI0
aI0
aI0
asg39
(lp2982
sg41
(lp2983
(I13
I22
tp2984
a(I11
I22
tp2985
a(I12
I23
tp2986
a(I12
I21
tp2987
asg45
I0
sba(iNavigator_0_0663
NODE
p2988
(dp2989
g37
(lp2990
I0
aI0
aI0
aI0
asg39
(lp2991
sg41
(lp2992
(I13
I23
tp2993
a(I11
I23
tp2994
a(I12
I24
tp2995
a(I12
I22
tp2996
asg45
I0
sba(iNavigator_0_0663
NODE
p2997
(dp2998
g37
(lp2999
I0
aI0
aI0
aI0
asg39
(lp3000
sg41
(lp3001
(I13
I24
tp3002
a(I11
I24
tp3003
a(I12
I23
tp3004
asg45
I0
sbaa(lp3005
(iNavigator_0_0663
NODE
p3006
(dp3007
g37
(lp3008
I0
aI0
aI0
aI0
asg39
(lp3009
sg41
(lp3010
(I14
I0
tp3011
a(I12
I0
tp3012
a(I13
I1
tp3013
asg45
I0
sba(iNavigator_0_0663
NODE
p3014
(dp3015
g37
(lp3016
I0
aI0
aI0
aI0
asg39
(lp3017
sg41
(lp3018
(I14
I1
tp3019
a(I12
I1
tp3020
a(I13
I2
tp3021
a(I13
I0
tp3022
asg45
I0
sba(iNavigator_0_0663
NODE
p3023
(dp3024
g37
(lp3025
I0
aI0
aI0
aI0
asg39
(lp3026
sg41
(lp3027
(I14
I2
tp3028
a(I12
I2
tp3029
a(I13
I3
tp3030
a(I13
I1
tp3031
asg45
I0
sba(iNavigator_0_0663
NODE
p3032
(dp3033
g37
(lp3034
I0
aI0
aI0
aI0
asg39
(lp3035
sg41
(lp3036
(I14
I3
tp3037
a(I12
I3
tp3038
a(I13
I4
tp3039
a(I13
I2
tp3040
asg45
I0
sba(iNavigator_0_0663
NODE
p3041
(dp3042
g37
(lp3043
I0
aI0
aI0
aI0
asg39
(lp3044
sg41
(lp3045
(I14
I4
tp3046
a(I12
I4
tp3047
a(I13
I5
tp3048
a(I13
I3
tp3049
asg45
I0
sba(iNavigator_0_0663
NODE
p3050
(dp3051
g37
(lp3052
I0
aI0
aI0
aI0
asg39
(lp3053
sg41
(lp3054
(I14
I5
tp3055
a(I12
I5
tp3056
a(I13
I6
tp3057
a(I13
I4
tp3058
asg45
I0
sba(iNavigator_0_0663
NODE
p3059
(dp3060
g37
(lp3061
I0
aI0
aI0
aI0
asg39
(lp3062
sg41
(lp3063
(I14
I6
tp3064
a(I12
I6
tp3065
a(I13
I7
tp3066
a(I13
I5
tp3067
asg45
I0
sba(iNavigator_0_0663
NODE
p3068
(dp3069
g37
(lp3070
I0
aI0
aI0
aI0
asg39
(lp3071
sg41
(lp3072
(I14
I7
tp3073
a(I12
I7
tp3074
a(I13
I8
tp3075
a(I13
I6
tp3076
asg45
I0
sba(iNavigator_0_0663
NODE
p3077
(dp3078
g37
(lp3079
I0
aI0
aI0
aI0
asg39
(lp3080
sg41
(lp3081
(I14
I8
tp3082
a(I12
I8
tp3083
a(I13
I9
tp3084
a(I13
I7
tp3085
asg45
I0
sba(iNavigator_0_0663
NODE
p3086
(dp3087
g37
(lp3088
I0
aI0
aI0
aI0
asg39
(lp3089
sg41
(lp3090
(I14
I9
tp3091
a(I12
I9
tp3092
a(I13
I10
tp3093
a(I13
I8
tp3094
asg45
I0
sba(iNavigator_0_0663
NODE
p3095
(dp3096
g37
(lp3097
I0
aI0
aI0
aI0
asg39
(lp3098
sg41
(lp3099
(I14
I10
tp3100
a(I12
I10
tp3101
a(I13
I11
tp3102
a(I13
I9
tp3103
asg45
I0
sba(iNavigator_0_0663
NODE
p3104
(dp3105
g37
(lp3106
I0
aI0
aI0
aI0
asg39
(lp3107
sg41
(lp3108
(I14
I11
tp3109
a(I12
I11
tp3110
a(I13
I12
tp3111
a(I13
I10
tp3112
asg45
I0
sba(iNavigator_0_0663
NODE
p3113
(dp3114
g37
(lp3115
I0
aI0
aI0
aI0
asg39
(lp3116
sg41
(lp3117
(I14
I12
tp3118
a(I12
I12
tp3119
a(I13
I13
tp3120
a(I13
I11
tp3121
asg45
I0
sba(iNavigator_0_0663
NODE
p3122
(dp3123
g37
(lp3124
I0
aI0
aI0
aI0
asg39
(lp3125
sg41
(lp3126
(I14
I13
tp3127
a(I12
I13
tp3128
a(I13
I14
tp3129
a(I13
I12
tp3130
asg45
I0
sba(iNavigator_0_0663
NODE
p3131
(dp3132
g37
(lp3133
I0
aI0
aI0
aI0
asg39
(lp3134
sg41
(lp3135
(I14
I14
tp3136
a(I12
I14
tp3137
a(I13
I15
tp3138
a(I13
I13
tp3139
asg45
I0
sba(iNavigator_0_0663
NODE
p3140
(dp3141
g37
(lp3142
I0
aI0
aI0
aI0
asg39
(lp3143
sg41
(lp3144
(I14
I15
tp3145
a(I12
I15
tp3146
a(I13
I16
tp3147
a(I13
I14
tp3148
asg45
I0
sba(iNavigator_0_0663
NODE
p3149
(dp3150
g37
(lp3151
I0
aI0
aI0
aI0
asg39
(lp3152
sg41
(lp3153
(I14
I16
tp3154
a(I12
I16
tp3155
a(I13
I17
tp3156
a(I13
I15
tp3157
asg45
I0
sba(iNavigator_0_0663
NODE
p3158
(dp3159
g37
(lp3160
I0
aI0
aI0
aI0
asg39
(lp3161
sg41
(lp3162
(I14
I17
tp3163
a(I12
I17
tp3164
a(I13
I18
tp3165
a(I13
I16
tp3166
asg45
I0
sba(iNavigator_0_0663
NODE
p3167
(dp3168
g37
(lp3169
I0
aI0
aI0
aI0
asg39
(lp3170
sg41
(lp3171
(I14
I18
tp3172
a(I12
I18
tp3173
a(I13
I19
tp3174
a(I13
I17
tp3175
asg45
I0
sba(iNavigator_0_0663
NODE
p3176
(dp3177
g37
(lp3178
I0
aI0
aI0
aI0
asg39
(lp3179
sg41
(lp3180
(I14
I19
tp3181
a(I12
I19
tp3182
a(I13
I20
tp3183
a(I13
I18
tp3184
asg45
I0
sba(iNavigator_0_0663
NODE
p3185
(dp3186
g37
(lp3187
I0
aI0
aI0
aI0
asg39
(lp3188
sg41
(lp3189
(I14
I20
tp3190
a(I12
I20
tp3191
a(I13
I21
tp3192
a(I13
I19
tp3193
asg45
I0
sba(iNavigator_0_0663
NODE
p3194
(dp3195
g37
(lp3196
I0
aI0
aI0
aI0
asg39
(lp3197
sg41
(lp3198
(I14
I21
tp3199
a(I12
I21
tp3200
a(I13
I22
tp3201
a(I13
I20
tp3202
asg45
I0
sba(iNavigator_0_0663
NODE
p3203
(dp3204
g37
(lp3205
I0
aI0
aI0
aI0
asg39
(lp3206
sg41
(lp3207
(I14
I22
tp3208
a(I12
I22
tp3209
a(I13
I23
tp3210
a(I13
I21
tp3211
asg45
I0
sba(iNavigator_0_0663
NODE
p3212
(dp3213
g37
(lp3214
I0
aI0
aI0
aI0
asg39
(lp3215
sg41
(lp3216
(I14
I23
tp3217
a(I12
I23
tp3218
a(I13
I24
tp3219
a(I13
I22
tp3220
asg45
I0
sba(iNavigator_0_0663
NODE
p3221
(dp3222
g37
(lp3223
I0
aI0
aI0
aI0
asg39
(lp3224
sg41
(lp3225
(I14
I24
tp3226
a(I12
I24
tp3227
a(I13
I23
tp3228
asg45
I0
sbaa(lp3229
(iNavigator_0_0663
NODE
p3230
(dp3231
g37
(lp3232
I0
aI0
aI0
aI0
asg39
(lp3233
sg41
(lp3234
(I15
I0
tp3235
a(I13
I0
tp3236
a(I14
I1
tp3237
asg45
I0
sba(iNavigator_0_0663
NODE
p3238
(dp3239
g37
(lp3240
I0
aI0
aI0
aI0
asg39
(lp3241
sg41
(lp3242
(I15
I1
tp3243
a(I13
I1
tp3244
a(I14
I2
tp3245
a(I14
I0
tp3246
asg45
I0
sba(iNavigator_0_0663
NODE
p3247
(dp3248
g37
(lp3249
I0
aI0
aI0
aI0
asg39
(lp3250
sg41
(lp3251
(I15
I2
tp3252
a(I13
I2
tp3253
a(I14
I3
tp3254
a(I14
I1
tp3255
asg45
I0
sba(iNavigator_0_0663
NODE
p3256
(dp3257
g37
(lp3258
I0
aI0
aI0
aI0
asg39
(lp3259
sg41
(lp3260
(I15
I3
tp3261
a(I13
I3
tp3262
a(I14
I4
tp3263
a(I14
I2
tp3264
asg45
I0
sba(iNavigator_0_0663
NODE
p3265
(dp3266
g37
(lp3267
I0
aI0
aI0
aI0
asg39
(lp3268
sg41
(lp3269
(I15
I4
tp3270
a(I13
I4
tp3271
a(I14
I5
tp3272
a(I14
I3
tp3273
asg45
I0
sba(iNavigator_0_0663
NODE
p3274
(dp3275
g37
(lp3276
I0
aI0
aI0
aI0
asg39
(lp3277
sg41
(lp3278
(I15
I5
tp3279
a(I13
I5
tp3280
a(I14
I6
tp3281
a(I14
I4
tp3282
asg45
I0
sba(iNavigator_0_0663
NODE
p3283
(dp3284
g37
(lp3285
I0
aI0
aI0
aI0
asg39
(lp3286
sg41
(lp3287
(I15
I6
tp3288
a(I13
I6
tp3289
a(I14
I7
tp3290
a(I14
I5
tp3291
asg45
I0
sba(iNavigator_0_0663
NODE
p3292
(dp3293
g37
(lp3294
I0
aI0
aI0
aI0
asg39
(lp3295
sg41
(lp3296
(I15
I7
tp3297
a(I13
I7
tp3298
a(I14
I8
tp3299
a(I14
I6
tp3300
asg45
I0
sba(iNavigator_0_0663
NODE
p3301
(dp3302
g37
(lp3303
I0
aI0
aI0
aI0
asg39
(lp3304
sg41
(lp3305
(I15
I8
tp3306
a(I13
I8
tp3307
a(I14
I9
tp3308
a(I14
I7
tp3309
asg45
I0
sba(iNavigator_0_0663
NODE
p3310
(dp3311
g37
(lp3312
I0
aI0
aI0
aI0
asg39
(lp3313
sg41
(lp3314
(I15
I9
tp3315
a(I13
I9
tp3316
a(I14
I10
tp3317
a(I14
I8
tp3318
asg45
I0
sba(iNavigator_0_0663
NODE
p3319
(dp3320
g37
(lp3321
I0
aI0
aI0
aI0
asg39
(lp3322
sg41
(lp3323
(I15
I10
tp3324
a(I13
I10
tp3325
a(I14
I11
tp3326
a(I14
I9
tp3327
asg45
I0
sba(iNavigator_0_0663
NODE
p3328
(dp3329
g37
(lp3330
I0
aI0
aI0
aI0
asg39
(lp3331
sg41
(lp3332
(I15
I11
tp3333
a(I13
I11
tp3334
a(I14
I12
tp3335
a(I14
I10
tp3336
asg45
I0
sba(iNavigator_0_0663
NODE
p3337
(dp3338
g37
(lp3339
I0
aI0
aI0
aI0
asg39
(lp3340
sg41
(lp3341
(I15
I12
tp3342
a(I13
I12
tp3343
a(I14
I13
tp3344
a(I14
I11
tp3345
asg45
I0
sba(iNavigator_0_0663
NODE
p3346
(dp3347
g37
(lp3348
I0
aI0
aI0
aI0
asg39
(lp3349
sg41
(lp3350
(I15
I13
tp3351
a(I13
I13
tp3352
a(I14
I14
tp3353
a(I14
I12
tp3354
asg45
I0
sba(iNavigator_0_0663
NODE
p3355
(dp3356
g37
(lp3357
I0
aI0
aI0
aI0
asg39
(lp3358
sg41
(lp3359
(I15
I14
tp3360
a(I13
I14
tp3361
a(I14
I15
tp3362
a(I14
I13
tp3363
asg45
I0
sba(iNavigator_0_0663
NODE
p3364
(dp3365
g37
(lp3366
I0
aI0
aI0
aI0
asg39
(lp3367
sg41
(lp3368
(I15
I15
tp3369
a(I13
I15
tp3370
a(I14
I16
tp3371
a(I14
I14
tp3372
asg45
I0
sba(iNavigator_0_0663
NODE
p3373
(dp3374
g37
(lp3375
I0
aI0
aI0
aI0
asg39
(lp3376
sg41
(lp3377
(I15
I16
tp3378
a(I13
I16
tp3379
a(I14
I17
tp3380
a(I14
I15
tp3381
asg45
I0
sba(iNavigator_0_0663
NODE
p3382
(dp3383
g37
(lp3384
I0
aI0
aI0
aI0
asg39
(lp3385
sg41
(lp3386
(I15
I17
tp3387
a(I13
I17
tp3388
a(I14
I18
tp3389
a(I14
I16
tp3390
asg45
I0
sba(iNavigator_0_0663
NODE
p3391
(dp3392
g37
(lp3393
I0
aI0
aI0
aI0
asg39
(lp3394
sg41
(lp3395
(I15
I18
tp3396
a(I13
I18
tp3397
a(I14
I19
tp3398
a(I14
I17
tp3399
asg45
I0
sba(iNavigator_0_0663
NODE
p3400
(dp3401
g37
(lp3402
I0
aI0
aI0
aI0
asg39
(lp3403
sg41
(lp3404
(I15
I19
tp3405
a(I13
I19
tp3406
a(I14
I20
tp3407
a(I14
I18
tp3408
asg45
I0
sba(iNavigator_0_0663
NODE
p3409
(dp3410
g37
(lp3411
I0
aI0
aI0
aI0
asg39
(lp3412
sg41
(lp3413
(I15
I20
tp3414
a(I13
I20
tp3415
a(I14
I21
tp3416
a(I14
I19
tp3417
asg45
I0
sba(iNavigator_0_0663
NODE
p3418
(dp3419
g37
(lp3420
I0
aI0
aI0
aI0
asg39
(lp3421
sg41
(lp3422
(I15
I21
tp3423
a(I13
I21
tp3424
a(I14
I22
tp3425
a(I14
I20
tp3426
asg45
I0
sba(iNavigator_0_0663
NODE
p3427
(dp3428
g37
(lp3429
I0
aI0
aI0
aI0
asg39
(lp3430
sg41
(lp3431
(I15
I22
tp3432
a(I13
I22
tp3433
a(I14
I23
tp3434
a(I14
I21
tp3435
asg45
I0
sba(iNavigator_0_0663
NODE
p3436
(dp3437
g37
(lp3438
I0
aI0
aI0
aI0
asg39
(lp3439
sg41
(lp3440
(I15
I23
tp3441
a(I13
I23
tp3442
a(I14
I24
tp3443
a(I14
I22
tp3444
asg45
I0
sba(iNavigator_0_0663
NODE
p3445
(dp3446
g37
(lp3447
I0
aI0
aI0
aI0
asg39
(lp3448
sg41
(lp3449
(I15
I24
tp3450
a(I13
I24
tp3451
a(I14
I23
tp3452
asg45
I0
sbaa(lp3453
(iNavigator_0_0663
NODE
p3454
(dp3455
g37
(lp3456
I0
aI0
aI0
aI0
asg39
(lp3457
sg41
(lp3458
(I16
I0
tp3459
a(I14
I0
tp3460
a(I15
I1
tp3461
asg45
I0
sba(iNavigator_0_0663
NODE
p3462
(dp3463
g37
(lp3464
I0
aI0
aI0
aI0
asg39
(lp3465
sg41
(lp3466
(I16
I1
tp3467
a(I14
I1
tp3468
a(I15
I2
tp3469
a(I15
I0
tp3470
asg45
I0
sba(iNavigator_0_0663
NODE
p3471
(dp3472
g37
(lp3473
I0
aI0
aI0
aI0
asg39
(lp3474
sg41
(lp3475
(I16
I2
tp3476
a(I14
I2
tp3477
a(I15
I3
tp3478
a(I15
I1
tp3479
asg45
I0
sba(iNavigator_0_0663
NODE
p3480
(dp3481
g37
(lp3482
I0
aI0
aI0
aI0
asg39
(lp3483
sg41
(lp3484
(I16
I3
tp3485
a(I14
I3
tp3486
a(I15
I4
tp3487
a(I15
I2
tp3488
asg45
I0
sba(iNavigator_0_0663
NODE
p3489
(dp3490
g37
(lp3491
I0
aI0
aI0
aI0
asg39
(lp3492
sg41
(lp3493
(I16
I4
tp3494
a(I14
I4
tp3495
a(I15
I5
tp3496
a(I15
I3
tp3497
asg45
I0
sba(iNavigator_0_0663
NODE
p3498
(dp3499
g37
(lp3500
I0
aI0
aI0
aI0
asg39
(lp3501
sg41
(lp3502
(I16
I5
tp3503
a(I14
I5
tp3504
a(I15
I6
tp3505
a(I15
I4
tp3506
asg45
I0
sba(iNavigator_0_0663
NODE
p3507
(dp3508
g37
(lp3509
I0
aI0
aI0
aI0
asg39
(lp3510
sg41
(lp3511
(I16
I6
tp3512
a(I14
I6
tp3513
a(I15
I7
tp3514
a(I15
I5
tp3515
asg45
I0
sba(iNavigator_0_0663
NODE
p3516
(dp3517
g37
(lp3518
I0
aI0
aI0
aI0
asg39
(lp3519
sg41
(lp3520
(I16
I7
tp3521
a(I14
I7
tp3522
a(I15
I8
tp3523
a(I15
I6
tp3524
asg45
I0
sba(iNavigator_0_0663
NODE
p3525
(dp3526
g37
(lp3527
I0
aI0
aI0
aI0
asg39
(lp3528
sg41
(lp3529
(I16
I8
tp3530
a(I14
I8
tp3531
a(I15
I9
tp3532
a(I15
I7
tp3533
asg45
I0
sba(iNavigator_0_0663
NODE
p3534
(dp3535
g37
(lp3536
I0
aI0
aI0
aI0
asg39
(lp3537
sg41
(lp3538
(I16
I9
tp3539
a(I14
I9
tp3540
a(I15
I10
tp3541
a(I15
I8
tp3542
asg45
I0
sba(iNavigator_0_0663
NODE
p3543
(dp3544
g37
(lp3545
I0
aI0
aI0
aI0
asg39
(lp3546
sg41
(lp3547
(I16
I10
tp3548
a(I14
I10
tp3549
a(I15
I11
tp3550
a(I15
I9
tp3551
asg45
I0
sba(iNavigator_0_0663
NODE
p3552
(dp3553
g37
(lp3554
I0
aI0
aI0
aI0
asg39
(lp3555
sg41
(lp3556
(I16
I11
tp3557
a(I14
I11
tp3558
a(I15
I12
tp3559
a(I15
I10
tp3560
asg45
I0
sba(iNavigator_0_0663
NODE
p3561
(dp3562
g37
(lp3563
I0
aI0
aI0
aI0
asg39
(lp3564
sg41
(lp3565
(I16
I12
tp3566
a(I14
I12
tp3567
a(I15
I13
tp3568
a(I15
I11
tp3569
asg45
I0
sba(iNavigator_0_0663
NODE
p3570
(dp3571
g37
(lp3572
I0
aI0
aI0
aI0
asg39
(lp3573
sg41
(lp3574
(I16
I13
tp3575
a(I14
I13
tp3576
a(I15
I14
tp3577
a(I15
I12
tp3578
asg45
I0
sba(iNavigator_0_0663
NODE
p3579
(dp3580
g37
(lp3581
I0
aI0
aI0
aI0
asg39
(lp3582
sg41
(lp3583
(I16
I14
tp3584
a(I14
I14
tp3585
a(I15
I15
tp3586
a(I15
I13
tp3587
asg45
I0
sba(iNavigator_0_0663
NODE
p3588
(dp3589
g37
(lp3590
I0
aI0
aI0
aI0
asg39
(lp3591
sg41
(lp3592
(I16
I15
tp3593
a(I14
I15
tp3594
a(I15
I16
tp3595
a(I15
I14
tp3596
asg45
I0
sba(iNavigator_0_0663
NODE
p3597
(dp3598
g37
(lp3599
I0
aI0
aI0
aI0
asg39
(lp3600
sg41
(lp3601
(I16
I16
tp3602
a(I14
I16
tp3603
a(I15
I17
tp3604
a(I15
I15
tp3605
asg45
I0
sba(iNavigator_0_0663
NODE
p3606
(dp3607
g37
(lp3608
I0
aI0
aI0
aI0
asg39
(lp3609
sg41
(lp3610
(I16
I17
tp3611
a(I14
I17
tp3612
a(I15
I18
tp3613
a(I15
I16
tp3614
asg45
I0
sba(iNavigator_0_0663
NODE
p3615
(dp3616
g37
(lp3617
I0
aI0
aI0
aI0
asg39
(lp3618
sg41
(lp3619
(I16
I18
tp3620
a(I14
I18
tp3621
a(I15
I19
tp3622
a(I15
I17
tp3623
asg45
I0
sba(iNavigator_0_0663
NODE
p3624
(dp3625
g37
(lp3626
I0
aI0
aI0
aI0
asg39
(lp3627
sg41
(lp3628
(I16
I19
tp3629
a(I14
I19
tp3630
a(I15
I20
tp3631
a(I15
I18
tp3632
asg45
I0
sba(iNavigator_0_0663
NODE
p3633
(dp3634
g37
(lp3635
I0
aI0
aI0
aI0
asg39
(lp3636
sg41
(lp3637
(I16
I20
tp3638
a(I14
I20
tp3639
a(I15
I21
tp3640
a(I15
I19
tp3641
asg45
I0
sba(iNavigator_0_0663
NODE
p3642
(dp3643
g37
(lp3644
I0
aI0
aI0
aI0
asg39
(lp3645
sg41
(lp3646
(I16
I21
tp3647
a(I14
I21
tp3648
a(I15
I22
tp3649
a(I15
I20
tp3650
asg45
I0
sba(iNavigator_0_0663
NODE
p3651
(dp3652
g37
(lp3653
I0
aI0
aI0
aI0
asg39
(lp3654
sg41
(lp3655
(I16
I22
tp3656
a(I14
I22
tp3657
a(I15
I23
tp3658
a(I15
I21
tp3659
asg45
I0
sba(iNavigator_0_0663
NODE
p3660
(dp3661
g37
(lp3662
I0
aI0
aI0
aI0
asg39
(lp3663
sg41
(lp3664
(I16
I23
tp3665
a(I14
I23
tp3666
a(I15
I24
tp3667
a(I15
I22
tp3668
asg45
I0
sba(iNavigator_0_0663
NODE
p3669
(dp3670
g37
(lp3671
I0
aI0
aI0
aI0
asg39
(lp3672
sg41
(lp3673
(I16
I24
tp3674
a(I14
I24
tp3675
a(I15
I23
tp3676
asg45
I0
sbaa(lp3677
(iNavigator_0_0663
NODE
p3678
(dp3679
g37
(lp3680
I0
aI0
aI0
aI0
asg39
(lp3681
sg41
(lp3682
(I17
I0
tp3683
a(I15
I0
tp3684
a(I16
I1
tp3685
asg45
I0
sba(iNavigator_0_0663
NODE
p3686
(dp3687
g37
(lp3688
I0
aI0
aI0
aI0
asg39
(lp3689
sg41
(lp3690
(I17
I1
tp3691
a(I15
I1
tp3692
a(I16
I2
tp3693
a(I16
I0
tp3694
asg45
I0
sba(iNavigator_0_0663
NODE
p3695
(dp3696
g37
(lp3697
I0
aI0
aI0
aI0
asg39
(lp3698
sg41
(lp3699
(I17
I2
tp3700
a(I15
I2
tp3701
a(I16
I3
tp3702
a(I16
I1
tp3703
asg45
I0
sba(iNavigator_0_0663
NODE
p3704
(dp3705
g37
(lp3706
I0
aI0
aI0
aI0
asg39
(lp3707
sg41
(lp3708
(I17
I3
tp3709
a(I15
I3
tp3710
a(I16
I4
tp3711
a(I16
I2
tp3712
asg45
I0
sba(iNavigator_0_0663
NODE
p3713
(dp3714
g37
(lp3715
I0
aI0
aI0
aI0
asg39
(lp3716
sg41
(lp3717
(I17
I4
tp3718
a(I15
I4
tp3719
a(I16
I5
tp3720
a(I16
I3
tp3721
asg45
I0
sba(iNavigator_0_0663
NODE
p3722
(dp3723
g37
(lp3724
I0
aI0
aI0
aI0
asg39
(lp3725
sg41
(lp3726
(I17
I5
tp3727
a(I15
I5
tp3728
a(I16
I6
tp3729
a(I16
I4
tp3730
asg45
I0
sba(iNavigator_0_0663
NODE
p3731
(dp3732
g37
(lp3733
I0
aI0
aI0
aI0
asg39
(lp3734
sg41
(lp3735
(I17
I6
tp3736
a(I15
I6
tp3737
a(I16
I7
tp3738
a(I16
I5
tp3739
asg45
I0
sba(iNavigator_0_0663
NODE
p3740
(dp3741
g37
(lp3742
I0
aI0
aI0
aI0
asg39
(lp3743
sg41
(lp3744
(I17
I7
tp3745
a(I15
I7
tp3746
a(I16
I8
tp3747
a(I16
I6
tp3748
asg45
I0
sba(iNavigator_0_0663
NODE
p3749
(dp3750
g37
(lp3751
I0
aI0
aI0
aI0
asg39
(lp3752
sg41
(lp3753
(I17
I8
tp3754
a(I15
I8
tp3755
a(I16
I9
tp3756
a(I16
I7
tp3757
asg45
I0
sba(iNavigator_0_0663
NODE
p3758
(dp3759
g37
(lp3760
I0
aI0
aI0
aI0
asg39
(lp3761
sg41
(lp3762
(I17
I9
tp3763
a(I15
I9
tp3764
a(I16
I10
tp3765
a(I16
I8
tp3766
asg45
I0
sba(iNavigator_0_0663
NODE
p3767
(dp3768
g37
(lp3769
I0
aI0
aI0
aI0
asg39
(lp3770
sg41
(lp3771
(I17
I10
tp3772
a(I15
I10
tp3773
a(I16
I11
tp3774
a(I16
I9
tp3775
asg45
I0
sba(iNavigator_0_0663
NODE
p3776
(dp3777
g37
(lp3778
I0
aI0
aI0
aI0
asg39
(lp3779
sg41
(lp3780
(I17
I11
tp3781
a(I15
I11
tp3782
a(I16
I12
tp3783
a(I16
I10
tp3784
asg45
I0
sba(iNavigator_0_0663
NODE
p3785
(dp3786
g37
(lp3787
I0
aI0
aI0
aI0
asg39
(lp3788
sg41
(lp3789
(I17
I12
tp3790
a(I15
I12
tp3791
a(I16
I13
tp3792
a(I16
I11
tp3793
asg45
I0
sba(iNavigator_0_0663
NODE
p3794
(dp3795
g37
(lp3796
I0
aI0
aI0
aI0
asg39
(lp3797
sg41
(lp3798
(I17
I13
tp3799
a(I15
I13
tp3800
a(I16
I14
tp3801
a(I16
I12
tp3802
asg45
I0
sba(iNavigator_0_0663
NODE
p3803
(dp3804
g37
(lp3805
I0
aI0
aI0
aI0
asg39
(lp3806
sg41
(lp3807
(I17
I14
tp3808
a(I15
I14
tp3809
a(I16
I15
tp3810
a(I16
I13
tp3811
asg45
I0
sba(iNavigator_0_0663
NODE
p3812
(dp3813
g37
(lp3814
I0
aI0
aI0
aI0
asg39
(lp3815
sg41
(lp3816
(I17
I15
tp3817
a(I15
I15
tp3818
a(I16
I16
tp3819
a(I16
I14
tp3820
asg45
I0
sba(iNavigator_0_0663
NODE
p3821
(dp3822
g37
(lp3823
I0
aI0
aI0
aI0
asg39
(lp3824
sg41
(lp3825
(I17
I16
tp3826
a(I15
I16
tp3827
a(I16
I17
tp3828
a(I16
I15
tp3829
asg45
I0
sba(iNavigator_0_0663
NODE
p3830
(dp3831
g37
(lp3832
I0
aI0
aI0
aI0
asg39
(lp3833
sg41
(lp3834
(I17
I17
tp3835
a(I15
I17
tp3836
a(I16
I18
tp3837
a(I16
I16
tp3838
asg45
I0
sba(iNavigator_0_0663
NODE
p3839
(dp3840
g37
(lp3841
I0
aI0
aI0
aI0
asg39
(lp3842
sg41
(lp3843
(I17
I18
tp3844
a(I15
I18
tp3845
a(I16
I19
tp3846
a(I16
I17
tp3847
asg45
I0
sba(iNavigator_0_0663
NODE
p3848
(dp3849
g37
(lp3850
I0
aI0
aI0
aI0
asg39
(lp3851
sg41
(lp3852
(I17
I19
tp3853
a(I15
I19
tp3854
a(I16
I20
tp3855
a(I16
I18
tp3856
asg45
I0
sba(iNavigator_0_0663
NODE
p3857
(dp3858
g37
(lp3859
I0
aI0
aI0
aI0
asg39
(lp3860
sg41
(lp3861
(I17
I20
tp3862
a(I15
I20
tp3863
a(I16
I21
tp3864
a(I16
I19
tp3865
asg45
I0
sba(iNavigator_0_0663
NODE
p3866
(dp3867
g37
(lp3868
I0
aI0
aI0
aI0
asg39
(lp3869
sg41
(lp3870
(I17
I21
tp3871
a(I15
I21
tp3872
a(I16
I22
tp3873
a(I16
I20
tp3874
asg45
I0
sba(iNavigator_0_0663
NODE
p3875
(dp3876
g37
(lp3877
I0
aI0
aI0
aI0
asg39
(lp3878
sg41
(lp3879
(I17
I22
tp3880
a(I15
I22
tp3881
a(I16
I23
tp3882
a(I16
I21
tp3883
asg45
I0
sba(iNavigator_0_0663
NODE
p3884
(dp3885
g37
(lp3886
I0
aI0
aI0
aI0
asg39
(lp3887
sg41
(lp3888
(I17
I23
tp3889
a(I15
I23
tp3890
a(I16
I24
tp3891
a(I16
I22
tp3892
asg45
I0
sba(iNavigator_0_0663
NODE
p3893
(dp3894
g37
(lp3895
I0
aI0
aI0
aI0
asg39
(lp3896
sg41
(lp3897
(I17
I24
tp3898
a(I15
I24
tp3899
a(I16
I23
tp3900
asg45
I0
sbaa(lp3901
(iNavigator_0_0663
NODE
p3902
(dp3903
g37
(lp3904
I0
aI0
aI0
aI0
asg39
(lp3905
sg41
(lp3906
(I18
I0
tp3907
a(I16
I0
tp3908
a(I17
I1
tp3909
asg45
I0
sba(iNavigator_0_0663
NODE
p3910
(dp3911
g37
(lp3912
I0
aI0
aI0
aI0
asg39
(lp3913
sg41
(lp3914
(I18
I1
tp3915
a(I16
I1
tp3916
a(I17
I2
tp3917
a(I17
I0
tp3918
asg45
I0
sba(iNavigator_0_0663
NODE
p3919
(dp3920
g37
(lp3921
I0
aI0
aI0
aI0
asg39
(lp3922
sg41
(lp3923
(I18
I2
tp3924
a(I16
I2
tp3925
a(I17
I3
tp3926
a(I17
I1
tp3927
asg45
I0
sba(iNavigator_0_0663
NODE
p3928
(dp3929
g37
(lp3930
I0
aI0
aI0
aI0
asg39
(lp3931
sg41
(lp3932
(I18
I3
tp3933
a(I16
I3
tp3934
a(I17
I4
tp3935
a(I17
I2
tp3936
asg45
I0
sba(iNavigator_0_0663
NODE
p3937
(dp3938
g37
(lp3939
I0
aI0
aI0
aI0
asg39
(lp3940
sg41
(lp3941
(I18
I4
tp3942
a(I16
I4
tp3943
a(I17
I5
tp3944
a(I17
I3
tp3945
asg45
I0
sba(iNavigator_0_0663
NODE
p3946
(dp3947
g37
(lp3948
I0
aI0
aI0
aI0
asg39
(lp3949
sg41
(lp3950
(I18
I5
tp3951
a(I16
I5
tp3952
a(I17
I6
tp3953
a(I17
I4
tp3954
asg45
I0
sba(iNavigator_0_0663
NODE
p3955
(dp3956
g37
(lp3957
I0
aI0
aI0
aI0
asg39
(lp3958
sg41
(lp3959
(I18
I6
tp3960
a(I16
I6
tp3961
a(I17
I7
tp3962
a(I17
I5
tp3963
asg45
I0
sba(iNavigator_0_0663
NODE
p3964
(dp3965
g37
(lp3966
I0
aI0
aI0
aI0
asg39
(lp3967
sg41
(lp3968
(I18
I7
tp3969
a(I16
I7
tp3970
a(I17
I8
tp3971
a(I17
I6
tp3972
asg45
I0
sba(iNavigator_0_0663
NODE
p3973
(dp3974
g37
(lp3975
I0
aI0
aI0
aI0
asg39
(lp3976
sg41
(lp3977
(I18
I8
tp3978
a(I16
I8
tp3979
a(I17
I9
tp3980
a(I17
I7
tp3981
asg45
I0
sba(iNavigator_0_0663
NODE
p3982
(dp3983
g37
(lp3984
I0
aI0
aI0
aI0
asg39
(lp3985
sg41
(lp3986
(I18
I9
tp3987
a(I16
I9
tp3988
a(I17
I10
tp3989
a(I17
I8
tp3990
asg45
I0
sba(iNavigator_0_0663
NODE
p3991
(dp3992
g37
(lp3993
I0
aI0
aI0
aI0
asg39
(lp3994
sg41
(lp3995
(I18
I10
tp3996
a(I16
I10
tp3997
a(I17
I11
tp3998
a(I17
I9
tp3999
asg45
I0
sba(iNavigator_0_0663
NODE
p4000
(dp4001
g37
(lp4002
I0
aI0
aI0
aI0
asg39
(lp4003
sg41
(lp4004
(I18
I11
tp4005
a(I16
I11
tp4006
a(I17
I12
tp4007
a(I17
I10
tp4008
asg45
I0
sba(iNavigator_0_0663
NODE
p4009
(dp4010
g37
(lp4011
I0
aI0
aI0
aI0
asg39
(lp4012
sg41
(lp4013
(I18
I12
tp4014
a(I16
I12
tp4015
a(I17
I13
tp4016
a(I17
I11
tp4017
asg45
I0
sba(iNavigator_0_0663
NODE
p4018
(dp4019
g37
(lp4020
I0
aI0
aI0
aI0
asg39
(lp4021
sg41
(lp4022
(I18
I13
tp4023
a(I16
I13
tp4024
a(I17
I14
tp4025
a(I17
I12
tp4026
asg45
I0
sba(iNavigator_0_0663
NODE
p4027
(dp4028
g37
(lp4029
I0
aI0
aI0
aI0
asg39
(lp4030
sg41
(lp4031
(I18
I14
tp4032
a(I16
I14
tp4033
a(I17
I15
tp4034
a(I17
I13
tp4035
asg45
I0
sba(iNavigator_0_0663
NODE
p4036
(dp4037
g37
(lp4038
I0
aI0
aI0
aI0
asg39
(lp4039
sg41
(lp4040
(I18
I15
tp4041
a(I16
I15
tp4042
a(I17
I16
tp4043
a(I17
I14
tp4044
asg45
I0
sba(iNavigator_0_0663
NODE
p4045
(dp4046
g37
(lp4047
I0
aI0
aI0
aI0
asg39
(lp4048
sg41
(lp4049
(I18
I16
tp4050
a(I16
I16
tp4051
a(I17
I17
tp4052
a(I17
I15
tp4053
asg45
I0
sba(iNavigator_0_0663
NODE
p4054
(dp4055
g37
(lp4056
I0
aI0
aI0
aI0
asg39
(lp4057
sg41
(lp4058
(I18
I17
tp4059
a(I16
I17
tp4060
a(I17
I18
tp4061
a(I17
I16
tp4062
asg45
I0
sba(iNavigator_0_0663
NODE
p4063
(dp4064
g37
(lp4065
I0
aI0
aI0
aI0
asg39
(lp4066
sg41
(lp4067
(I18
I18
tp4068
a(I16
I18
tp4069
a(I17
I19
tp4070
a(I17
I17
tp4071
asg45
I0
sba(iNavigator_0_0663
NODE
p4072
(dp4073
g37
(lp4074
I0
aI0
aI0
aI0
asg39
(lp4075
sg41
(lp4076
(I18
I19
tp4077
a(I16
I19
tp4078
a(I17
I20
tp4079
a(I17
I18
tp4080
asg45
I0
sba(iNavigator_0_0663
NODE
p4081
(dp4082
g37
(lp4083
I0
aI0
aI0
aI0
asg39
(lp4084
sg41
(lp4085
(I18
I20
tp4086
a(I16
I20
tp4087
a(I17
I21
tp4088
a(I17
I19
tp4089
asg45
I0
sba(iNavigator_0_0663
NODE
p4090
(dp4091
g37
(lp4092
I0
aI0
aI0
aI0
asg39
(lp4093
sg41
(lp4094
(I18
I21
tp4095
a(I16
I21
tp4096
a(I17
I22
tp4097
a(I17
I20
tp4098
asg45
I0
sba(iNavigator_0_0663
NODE
p4099
(dp4100
g37
(lp4101
I0
aI0
aI0
aI0
asg39
(lp4102
sg41
(lp4103
(I18
I22
tp4104
a(I16
I22
tp4105
a(I17
I23
tp4106
a(I17
I21
tp4107
asg45
I0
sba(iNavigator_0_0663
NODE
p4108
(dp4109
g37
(lp4110
I0
aI0
aI0
aI0
asg39
(lp4111
sg41
(lp4112
(I18
I23
tp4113
a(I16
I23
tp4114
a(I17
I24
tp4115
a(I17
I22
tp4116
asg45
I0
sba(iNavigator_0_0663
NODE
p4117
(dp4118
g37
(lp4119
I0
aI0
aI0
aI0
asg39
(lp4120
sg41
(lp4121
(I18
I24
tp4122
a(I16
I24
tp4123
a(I17
I23
tp4124
asg45
I0
sbaa(lp4125
(iNavigator_0_0663
NODE
p4126
(dp4127
g37
(lp4128
I0
aI0
aI0
aI0
asg39
(lp4129
sg41
(lp4130
(I19
I0
tp4131
a(I17
I0
tp4132
a(I18
I1
tp4133
asg45
I0
sba(iNavigator_0_0663
NODE
p4134
(dp4135
g37
(lp4136
I0
aI0
aI0
aI0
asg39
(lp4137
sg41
(lp4138
(I19
I1
tp4139
a(I17
I1
tp4140
a(I18
I2
tp4141
a(I18
I0
tp4142
asg45
I0
sba(iNavigator_0_0663
NODE
p4143
(dp4144
g37
(lp4145
I0
aI0
aI0
aI0
asg39
(lp4146
sg41
(lp4147
(I19
I2
tp4148
a(I17
I2
tp4149
a(I18
I3
tp4150
a(I18
I1
tp4151
asg45
I0
sba(iNavigator_0_0663
NODE
p4152
(dp4153
g37
(lp4154
I0
aI0
aI0
aI0
asg39
(lp4155
sg41
(lp4156
(I19
I3
tp4157
a(I17
I3
tp4158
a(I18
I4
tp4159
a(I18
I2
tp4160
asg45
I0
sba(iNavigator_0_0663
NODE
p4161
(dp4162
g37
(lp4163
I0
aI0
aI0
aI0
asg39
(lp4164
sg41
(lp4165
(I19
I4
tp4166
a(I17
I4
tp4167
a(I18
I5
tp4168
a(I18
I3
tp4169
asg45
I0
sba(iNavigator_0_0663
NODE
p4170
(dp4171
g37
(lp4172
I0
aI0
aI0
aI0
asg39
(lp4173
sg41
(lp4174
(I19
I5
tp4175
a(I17
I5
tp4176
a(I18
I6
tp4177
a(I18
I4
tp4178
asg45
I0
sba(iNavigator_0_0663
NODE
p4179
(dp4180
g37
(lp4181
I0
aI0
aI0
aI0
asg39
(lp4182
sg41
(lp4183
(I19
I6
tp4184
a(I17
I6
tp4185
a(I18
I7
tp4186
a(I18
I5
tp4187
asg45
I0
sba(iNavigator_0_0663
NODE
p4188
(dp4189
g37
(lp4190
I0
aI0
aI0
aI0
asg39
(lp4191
sg41
(lp4192
(I19
I7
tp4193
a(I17
I7
tp4194
a(I18
I8
tp4195
a(I18
I6
tp4196
asg45
I0
sba(iNavigator_0_0663
NODE
p4197
(dp4198
g37
(lp4199
I0
aI0
aI0
aI0
asg39
(lp4200
sg41
(lp4201
(I19
I8
tp4202
a(I17
I8
tp4203
a(I18
I9
tp4204
a(I18
I7
tp4205
asg45
I0
sba(iNavigator_0_0663
NODE
p4206
(dp4207
g37
(lp4208
I0
aI0
aI0
aI0
asg39
(lp4209
sg41
(lp4210
(I19
I9
tp4211
a(I17
I9
tp4212
a(I18
I10
tp4213
a(I18
I8
tp4214
asg45
I0
sba(iNavigator_0_0663
NODE
p4215
(dp4216
g37
(lp4217
I0
aI0
aI0
aI0
asg39
(lp4218
sg41
(lp4219
(I19
I10
tp4220
a(I17
I10
tp4221
a(I18
I11
tp4222
a(I18
I9
tp4223
asg45
I0
sba(iNavigator_0_0663
NODE
p4224
(dp4225
g37
(lp4226
I0
aI0
aI0
aI0
asg39
(lp4227
sg41
(lp4228
(I19
I11
tp4229
a(I17
I11
tp4230
a(I18
I12
tp4231
a(I18
I10
tp4232
asg45
I0
sba(iNavigator_0_0663
NODE
p4233
(dp4234
g37
(lp4235
I0
aI0
aI0
aI0
asg39
(lp4236
sg41
(lp4237
(I19
I12
tp4238
a(I17
I12
tp4239
a(I18
I13
tp4240
a(I18
I11
tp4241
asg45
I0
sba(iNavigator_0_0663
NODE
p4242
(dp4243
g37
(lp4244
I0
aI0
aI0
aI0
asg39
(lp4245
sg41
(lp4246
(I19
I13
tp4247
a(I17
I13
tp4248
a(I18
I14
tp4249
a(I18
I12
tp4250
asg45
I0
sba(iNavigator_0_0663
NODE
p4251
(dp4252
g37
(lp4253
I0
aI0
aI0
aI0
asg39
(lp4254
sg41
(lp4255
(I19
I14
tp4256
a(I17
I14
tp4257
a(I18
I15
tp4258
a(I18
I13
tp4259
asg45
I0
sba(iNavigator_0_0663
NODE
p4260
(dp4261
g37
(lp4262
I0
aI0
aI0
aI0
asg39
(lp4263
sg41
(lp4264
(I19
I15
tp4265
a(I17
I15
tp4266
a(I18
I16
tp4267
a(I18
I14
tp4268
asg45
I0
sba(iNavigator_0_0663
NODE
p4269
(dp4270
g37
(lp4271
I0
aI0
aI0
aI0
asg39
(lp4272
sg41
(lp4273
(I19
I16
tp4274
a(I17
I16
tp4275
a(I18
I17
tp4276
a(I18
I15
tp4277
asg45
I0
sba(iNavigator_0_0663
NODE
p4278
(dp4279
g37
(lp4280
I0
aI0
aI0
aI0
asg39
(lp4281
sg41
(lp4282
(I19
I17
tp4283
a(I17
I17
tp4284
a(I18
I18
tp4285
a(I18
I16
tp4286
asg45
I0
sba(iNavigator_0_0663
NODE
p4287
(dp4288
g37
(lp4289
I0
aI0
aI0
aI0
asg39
(lp4290
sg41
(lp4291
(I19
I18
tp4292
a(I17
I18
tp4293
a(I18
I19
tp4294
a(I18
I17
tp4295
asg45
I0
sba(iNavigator_0_0663
NODE
p4296
(dp4297
g37
(lp4298
I0
aI0
aI0
aI0
asg39
(lp4299
sg41
(lp4300
(I19
I19
tp4301
a(I17
I19
tp4302
a(I18
I20
tp4303
a(I18
I18
tp4304
asg45
I0
sba(iNavigator_0_0663
NODE
p4305
(dp4306
g37
(lp4307
I0
aI0
aI0
aI0
asg39
(lp4308
sg41
(lp4309
(I19
I20
tp4310
a(I17
I20
tp4311
a(I18
I21
tp4312
a(I18
I19
tp4313
asg45
I0
sba(iNavigator_0_0663
NODE
p4314
(dp4315
g37
(lp4316
I0
aI0
aI0
aI0
asg39
(lp4317
sg41
(lp4318
(I19
I21
tp4319
a(I17
I21
tp4320
a(I18
I22
tp4321
a(I18
I20
tp4322
asg45
I0
sba(iNavigator_0_0663
NODE
p4323
(dp4324
g37
(lp4325
I0
aI0
aI0
aI0
asg39
(lp4326
sg41
(lp4327
(I19
I22
tp4328
a(I17
I22
tp4329
a(I18
I23
tp4330
a(I18
I21
tp4331
asg45
I0
sba(iNavigator_0_0663
NODE
p4332
(dp4333
g37
(lp4334
I0
aI0
aI0
aI0
asg39
(lp4335
sg41
(lp4336
(I19
I23
tp4337
a(I17
I23
tp4338
a(I18
I24
tp4339
a(I18
I22
tp4340
asg45
I0
sba(iNavigator_0_0663
NODE
p4341
(dp4342
g37
(lp4343
I0
aI0
aI0
aI0
asg39
(lp4344
sg41
(lp4345
(I19
I24
tp4346
a(I17
I24
tp4347
a(I18
I23
tp4348
asg45
I0
sbaa(lp4349
(iNavigator_0_0663
NODE
p4350
(dp4351
g37
(lp4352
I0
aI0
aI0
aI0
asg39
(lp4353
sg41
(lp4354
(I20
I0
tp4355
a(I18
I0
tp4356
a(I19
I1
tp4357
asg45
I0
sba(iNavigator_0_0663
NODE
p4358
(dp4359
g37
(lp4360
I0
aI0
aI0
aI0
asg39
(lp4361
sg41
(lp4362
(I20
I1
tp4363
a(I18
I1
tp4364
a(I19
I2
tp4365
a(I19
I0
tp4366
asg45
I0
sba(iNavigator_0_0663
NODE
p4367
(dp4368
g37
(lp4369
I0
aI0
aI0
aI0
asg39
(lp4370
sg41
(lp4371
(I20
I2
tp4372
a(I18
I2
tp4373
a(I19
I3
tp4374
a(I19
I1
tp4375
asg45
I0
sba(iNavigator_0_0663
NODE
p4376
(dp4377
g37
(lp4378
I0
aI0
aI0
aI0
asg39
(lp4379
sg41
(lp4380
(I20
I3
tp4381
a(I18
I3
tp4382
a(I19
I4
tp4383
a(I19
I2
tp4384
asg45
I0
sba(iNavigator_0_0663
NODE
p4385
(dp4386
g37
(lp4387
I0
aI0
aI0
aI0
asg39
(lp4388
sg41
(lp4389
(I20
I4
tp4390
a(I18
I4
tp4391
a(I19
I5
tp4392
a(I19
I3
tp4393
asg45
I0
sba(iNavigator_0_0663
NODE
p4394
(dp4395
g37
(lp4396
I0
aI0
aI0
aI0
asg39
(lp4397
sg41
(lp4398
(I20
I5
tp4399
a(I18
I5
tp4400
a(I19
I6
tp4401
a(I19
I4
tp4402
asg45
I0
sba(iNavigator_0_0663
NODE
p4403
(dp4404
g37
(lp4405
I0
aI0
aI0
aI0
asg39
(lp4406
sg41
(lp4407
(I20
I6
tp4408
a(I18
I6
tp4409
a(I19
I7
tp4410
a(I19
I5
tp4411
asg45
I0
sba(iNavigator_0_0663
NODE
p4412
(dp4413
g37
(lp4414
I0
aI0
aI0
aI0
asg39
(lp4415
sg41
(lp4416
(I20
I7
tp4417
a(I18
I7
tp4418
a(I19
I8
tp4419
a(I19
I6
tp4420
asg45
I0
sba(iNavigator_0_0663
NODE
p4421
(dp4422
g37
(lp4423
I0
aI0
aI0
aI0
asg39
(lp4424
sg41
(lp4425
(I20
I8
tp4426
a(I18
I8
tp4427
a(I19
I9
tp4428
a(I19
I7
tp4429
asg45
I0
sba(iNavigator_0_0663
NODE
p4430
(dp4431
g37
(lp4432
I0
aI0
aI0
aI0
asg39
(lp4433
sg41
(lp4434
(I20
I9
tp4435
a(I18
I9
tp4436
a(I19
I10
tp4437
a(I19
I8
tp4438
asg45
I0
sba(iNavigator_0_0663
NODE
p4439
(dp4440
g37
(lp4441
I0
aI0
aI0
aI0
asg39
(lp4442
sg41
(lp4443
(I20
I10
tp4444
a(I18
I10
tp4445
a(I19
I11
tp4446
a(I19
I9
tp4447
asg45
I0
sba(iNavigator_0_0663
NODE
p4448
(dp4449
g37
(lp4450
I0
aI0
aI0
aI0
asg39
(lp4451
sg41
(lp4452
(I20
I11
tp4453
a(I18
I11
tp4454
a(I19
I12
tp4455
a(I19
I10
tp4456
asg45
I0
sba(iNavigator_0_0663
NODE
p4457
(dp4458
g37
(lp4459
I0
aI0
aI0
aI0
asg39
(lp4460
sg41
(lp4461
(I20
I12
tp4462
a(I18
I12
tp4463
a(I19
I13
tp4464
a(I19
I11
tp4465
asg45
I0
sba(iNavigator_0_0663
NODE
p4466
(dp4467
g37
(lp4468
I0
aI0
aI0
aI0
asg39
(lp4469
sg41
(lp4470
(I20
I13
tp4471
a(I18
I13
tp4472
a(I19
I14
tp4473
a(I19
I12
tp4474
asg45
I0
sba(iNavigator_0_0663
NODE
p4475
(dp4476
g37
(lp4477
I0
aI0
aI0
aI0
asg39
(lp4478
sg41
(lp4479
(I20
I14
tp4480
a(I18
I14
tp4481
a(I19
I15
tp4482
a(I19
I13
tp4483
asg45
I0
sba(iNavigator_0_0663
NODE
p4484
(dp4485
g37
(lp4486
I0
aI0
aI0
aI0
asg39
(lp4487
sg41
(lp4488
(I20
I15
tp4489
a(I18
I15
tp4490
a(I19
I16
tp4491
a(I19
I14
tp4492
asg45
I0
sba(iNavigator_0_0663
NODE
p4493
(dp4494
g37
(lp4495
I0
aI0
aI0
aI0
asg39
(lp4496
sg41
(lp4497
(I20
I16
tp4498
a(I18
I16
tp4499
a(I19
I17
tp4500
a(I19
I15
tp4501
asg45
I0
sba(iNavigator_0_0663
NODE
p4502
(dp4503
g37
(lp4504
I0
aI0
aI0
aI0
asg39
(lp4505
sg41
(lp4506
(I20
I17
tp4507
a(I18
I17
tp4508
a(I19
I18
tp4509
a(I19
I16
tp4510
asg45
I0
sba(iNavigator_0_0663
NODE
p4511
(dp4512
g37
(lp4513
I0
aI0
aI0
aI0
asg39
(lp4514
sg41
(lp4515
(I20
I18
tp4516
a(I18
I18
tp4517
a(I19
I19
tp4518
a(I19
I17
tp4519
asg45
I0
sba(iNavigator_0_0663
NODE
p4520
(dp4521
g37
(lp4522
I0
aI0
aI0
aI0
asg39
(lp4523
sg41
(lp4524
(I20
I19
tp4525
a(I18
I19
tp4526
a(I19
I20
tp4527
a(I19
I18
tp4528
asg45
I0
sba(iNavigator_0_0663
NODE
p4529
(dp4530
g37
(lp4531
I0
aI0
aI0
aI0
asg39
(lp4532
sg41
(lp4533
(I20
I20
tp4534
a(I18
I20
tp4535
a(I19
I21
tp4536
a(I19
I19
tp4537
asg45
I0
sba(iNavigator_0_0663
NODE
p4538
(dp4539
g37
(lp4540
I0
aI0
aI0
aI0
asg39
(lp4541
sg41
(lp4542
(I20
I21
tp4543
a(I18
I21
tp4544
a(I19
I22
tp4545
a(I19
I20
tp4546
asg45
I0
sba(iNavigator_0_0663
NODE
p4547
(dp4548
g37
(lp4549
I0
aI0
aI0
aI0
asg39
(lp4550
sg41
(lp4551
(I20
I22
tp4552
a(I18
I22
tp4553
a(I19
I23
tp4554
a(I19
I21
tp4555
asg45
I0
sba(iNavigator_0_0663
NODE
p4556
(dp4557
g37
(lp4558
I0
aI0
aI0
aI0
asg39
(lp4559
sg41
(lp4560
(I20
I23
tp4561
a(I18
I23
tp4562
a(I19
I24
tp4563
a(I19
I22
tp4564
asg45
I0
sba(iNavigator_0_0663
NODE
p4565
(dp4566
g37
(lp4567
I0
aI0
aI0
aI0
asg39
(lp4568
sg41
(lp4569
(I20
I24
tp4570
a(I18
I24
tp4571
a(I19
I23
tp4572
asg45
I0
sbaa(lp4573
(iNavigator_0_0663
NODE
p4574
(dp4575
g37
(lp4576
I0
aI0
aI0
aI0
asg39
(lp4577
sg41
(lp4578
(I21
I0
tp4579
a(I19
I0
tp4580
a(I20
I1
tp4581
asg45
I0
sba(iNavigator_0_0663
NODE
p4582
(dp4583
g37
(lp4584
I0
aI0
aI0
aI0
asg39
(lp4585
sg41
(lp4586
(I21
I1
tp4587
a(I19
I1
tp4588
a(I20
I2
tp4589
a(I20
I0
tp4590
asg45
I0
sba(iNavigator_0_0663
NODE
p4591
(dp4592
g37
(lp4593
I0
aI0
aI0
aI0
asg39
(lp4594
sg41
(lp4595
(I21
I2
tp4596
a(I19
I2
tp4597
a(I20
I3
tp4598
a(I20
I1
tp4599
asg45
I0
sba(iNavigator_0_0663
NODE
p4600
(dp4601
g37
(lp4602
I0
aI0
aI0
aI0
asg39
(lp4603
sg41
(lp4604
(I21
I3
tp4605
a(I19
I3
tp4606
a(I20
I4
tp4607
a(I20
I2
tp4608
asg45
I0
sba(iNavigator_0_0663
NODE
p4609
(dp4610
g37
(lp4611
I0
aI0
aI0
aI0
asg39
(lp4612
sg41
(lp4613
(I21
I4
tp4614
a(I19
I4
tp4615
a(I20
I5
tp4616
a(I20
I3
tp4617
asg45
I0
sba(iNavigator_0_0663
NODE
p4618
(dp4619
g37
(lp4620
I0
aI0
aI0
aI0
asg39
(lp4621
sg41
(lp4622
(I21
I5
tp4623
a(I19
I5
tp4624
a(I20
I6
tp4625
a(I20
I4
tp4626
asg45
I0
sba(iNavigator_0_0663
NODE
p4627
(dp4628
g37
(lp4629
I0
aI0
aI0
aI0
asg39
(lp4630
sg41
(lp4631
(I21
I6
tp4632
a(I19
I6
tp4633
a(I20
I7
tp4634
a(I20
I5
tp4635
asg45
I0
sba(iNavigator_0_0663
NODE
p4636
(dp4637
g37
(lp4638
I0
aI0
aI0
aI0
asg39
(lp4639
sg41
(lp4640
(I21
I7
tp4641
a(I19
I7
tp4642
a(I20
I8
tp4643
a(I20
I6
tp4644
asg45
I0
sba(iNavigator_0_0663
NODE
p4645
(dp4646
g37
(lp4647
I0
aI0
aI0
aI0
asg39
(lp4648
sg41
(lp4649
(I21
I8
tp4650
a(I19
I8
tp4651
a(I20
I9
tp4652
a(I20
I7
tp4653
asg45
I0
sba(iNavigator_0_0663
NODE
p4654
(dp4655
g37
(lp4656
I0
aI0
aI0
aI0
asg39
(lp4657
sg41
(lp4658
(I21
I9
tp4659
a(I19
I9
tp4660
a(I20
I10
tp4661
a(I20
I8
tp4662
asg45
I0
sba(iNavigator_0_0663
NODE
p4663
(dp4664
g37
(lp4665
I0
aI0
aI0
aI0
asg39
(lp4666
sg41
(lp4667
(I21
I10
tp4668
a(I19
I10
tp4669
a(I20
I11
tp4670
a(I20
I9
tp4671
asg45
I0
sba(iNavigator_0_0663
NODE
p4672
(dp4673
g37
(lp4674
I0
aI0
aI0
aI0
asg39
(lp4675
sg41
(lp4676
(I21
I11
tp4677
a(I19
I11
tp4678
a(I20
I12
tp4679
a(I20
I10
tp4680
asg45
I0
sba(iNavigator_0_0663
NODE
p4681
(dp4682
g37
(lp4683
I0
aI0
aI0
aI0
asg39
(lp4684
sg41
(lp4685
(I21
I12
tp4686
a(I19
I12
tp4687
a(I20
I13
tp4688
a(I20
I11
tp4689
asg45
I0
sba(iNavigator_0_0663
NODE
p4690
(dp4691
g37
(lp4692
I0
aI0
aI0
aI0
asg39
(lp4693
sg41
(lp4694
(I21
I13
tp4695
a(I19
I13
tp4696
a(I20
I14
tp4697
a(I20
I12
tp4698
asg45
I0
sba(iNavigator_0_0663
NODE
p4699
(dp4700
g37
(lp4701
I0
aI0
aI0
aI0
asg39
(lp4702
sg41
(lp4703
(I21
I14
tp4704
a(I19
I14
tp4705
a(I20
I15
tp4706
a(I20
I13
tp4707
asg45
I0
sba(iNavigator_0_0663
NODE
p4708
(dp4709
g37
(lp4710
I0
aI0
aI0
aI0
asg39
(lp4711
sg41
(lp4712
(I21
I15
tp4713
a(I19
I15
tp4714
a(I20
I16
tp4715
a(I20
I14
tp4716
asg45
I0
sba(iNavigator_0_0663
NODE
p4717
(dp4718
g37
(lp4719
I0
aI0
aI0
aI0
asg39
(lp4720
sg41
(lp4721
(I21
I16
tp4722
a(I19
I16
tp4723
a(I20
I17
tp4724
a(I20
I15
tp4725
asg45
I0
sba(iNavigator_0_0663
NODE
p4726
(dp4727
g37
(lp4728
I0
aI0
aI0
aI0
asg39
(lp4729
sg41
(lp4730
(I21
I17
tp4731
a(I19
I17
tp4732
a(I20
I18
tp4733
a(I20
I16
tp4734
asg45
I0
sba(iNavigator_0_0663
NODE
p4735
(dp4736
g37
(lp4737
I0
aI0
aI0
aI0
asg39
(lp4738
sg41
(lp4739
(I21
I18
tp4740
a(I19
I18
tp4741
a(I20
I19
tp4742
a(I20
I17
tp4743
asg45
I0
sba(iNavigator_0_0663
NODE
p4744
(dp4745
g37
(lp4746
I0
aI0
aI0
aI0
asg39
(lp4747
sg41
(lp4748
(I21
I19
tp4749
a(I19
I19
tp4750
a(I20
I20
tp4751
a(I20
I18
tp4752
asg45
I0
sba(iNavigator_0_0663
NODE
p4753
(dp4754
g37
(lp4755
I0
aI0
aI0
aI0
asg39
(lp4756
sg41
(lp4757
(I21
I20
tp4758
a(I19
I20
tp4759
a(I20
I21
tp4760
a(I20
I19
tp4761
asg45
I0
sba(iNavigator_0_0663
NODE
p4762
(dp4763
g37
(lp4764
I0
aI0
aI0
aI0
asg39
(lp4765
sg41
(lp4766
(I21
I21
tp4767
a(I19
I21
tp4768
a(I20
I22
tp4769
a(I20
I20
tp4770
asg45
I0
sba(iNavigator_0_0663
NODE
p4771
(dp4772
g37
(lp4773
I0
aI0
aI0
aI0
asg39
(lp4774
sg41
(lp4775
(I21
I22
tp4776
a(I19
I22
tp4777
a(I20
I23
tp4778
a(I20
I21
tp4779
asg45
I0
sba(iNavigator_0_0663
NODE
p4780
(dp4781
g37
(lp4782
I0
aI0
aI0
aI0
asg39
(lp4783
sg41
(lp4784
(I21
I23
tp4785
a(I19
I23
tp4786
a(I20
I24
tp4787
a(I20
I22
tp4788
asg45
I0
sba(iNavigator_0_0663
NODE
p4789
(dp4790
g37
(lp4791
I0
aI0
aI0
aI0
asg39
(lp4792
sg41
(lp4793
(I21
I24
tp4794
a(I19
I24
tp4795
a(I20
I23
tp4796
asg45
I0
sbaa(lp4797
(iNavigator_0_0663
NODE
p4798
(dp4799
g37
(lp4800
I0
aI0
aI0
aI0
asg39
(lp4801
sg41
(lp4802
(I22
I0
tp4803
a(I20
I0
tp4804
a(I21
I1
tp4805
asg45
I0
sba(iNavigator_0_0663
NODE
p4806
(dp4807
g37
(lp4808
I0
aI0
aI0
aI0
asg39
(lp4809
sg41
(lp4810
(I22
I1
tp4811
a(I20
I1
tp4812
a(I21
I2
tp4813
a(I21
I0
tp4814
asg45
I0
sba(iNavigator_0_0663
NODE
p4815
(dp4816
g37
(lp4817
I0
aI0
aI0
aI0
asg39
(lp4818
sg41
(lp4819
(I22
I2
tp4820
a(I20
I2
tp4821
a(I21
I3
tp4822
a(I21
I1
tp4823
asg45
I0
sba(iNavigator_0_0663
NODE
p4824
(dp4825
g37
(lp4826
I0
aI0
aI0
aI0
asg39
(lp4827
sg41
(lp4828
(I22
I3
tp4829
a(I20
I3
tp4830
a(I21
I4
tp4831
a(I21
I2
tp4832
asg45
I0
sba(iNavigator_0_0663
NODE
p4833
(dp4834
g37
(lp4835
I0
aI0
aI0
aI0
asg39
(lp4836
sg41
(lp4837
(I22
I4
tp4838
a(I20
I4
tp4839
a(I21
I5
tp4840
a(I21
I3
tp4841
asg45
I0
sba(iNavigator_0_0663
NODE
p4842
(dp4843
g37
(lp4844
I0
aI0
aI0
aI0
asg39
(lp4845
sg41
(lp4846
(I22
I5
tp4847
a(I20
I5
tp4848
a(I21
I6
tp4849
a(I21
I4
tp4850
asg45
I0
sba(iNavigator_0_0663
NODE
p4851
(dp4852
g37
(lp4853
I0
aI0
aI0
aI0
asg39
(lp4854
sg41
(lp4855
(I22
I6
tp4856
a(I20
I6
tp4857
a(I21
I7
tp4858
a(I21
I5
tp4859
asg45
I0
sba(iNavigator_0_0663
NODE
p4860
(dp4861
g37
(lp4862
I0
aI0
aI0
aI0
asg39
(lp4863
sg41
(lp4864
(I22
I7
tp4865
a(I20
I7
tp4866
a(I21
I8
tp4867
a(I21
I6
tp4868
asg45
I0
sba(iNavigator_0_0663
NODE
p4869
(dp4870
g37
(lp4871
I0
aI0
aI0
aI0
asg39
(lp4872
sg41
(lp4873
(I22
I8
tp4874
a(I20
I8
tp4875
a(I21
I9
tp4876
a(I21
I7
tp4877
asg45
I0
sba(iNavigator_0_0663
NODE
p4878
(dp4879
g37
(lp4880
I0
aI0
aI0
aI0
asg39
(lp4881
sg41
(lp4882
(I22
I9
tp4883
a(I20
I9
tp4884
a(I21
I10
tp4885
a(I21
I8
tp4886
asg45
I0
sba(iNavigator_0_0663
NODE
p4887
(dp4888
g37
(lp4889
I0
aI0
aI0
aI0
asg39
(lp4890
sg41
(lp4891
(I22
I10
tp4892
a(I20
I10
tp4893
a(I21
I11
tp4894
a(I21
I9
tp4895
asg45
I0
sba(iNavigator_0_0663
NODE
p4896
(dp4897
g37
(lp4898
I0
aI0
aI0
aI0
asg39
(lp4899
sg41
(lp4900
(I22
I11
tp4901
a(I20
I11
tp4902
a(I21
I12
tp4903
a(I21
I10
tp4904
asg45
I0
sba(iNavigator_0_0663
NODE
p4905
(dp4906
g37
(lp4907
I0
aI0
aI0
aI0
asg39
(lp4908
sg41
(lp4909
(I22
I12
tp4910
a(I20
I12
tp4911
a(I21
I13
tp4912
a(I21
I11
tp4913
asg45
I0
sba(iNavigator_0_0663
NODE
p4914
(dp4915
g37
(lp4916
I0
aI0
aI0
aI0
asg39
(lp4917
sg41
(lp4918
(I22
I13
tp4919
a(I20
I13
tp4920
a(I21
I14
tp4921
a(I21
I12
tp4922
asg45
I0
sba(iNavigator_0_0663
NODE
p4923
(dp4924
g37
(lp4925
I0
aI0
aI0
aI0
asg39
(lp4926
sg41
(lp4927
(I22
I14
tp4928
a(I20
I14
tp4929
a(I21
I15
tp4930
a(I21
I13
tp4931
asg45
I0
sba(iNavigator_0_0663
NODE
p4932
(dp4933
g37
(lp4934
I0
aI0
aI0
aI0
asg39
(lp4935
sg41
(lp4936
(I22
I15
tp4937
a(I20
I15
tp4938
a(I21
I16
tp4939
a(I21
I14
tp4940
asg45
I0
sba(iNavigator_0_0663
NODE
p4941
(dp4942
g37
(lp4943
I0
aI0
aI0
aI0
asg39
(lp4944
sg41
(lp4945
(I22
I16
tp4946
a(I20
I16
tp4947
a(I21
I17
tp4948
a(I21
I15
tp4949
asg45
I0
sba(iNavigator_0_0663
NODE
p4950
(dp4951
g37
(lp4952
I0
aI0
aI0
aI0
asg39
(lp4953
sg41
(lp4954
(I22
I17
tp4955
a(I20
I17
tp4956
a(I21
I18
tp4957
a(I21
I16
tp4958
asg45
I0
sba(iNavigator_0_0663
NODE
p4959
(dp4960
g37
(lp4961
I0
aI0
aI0
aI0
asg39
(lp4962
sg41
(lp4963
(I22
I18
tp4964
a(I20
I18
tp4965
a(I21
I19
tp4966
a(I21
I17
tp4967
asg45
I0
sba(iNavigator_0_0663
NODE
p4968
(dp4969
g37
(lp4970
I0
aI0
aI0
aI0
asg39
(lp4971
sg41
(lp4972
(I22
I19
tp4973
a(I20
I19
tp4974
a(I21
I20
tp4975
a(I21
I18
tp4976
asg45
I0
sba(iNavigator_0_0663
NODE
p4977
(dp4978
g37
(lp4979
I0
aI0
aI0
aI0
asg39
(lp4980
sg41
(lp4981
(I22
I20
tp4982
a(I20
I20
tp4983
a(I21
I21
tp4984
a(I21
I19
tp4985
asg45
I0
sba(iNavigator_0_0663
NODE
p4986
(dp4987
g37
(lp4988
I0
aI0
aI0
aI0
asg39
(lp4989
sg41
(lp4990
(I22
I21
tp4991
a(I20
I21
tp4992
a(I21
I22
tp4993
a(I21
I20
tp4994
asg45
I0
sba(iNavigator_0_0663
NODE
p4995
(dp4996
g37
(lp4997
I0
aI0
aI0
aI0
asg39
(lp4998
sg41
(lp4999
(I22
I22
tp5000
a(I20
I22
tp5001
a(I21
I23
tp5002
a(I21
I21
tp5003
asg45
I0
sba(iNavigator_0_0663
NODE
p5004
(dp5005
g37
(lp5006
I0
aI0
aI0
aI0
asg39
(lp5007
sg41
(lp5008
(I22
I23
tp5009
a(I20
I23
tp5010
a(I21
I24
tp5011
a(I21
I22
tp5012
asg45
I0
sba(iNavigator_0_0663
NODE
p5013
(dp5014
g37
(lp5015
I0
aI0
aI0
aI0
asg39
(lp5016
sg41
(lp5017
(I22
I24
tp5018
a(I20
I24
tp5019
a(I21
I23
tp5020
asg45
I0
sbaa(lp5021
(iNavigator_0_0663
NODE
p5022
(dp5023
g37
(lp5024
I0
aI0
aI0
aI0
asg39
(lp5025
sg41
(lp5026
(I23
I0
tp5027
a(I21
I0
tp5028
a(I22
I1
tp5029
asg45
I0
sba(iNavigator_0_0663
NODE
p5030
(dp5031
g37
(lp5032
I0
aI0
aI0
aI0
asg39
(lp5033
sg41
(lp5034
(I23
I1
tp5035
a(I21
I1
tp5036
a(I22
I2
tp5037
a(I22
I0
tp5038
asg45
I0
sba(iNavigator_0_0663
NODE
p5039
(dp5040
g37
(lp5041
I0
aI0
aI0
aI0
asg39
(lp5042
sg41
(lp5043
(I23
I2
tp5044
a(I21
I2
tp5045
a(I22
I3
tp5046
a(I22
I1
tp5047
asg45
I0
sba(iNavigator_0_0663
NODE
p5048
(dp5049
g37
(lp5050
I0
aI0
aI0
aI0
asg39
(lp5051
sg41
(lp5052
(I23
I3
tp5053
a(I21
I3
tp5054
a(I22
I4
tp5055
a(I22
I2
tp5056
asg45
I0
sba(iNavigator_0_0663
NODE
p5057
(dp5058
g37
(lp5059
I0
aI0
aI0
aI0
asg39
(lp5060
sg41
(lp5061
(I23
I4
tp5062
a(I21
I4
tp5063
a(I22
I5
tp5064
a(I22
I3
tp5065
asg45
I0
sba(iNavigator_0_0663
NODE
p5066
(dp5067
g37
(lp5068
I0
aI0
aI0
aI0
asg39
(lp5069
sg41
(lp5070
(I23
I5
tp5071
a(I21
I5
tp5072
a(I22
I6
tp5073
a(I22
I4
tp5074
asg45
I0
sba(iNavigator_0_0663
NODE
p5075
(dp5076
g37
(lp5077
I0
aI0
aI0
aI0
asg39
(lp5078
sg41
(lp5079
(I23
I6
tp5080
a(I21
I6
tp5081
a(I22
I7
tp5082
a(I22
I5
tp5083
asg45
I0
sba(iNavigator_0_0663
NODE
p5084
(dp5085
g37
(lp5086
I0
aI0
aI0
aI0
asg39
(lp5087
sg41
(lp5088
(I23
I7
tp5089
a(I21
I7
tp5090
a(I22
I8
tp5091
a(I22
I6
tp5092
asg45
I0
sba(iNavigator_0_0663
NODE
p5093
(dp5094
g37
(lp5095
I0
aI0
aI0
aI0
asg39
(lp5096
sg41
(lp5097
(I23
I8
tp5098
a(I21
I8
tp5099
a(I22
I9
tp5100
a(I22
I7
tp5101
asg45
I0
sba(iNavigator_0_0663
NODE
p5102
(dp5103
g37
(lp5104
I0
aI0
aI0
aI0
asg39
(lp5105
sg41
(lp5106
(I23
I9
tp5107
a(I21
I9
tp5108
a(I22
I10
tp5109
a(I22
I8
tp5110
asg45
I0
sba(iNavigator_0_0663
NODE
p5111
(dp5112
g37
(lp5113
I0
aI0
aI0
aI0
asg39
(lp5114
sg41
(lp5115
(I23
I10
tp5116
a(I21
I10
tp5117
a(I22
I11
tp5118
a(I22
I9
tp5119
asg45
I0
sba(iNavigator_0_0663
NODE
p5120
(dp5121
g37
(lp5122
I0
aI0
aI0
aI0
asg39
(lp5123
sg41
(lp5124
(I23
I11
tp5125
a(I21
I11
tp5126
a(I22
I12
tp5127
a(I22
I10
tp5128
asg45
I0
sba(iNavigator_0_0663
NODE
p5129
(dp5130
g37
(lp5131
I0
aI0
aI0
aI0
asg39
(lp5132
sg41
(lp5133
(I23
I12
tp5134
a(I21
I12
tp5135
a(I22
I13
tp5136
a(I22
I11
tp5137
asg45
I0
sba(iNavigator_0_0663
NODE
p5138
(dp5139
g37
(lp5140
I0
aI0
aI0
aI0
asg39
(lp5141
sg41
(lp5142
(I23
I13
tp5143
a(I21
I13
tp5144
a(I22
I14
tp5145
a(I22
I12
tp5146
asg45
I0
sba(iNavigator_0_0663
NODE
p5147
(dp5148
g37
(lp5149
I0
aI0
aI0
aI0
asg39
(lp5150
sg41
(lp5151
(I23
I14
tp5152
a(I21
I14
tp5153
a(I22
I15
tp5154
a(I22
I13
tp5155
asg45
I0
sba(iNavigator_0_0663
NODE
p5156
(dp5157
g37
(lp5158
I0
aI0
aI0
aI0
asg39
(lp5159
sg41
(lp5160
(I23
I15
tp5161
a(I21
I15
tp5162
a(I22
I16
tp5163
a(I22
I14
tp5164
asg45
I0
sba(iNavigator_0_0663
NODE
p5165
(dp5166
g37
(lp5167
I0
aI0
aI0
aI0
asg39
(lp5168
sg41
(lp5169
(I23
I16
tp5170
a(I21
I16
tp5171
a(I22
I17
tp5172
a(I22
I15
tp5173
asg45
I0
sba(iNavigator_0_0663
NODE
p5174
(dp5175
g37
(lp5176
I0
aI0
aI0
aI0
asg39
(lp5177
sg41
(lp5178
(I23
I17
tp5179
a(I21
I17
tp5180
a(I22
I18
tp5181
a(I22
I16
tp5182
asg45
I0
sba(iNavigator_0_0663
NODE
p5183
(dp5184
g37
(lp5185
I0
aI0
aI0
aI0
asg39
(lp5186
sg41
(lp5187
(I23
I18
tp5188
a(I21
I18
tp5189
a(I22
I19
tp5190
a(I22
I17
tp5191
asg45
I0
sba(iNavigator_0_0663
NODE
p5192
(dp5193
g37
(lp5194
I0
aI0
aI0
aI0
asg39
(lp5195
sg41
(lp5196
(I23
I19
tp5197
a(I21
I19
tp5198
a(I22
I20
tp5199
a(I22
I18
tp5200
asg45
I0
sba(iNavigator_0_0663
NODE
p5201
(dp5202
g37
(lp5203
I0
aI0
aI0
aI0
asg39
(lp5204
sg41
(lp5205
(I23
I20
tp5206
a(I21
I20
tp5207
a(I22
I21
tp5208
a(I22
I19
tp5209
asg45
I0
sba(iNavigator_0_0663
NODE
p5210
(dp5211
g37
(lp5212
I0
aI0
aI0
aI0
asg39
(lp5213
sg41
(lp5214
(I23
I21
tp5215
a(I21
I21
tp5216
a(I22
I22
tp5217
a(I22
I20
tp5218
asg45
I0
sba(iNavigator_0_0663
NODE
p5219
(dp5220
g37
(lp5221
I0
aI0
aI0
aI0
asg39
(lp5222
sg41
(lp5223
(I23
I22
tp5224
a(I21
I22
tp5225
a(I22
I23
tp5226
a(I22
I21
tp5227
asg45
I0
sba(iNavigator_0_0663
NODE
p5228
(dp5229
g37
(lp5230
I0
aI0
aI0
aI0
asg39
(lp5231
sg41
(lp5232
(I23
I23
tp5233
a(I21
I23
tp5234
a(I22
I24
tp5235
a(I22
I22
tp5236
asg45
I0
sba(iNavigator_0_0663
NODE
p5237
(dp5238
g37
(lp5239
I0
aI0
aI0
aI0
asg39
(lp5240
sg41
(lp5241
(I23
I24
tp5242
a(I21
I24
tp5243
a(I22
I23
tp5244
asg45
I0
sbaa(lp5245
(iNavigator_0_0663
NODE
p5246
(dp5247
g37
(lp5248
I0
aI0
aI0
aI0
asg39
(lp5249
sg41
(lp5250
(I24
I0
tp5251
a(I22
I0
tp5252
a(I23
I1
tp5253
asg45
I0
sba(iNavigator_0_0663
NODE
p5254
(dp5255
g37
(lp5256
I0
aI0
aI0
aI0
asg39
(lp5257
sg41
(lp5258
(I24
I1
tp5259
a(I22
I1
tp5260
a(I23
I2
tp5261
a(I23
I0
tp5262
asg45
I0
sba(iNavigator_0_0663
NODE
p5263
(dp5264
g37
(lp5265
I0
aI0
aI0
aI0
asg39
(lp5266
sg41
(lp5267
(I24
I2
tp5268
a(I22
I2
tp5269
a(I23
I3
tp5270
a(I23
I1
tp5271
asg45
I0
sba(iNavigator_0_0663
NODE
p5272
(dp5273
g37
(lp5274
I0
aI0
aI0
aI0
asg39
(lp5275
sg41
(lp5276
(I24
I3
tp5277
a(I22
I3
tp5278
a(I23
I4
tp5279
a(I23
I2
tp5280
asg45
I0
sba(iNavigator_0_0663
NODE
p5281
(dp5282
g37
(lp5283
I0
aI0
aI0
aI0
asg39
(lp5284
sg41
(lp5285
(I24
I4
tp5286
a(I22
I4
tp5287
a(I23
I5
tp5288
a(I23
I3
tp5289
asg45
I0
sba(iNavigator_0_0663
NODE
p5290
(dp5291
g37
(lp5292
I0
aI0
aI0
aI0
asg39
(lp5293
sg41
(lp5294
(I24
I5
tp5295
a(I22
I5
tp5296
a(I23
I6
tp5297
a(I23
I4
tp5298
asg45
I0
sba(iNavigator_0_0663
NODE
p5299
(dp5300
g37
(lp5301
I0
aI0
aI0
aI0
asg39
(lp5302
sg41
(lp5303
(I24
I6
tp5304
a(I22
I6
tp5305
a(I23
I7
tp5306
a(I23
I5
tp5307
asg45
I0
sba(iNavigator_0_0663
NODE
p5308
(dp5309
g37
(lp5310
I0
aI0
aI0
aI0
asg39
(lp5311
sg41
(lp5312
(I24
I7
tp5313
a(I22
I7
tp5314
a(I23
I8
tp5315
a(I23
I6
tp5316
asg45
I0
sba(iNavigator_0_0663
NODE
p5317
(dp5318
g37
(lp5319
I0
aI0
aI0
aI0
asg39
(lp5320
sg41
(lp5321
(I24
I8
tp5322
a(I22
I8
tp5323
a(I23
I9
tp5324
a(I23
I7
tp5325
asg45
I0
sba(iNavigator_0_0663
NODE
p5326
(dp5327
g37
(lp5328
I0
aI0
aI0
aI0
asg39
(lp5329
sg41
(lp5330
(I24
I9
tp5331
a(I22
I9
tp5332
a(I23
I10
tp5333
a(I23
I8
tp5334
asg45
I0
sba(iNavigator_0_0663
NODE
p5335
(dp5336
g37
(lp5337
I0
aI0
aI0
aI0
asg39
(lp5338
sg41
(lp5339
(I24
I10
tp5340
a(I22
I10
tp5341
a(I23
I11
tp5342
a(I23
I9
tp5343
asg45
I0
sba(iNavigator_0_0663
NODE
p5344
(dp5345
g37
(lp5346
I0
aI0
aI0
aI0
asg39
(lp5347
sg41
(lp5348
(I24
I11
tp5349
a(I22
I11
tp5350
a(I23
I12
tp5351
a(I23
I10
tp5352
asg45
I0
sba(iNavigator_0_0663
NODE
p5353
(dp5354
g37
(lp5355
I0
aI0
aI0
aI0
asg39
(lp5356
sg41
(lp5357
(I24
I12
tp5358
a(I22
I12
tp5359
a(I23
I13
tp5360
a(I23
I11
tp5361
asg45
I0
sba(iNavigator_0_0663
NODE
p5362
(dp5363
g37
(lp5364
I0
aI0
aI0
aI0
asg39
(lp5365
sg41
(lp5366
(I24
I13
tp5367
a(I22
I13
tp5368
a(I23
I14
tp5369
a(I23
I12
tp5370
asg45
I0
sba(iNavigator_0_0663
NODE
p5371
(dp5372
g37
(lp5373
I0
aI0
aI0
aI0
asg39
(lp5374
sg41
(lp5375
(I24
I14
tp5376
a(I22
I14
tp5377
a(I23
I15
tp5378
a(I23
I13
tp5379
asg45
I0
sba(iNavigator_0_0663
NODE
p5380
(dp5381
g37
(lp5382
I0
aI0
aI0
aI0
asg39
(lp5383
sg41
(lp5384
(I24
I15
tp5385
a(I22
I15
tp5386
a(I23
I16
tp5387
a(I23
I14
tp5388
asg45
I0
sba(iNavigator_0_0663
NODE
p5389
(dp5390
g37
(lp5391
I0
aI0
aI0
aI0
asg39
(lp5392
sg41
(lp5393
(I24
I16
tp5394
a(I22
I16
tp5395
a(I23
I17
tp5396
a(I23
I15
tp5397
asg45
I0
sba(iNavigator_0_0663
NODE
p5398
(dp5399
g37
(lp5400
I0
aI0
aI0
aI0
asg39
(lp5401
sg41
(lp5402
(I24
I17
tp5403
a(I22
I17
tp5404
a(I23
I18
tp5405
a(I23
I16
tp5406
asg45
I0
sba(iNavigator_0_0663
NODE
p5407
(dp5408
g37
(lp5409
I0
aI0
aI0
aI0
asg39
(lp5410
sg41
(lp5411
(I24
I18
tp5412
a(I22
I18
tp5413
a(I23
I19
tp5414
a(I23
I17
tp5415
asg45
I0
sba(iNavigator_0_0663
NODE
p5416
(dp5417
g37
(lp5418
I0
aI0
aI0
aI0
asg39
(lp5419
sg41
(lp5420
(I24
I19
tp5421
a(I22
I19
tp5422
a(I23
I20
tp5423
a(I23
I18
tp5424
asg45
I0
sba(iNavigator_0_0663
NODE
p5425
(dp5426
g37
(lp5427
I0
aI0
aI0
aI0
asg39
(lp5428
sg41
(lp5429
(I24
I20
tp5430
a(I22
I20
tp5431
a(I23
I21
tp5432
a(I23
I19
tp5433
asg45
I0
sba(iNavigator_0_0663
NODE
p5434
(dp5435
g37
(lp5436
I0
aI0
aI0
aI0
asg39
(lp5437
sg41
(lp5438
(I24
I21
tp5439
a(I22
I21
tp5440
a(I23
I22
tp5441
a(I23
I20
tp5442
asg45
I0
sba(iNavigator_0_0663
NODE
p5443
(dp5444
g37
(lp5445
I0
aI0
aI0
aI0
asg39
(lp5446
sg41
(lp5447
(I24
I22
tp5448
a(I22
I22
tp5449
a(I23
I23
tp5450
a(I23
I21
tp5451
asg45
I0
sba(iNavigator_0_0663
NODE
p5452
(dp5453
g37
(lp5454
I0
aI0
aI0
aI0
asg39
(lp5455
sg41
(lp5456
(I24
I23
tp5457
a(I22
I23
tp5458
a(I23
I24
tp5459
a(I23
I22
tp5460
asg45
I0
sba(iNavigator_0_0663
NODE
p5461
(dp5462
g37
(lp5463
I0
aI0
aI0
aI0
asg39
(lp5464
sg41
(lp5465
(I24
I24
tp5466
a(I22
I24
tp5467
a(I23
I23
tp5468
asg45
I0
sbaa(lp5469
(iNavigator_0_0663
NODE
p5470
(dp5471
g37
(lp5472
I0
aI0
aI0
aI0
asg39
(lp5473
sg41
(lp5474
(I23
I0
tp5475
a(I24
I1
tp5476
asg45
I0
sba(iNavigator_0_0663
NODE
p5477
(dp5478
g37
(lp5479
I0
aI0
aI0
aI0
asg39
(lp5480
sg41
(lp5481
(I23
I1
tp5482
a(I24
I2
tp5483
a(I24
I0
tp5484
asg45
I0
sba(iNavigator_0_0663
NODE
p5485
(dp5486
g37
(lp5487
I0
aI0
aI0
aI0
asg39
(lp5488
sg41
(lp5489
(I23
I2
tp5490
a(I24
I3
tp5491
a(I24
I1
tp5492
asg45
I0
sba(iNavigator_0_0663
NODE
p5493
(dp5494
g37
(lp5495
I0
aI0
aI0
aI0
asg39
(lp5496
sg41
(lp5497
(I23
I3
tp5498
a(I24
I4
tp5499
a(I24
I2
tp5500
asg45
I0
sba(iNavigator_0_0663
NODE
p5501
(dp5502
g37
(lp5503
I0
aI0
aI0
aI0
asg39
(lp5504
sg41
(lp5505
(I23
I4
tp5506
a(I24
I5
tp5507
a(I24
I3
tp5508
asg45
I0
sba(iNavigator_0_0663
NODE
p5509
(dp5510
g37
(lp5511
I0
aI0
aI0
aI0
asg39
(lp5512
sg41
(lp5513
(I23
I5
tp5514
a(I24
I6
tp5515
a(I24
I4
tp5516
asg45
I0
sba(iNavigator_0_0663
NODE
p5517
(dp5518
g37
(lp5519
I0
aI0
aI0
aI0
asg39
(lp5520
sg41
(lp5521
(I23
I6
tp5522
a(I24
I7
tp5523
a(I24
I5
tp5524
asg45
I0
sba(iNavigator_0_0663
NODE
p5525
(dp5526
g37
(lp5527
I0
aI0
aI0
aI0
asg39
(lp5528
sg41
(lp5529
(I23
I7
tp5530
a(I24
I8
tp5531
a(I24
I6
tp5532
asg45
I0
sba(iNavigator_0_0663
NODE
p5533
(dp5534
g37
(lp5535
I0
aI0
aI0
aI0
asg39
(lp5536
sg41
(lp5537
(I23
I8
tp5538
a(I24
I9
tp5539
a(I24
I7
tp5540
asg45
I0
sba(iNavigator_0_0663
NODE
p5541
(dp5542
g37
(lp5543
I0
aI0
aI0
aI0
asg39
(lp5544
sg41
(lp5545
(I23
I9
tp5546
a(I24
I10
tp5547
a(I24
I8
tp5548
asg45
I0
sba(iNavigator_0_0663
NODE
p5549
(dp5550
g37
(lp5551
I0
aI0
aI0
aI0
asg39
(lp5552
sg41
(lp5553
(I23
I10
tp5554
a(I24
I11
tp5555
a(I24
I9
tp5556
asg45
I0
sba(iNavigator_0_0663
NODE
p5557
(dp5558
g37
(lp5559
I0
aI0
aI0
aI0
asg39
(lp5560
sg41
(lp5561
(I23
I11
tp5562
a(I24
I12
tp5563
a(I24
I10
tp5564
asg45
I0
sba(iNavigator_0_0663
NODE
p5565
(dp5566
g37
(lp5567
I0
aI0
aI0
aI0
asg39
(lp5568
sg41
(lp5569
(I23
I12
tp5570
a(I24
I13
tp5571
a(I24
I11
tp5572
asg45
I0
sba(iNavigator_0_0663
NODE
p5573
(dp5574
g37
(lp5575
I0
aI0
aI0
aI0
asg39
(lp5576
sg41
(lp5577
(I23
I13
tp5578
a(I24
I14
tp5579
a(I24
I12
tp5580
asg45
I0
sba(iNavigator_0_0663
NODE
p5581
(dp5582
g37
(lp5583
I0
aI0
aI0
aI0
asg39
(lp5584
sg41
(lp5585
(I23
I14
tp5586
a(I24
I15
tp5587
a(I24
I13
tp5588
asg45
I0
sba(iNavigator_0_0663
NODE
p5589
(dp5590
g37
(lp5591
I0
aI0
aI0
aI0
asg39
(lp5592
sg41
(lp5593
(I23
I15
tp5594
a(I24
I16
tp5595
a(I24
I14
tp5596
asg45
I0
sba(iNavigator_0_0663
NODE
p5597
(dp5598
g37
(lp5599
I0
aI0
aI0
aI0
asg39
(lp5600
sg41
(lp5601
(I23
I16
tp5602
a(I24
I17
tp5603
a(I24
I15
tp5604
asg45
I0
sba(iNavigator_0_0663
NODE
p5605
(dp5606
g37
(lp5607
I0
aI0
aI0
aI0
asg39
(lp5608
sg41
(lp5609
(I23
I17
tp5610
a(I24
I18
tp5611
a(I24
I16
tp5612
asg45
I0
sba(iNavigator_0_0663
NODE
p5613
(dp5614
g37
(lp5615
I0
aI0
aI0
aI0
asg39
(lp5616
sg41
(lp5617
(I23
I18
tp5618
a(I24
I19
tp5619
a(I24
I17
tp5620
asg45
I0
sba(iNavigator_0_0663
NODE
p5621
(dp5622
g37
(lp5623
I0
aI0
aI0
aI0
asg39
(lp5624
sg41
(lp5625
(I23
I19
tp5626
a(I24
I20
tp5627
a(I24
I18
tp5628
asg45
I0
sba(iNavigator_0_0663
NODE
p5629
(dp5630
g37
(lp5631
I0
aI0
aI0
aI0
asg39
(lp5632
sg41
(lp5633
(I23
I20
tp5634
a(I24
I21
tp5635
a(I24
I19
tp5636
asg45
I0
sba(iNavigator_0_0663
NODE
p5637
(dp5638
g37
(lp5639
I0
aI0
aI0
aI0
asg39
(lp5640
sg41
(lp5641
(I23
I21
tp5642
a(I24
I22
tp5643
a(I24
I20
tp5644
asg45
I0
sba(iNavigator_0_0663
NODE
p5645
(dp5646
g37
(lp5647
I0
aI0
aI0
aI0
asg39
(lp5648
sg41
(lp5649
(I23
I22
tp5650
a(I24
I23
tp5651
a(I24
I21
tp5652
asg45
I0
sba(iNavigator_0_0663
NODE
p5653
(dp5654
g37
(lp5655
I0
aI0
aI0
aI0
asg39
(lp5656
sg41
(lp5657
(I23
I23
tp5658
a(I24
I24
tp5659
a(I24
I22
tp5660
asg45
I0
sba(iNavigator_0_0663
NODE
p5661
(dp5662
g37
(lp5663
I0
aI0
aI0
aI0
asg39
(lp5664
sg41
(lp5665
(I23
I24
tp5666
a(I24
I23
tp5667
asg45
I0
sbaasS'x'
p5668
I25
sS'y'
p5669
I25
sS'PotentialList'
p5670
(lp5671
sS'Length'
p5672
I40
sb(lp5673
(lp5674
(lp5675
S'Easel'
p5676
aS'Objects/Easel_vrc.wrl'
p5677
aS'None'
p5678
ag5678
aF1.0
aI-1
aI0
aaF2.0
aF-2.0
aF202.0
aF90.0
aa(lp5679
g5675
aF82.0
aF-2.0
aF202.0
aF90.0
aa(lp5680
(lp5681
S'Lamp'
p5682
aS'Objects/Lamp07_vrc.wrl'
p5683
aS'NOne'
p5684
ag5678
aF1.0
aI-1
aI0
aaF82.0
aF-2.0
aF242.0
aF90.0
aa(lp5685
g5675
aF122.0
aF-2.0
aF242.0
aF90.0
aa(lp5686
g5681
aF42.0
aF-2.0
aF322.0
aF90.0
aa(lp5687
(lp5688
S'Clock'
p5689
aS'Objects/Clock_vrc.wrl'
p5690
ag5678
ag5678
aF1.0
aI-1
aI0
aaF82.0
aF-2.0
aF322.0
aF90.0
aa(lp5691
g5681
aF122.0
aF-2.0
aF322.0
aF90.0
aa(lp5692
g5688
aF2.0
aF-2.0
aF362.0
aF90.0
aa(lp5693
g5675
aF42.0
aF-2.0
aF362.0
aF90.0
aa(lp5694
g5675
aF82.0
aF-2.0
aF362.0
aF90.0
aa(lp5695
(lp5696
S'Cafe'
p5697
aS'Objects/cafe.wrl'
p5698
aS'Nonr'
p5699
ag5678
aF1.0
aI-1
aI0
aaF42.0
aF-2.0
aF402.0
aF90.0
aa(lp5700
g5696
aF2.0
aF-2.0
aF442.0
aF90.0
aa(lp5701
g5681
aF42.0
aF-2.0
aF442.0
aF90.0
aa(lp5702
g5681
aF2.0
aF-2.0
aF482.0
aF90.0
aa(lp5703
g5681
ag5675
a(lp5704
S'Swing'
p5705
aS'Objects/swing.wrl'
p5706
ag5678
ag5678
aF1.0
aI-1
aI0
aag5688
ag5696
a(lp5707
(g5681
I10
tp5708
a(g5675
I10
tp5709
a(g5704
I10
tp5710
a(g5688
I10
tp5711
a(g5696
I10
tp5712
a(lp5713
(lp5714
F2.0
aF-2.0
aF2.0
aF90.0
aa(lp5715
(lp5716
(lp5717
(I1
(lp5718
F40.0
aF-240.0
aS'Sounds/Position1.wav'
p5719
S'Sounds/GotoPos1.wav'
p5720
tp5721
a(I2
(lp5722
F120.0
aF-320.0
aS'None'
p5723
S'None'
p5724
tp5725
a(I3
(lp5726
F0.0
aF-360.0
aS'None'
p5727
S'None'
p5728
tp5729
a(I4
(lp5730
F120.0
aF-200.0
aS'None'
p5731
S'None'
p5732
tp5733
a(I5
(lp5734
F40.0
aF-440.0
aS'None'
p5735
S'None'
p5736
tp5737
a(I6
(lp5738
F80.0
aF-280.0
aS'None'
p5739
S'None'
p5740
tp5741
a(I7
(lp5742
F40.0
aF-360.0
aS'None'
p5743
S'None'
p5744
tp5745
atp5746
.