((iNavigator_0_0663
PLAT
p0
(dp1
S'ChosenList'
p2
(lp3
(I23
I16
tp4
a(I23
I17
tp5
a(I21
I17
tp6
a(I22
I17
tp7
a(I24
I17
tp8
a(I22
I18
tp9
a(I23
I18
tp10
a(I24
I18
tp11
a(I23
I19
tp12
a(I24
I19
tp13
a(I23
I20
tp14
a(I24
I20
tp15
a(I23
I21
tp16
a(I24
I21
tp17
a(I20
I21
tp18
a(I21
I21
tp19
a(I22
I21
tp20
a(I21
I22
tp21
a(I23
I22
tp22
a(I24
I22
tp23
a(I20
I22
tp24
a(I22
I22
tp25
a(I21
I23
tp26
a(I22
I23
tp27
a(I23
I23
tp28
a(I24
I23
tp29
a(I20
I23
tp30
a(I19
I23
tp31
a(I19
I24
tp32
a(I21
I24
tp33
a(I22
I24
tp34
a(I23
I24
tp35
a(I24
I24
tp36
a(I20
I24
tp37
asS'Nodes'
p38
(lp39
(lp40
(iNavigator_0_0663
NODE
p41
(dp42
S'View'
p43
(lp44
I0
aI0
aI0
aI0
asS'Linked'
p45
(lp46
sS'ProspectList'
p47
(lp48
(I1
I0
tp49
a(I0
I1
tp50
asS'Active'
p51
I0
sba(iNavigator_0_0663
NODE
p52
(dp53
g43
(lp54
I0
aI0
aI0
aI0
asg45
(lp55
sg47
(lp56
(I1
I1
tp57
a(I0
I2
tp58
a(I0
I0
tp59
asg51
I0
sba(iNavigator_0_0663
NODE
p60
(dp61
g43
(lp62
I0
aI0
aI0
aI0
asg45
(lp63
sg47
(lp64
(I1
I2
tp65
a(I0
I3
tp66
a(I0
I1
tp67
asg51
I0
sba(iNavigator_0_0663
NODE
p68
(dp69
g43
(lp70
I0
aI0
aI0
aI0
asg45
(lp71
sg47
(lp72
(I1
I3
tp73
a(I0
I4
tp74
a(I0
I2
tp75
asg51
I0
sba(iNavigator_0_0663
NODE
p76
(dp77
g43
(lp78
I0
aI0
aI0
aI0
asg45
(lp79
sg47
(lp80
(I1
I4
tp81
a(I0
I5
tp82
a(I0
I3
tp83
asg51
I0
sba(iNavigator_0_0663
NODE
p84
(dp85
g43
(lp86
I0
aI0
aI0
aI0
asg45
(lp87
sg47
(lp88
(I1
I5
tp89
a(I0
I6
tp90
a(I0
I4
tp91
asg51
I0
sba(iNavigator_0_0663
NODE
p92
(dp93
g43
(lp94
I0
aI0
aI0
aI0
asg45
(lp95
sg47
(lp96
(I1
I6
tp97
a(I0
I7
tp98
a(I0
I5
tp99
asg51
I0
sba(iNavigator_0_0663
NODE
p100
(dp101
g43
(lp102
I0
aI0
aI0
aI0
asg45
(lp103
sg47
(lp104
(I1
I7
tp105
a(I0
I8
tp106
a(I0
I6
tp107
asg51
I0
sba(iNavigator_0_0663
NODE
p108
(dp109
g43
(lp110
I0
aI0
aI0
aI0
asg45
(lp111
sg47
(lp112
(I1
I8
tp113
a(I0
I9
tp114
a(I0
I7
tp115
asg51
I0
sba(iNavigator_0_0663
NODE
p116
(dp117
g43
(lp118
I0
aI0
aI0
aI0
asg45
(lp119
sg47
(lp120
(I1
I9
tp121
a(I0
I10
tp122
a(I0
I8
tp123
asg51
I0
sba(iNavigator_0_0663
NODE
p124
(dp125
g43
(lp126
I0
aI0
aI0
aI0
asg45
(lp127
sg47
(lp128
(I1
I10
tp129
a(I0
I11
tp130
a(I0
I9
tp131
asg51
I0
sba(iNavigator_0_0663
NODE
p132
(dp133
g43
(lp134
I0
aI0
aI0
aI0
asg45
(lp135
sg47
(lp136
(I1
I11
tp137
a(I0
I12
tp138
a(I0
I10
tp139
asg51
I0
sba(iNavigator_0_0663
NODE
p140
(dp141
g43
(lp142
I0
aI0
aI0
aI0
asg45
(lp143
sg47
(lp144
(I1
I12
tp145
a(I0
I13
tp146
a(I0
I11
tp147
asg51
I0
sba(iNavigator_0_0663
NODE
p148
(dp149
g43
(lp150
I0
aI0
aI0
aI0
asg45
(lp151
sg47
(lp152
(I1
I13
tp153
a(I0
I14
tp154
a(I0
I12
tp155
asg51
I0
sba(iNavigator_0_0663
NODE
p156
(dp157
g43
(lp158
I0
aI0
aI0
aI0
asg45
(lp159
sg47
(lp160
(I1
I14
tp161
a(I0
I15
tp162
a(I0
I13
tp163
asg51
I0
sba(iNavigator_0_0663
NODE
p164
(dp165
g43
(lp166
I0
aI0
aI0
aI0
asg45
(lp167
sg47
(lp168
(I1
I15
tp169
a(I0
I16
tp170
a(I0
I14
tp171
asg51
I0
sba(iNavigator_0_0663
NODE
p172
(dp173
g43
(lp174
I0
aI0
aI0
aI0
asg45
(lp175
sg47
(lp176
(I1
I16
tp177
a(I0
I17
tp178
a(I0
I15
tp179
asg51
I0
sba(iNavigator_0_0663
NODE
p180
(dp181
g43
(lp182
I0
aI0
aI0
aI0
asg45
(lp183
sg47
(lp184
(I1
I17
tp185
a(I0
I18
tp186
a(I0
I16
tp187
asg51
I0
sba(iNavigator_0_0663
NODE
p188
(dp189
g43
(lp190
I0
aI0
aI0
aI0
asg45
(lp191
sg47
(lp192
(I1
I18
tp193
a(I0
I19
tp194
a(I0
I17
tp195
asg51
I0
sba(iNavigator_0_0663
NODE
p196
(dp197
g43
(lp198
I0
aI0
aI0
aI0
asg45
(lp199
sg47
(lp200
(I1
I19
tp201
a(I0
I20
tp202
a(I0
I18
tp203
asg51
I0
sba(iNavigator_0_0663
NODE
p204
(dp205
g43
(lp206
I0
aI0
aI0
aI0
asg45
(lp207
sg47
(lp208
(I1
I20
tp209
a(I0
I21
tp210
a(I0
I19
tp211
asg51
I0
sba(iNavigator_0_0663
NODE
p212
(dp213
g43
(lp214
I0
aI0
aI0
aI0
asg45
(lp215
sg47
(lp216
(I1
I21
tp217
a(I0
I22
tp218
a(I0
I20
tp219
asg51
I0
sba(iNavigator_0_0663
NODE
p220
(dp221
g43
(lp222
I0
aI0
aI0
aI0
asg45
(lp223
sg47
(lp224
(I1
I22
tp225
a(I0
I23
tp226
a(I0
I21
tp227
asg51
I0
sba(iNavigator_0_0663
NODE
p228
(dp229
g43
(lp230
I0
aI0
aI0
aI0
asg45
(lp231
sg47
(lp232
(I1
I23
tp233
a(I0
I24
tp234
a(I0
I22
tp235
asg51
I0
sba(iNavigator_0_0663
NODE
p236
(dp237
g43
(lp238
I0
aI0
aI0
aI0
asg45
(lp239
sg47
(lp240
(I1
I24
tp241
a(I0
I23
tp242
asg51
I0
sbaa(lp243
(iNavigator_0_0663
NODE
p244
(dp245
g43
(lp246
I0
aI0
aI0
aI0
asg45
(lp247
sg47
(lp248
(I2
I0
tp249
a(I0
I0
tp250
a(I1
I1
tp251
asg51
I0
sba(iNavigator_0_0663
NODE
p252
(dp253
g43
(lp254
I0
aI0
aI0
aI0
asg45
(lp255
sg47
(lp256
(I2
I1
tp257
a(I0
I1
tp258
a(I1
I2
tp259
a(I1
I0
tp260
asg51
I0
sba(iNavigator_0_0663
NODE
p261
(dp262
g43
(lp263
I0
aI0
aI0
aI0
asg45
(lp264
sg47
(lp265
(I2
I2
tp266
a(I0
I2
tp267
a(I1
I3
tp268
a(I1
I1
tp269
asg51
I0
sba(iNavigator_0_0663
NODE
p270
(dp271
g43
(lp272
I0
aI0
aI0
aI0
asg45
(lp273
sg47
(lp274
(I2
I3
tp275
a(I0
I3
tp276
a(I1
I4
tp277
a(I1
I2
tp278
asg51
I0
sba(iNavigator_0_0663
NODE
p279
(dp280
g43
(lp281
I0
aI0
aI0
aI0
asg45
(lp282
sg47
(lp283
(I2
I4
tp284
a(I0
I4
tp285
a(I1
I5
tp286
a(I1
I3
tp287
asg51
I0
sba(iNavigator_0_0663
NODE
p288
(dp289
g43
(lp290
I0
aI0
aI0
aI0
asg45
(lp291
sg47
(lp292
(I2
I5
tp293
a(I0
I5
tp294
a(I1
I6
tp295
a(I1
I4
tp296
asg51
I0
sba(iNavigator_0_0663
NODE
p297
(dp298
g43
(lp299
I0
aI0
aI0
aI0
asg45
(lp300
sg47
(lp301
(I2
I6
tp302
a(I0
I6
tp303
a(I1
I7
tp304
a(I1
I5
tp305
asg51
I0
sba(iNavigator_0_0663
NODE
p306
(dp307
g43
(lp308
I0
aI0
aI0
aI0
asg45
(lp309
sg47
(lp310
(I2
I7
tp311
a(I0
I7
tp312
a(I1
I8
tp313
a(I1
I6
tp314
asg51
I0
sba(iNavigator_0_0663
NODE
p315
(dp316
g43
(lp317
I0
aI0
aI0
aI0
asg45
(lp318
sg47
(lp319
(I2
I8
tp320
a(I0
I8
tp321
a(I1
I9
tp322
a(I1
I7
tp323
asg51
I0
sba(iNavigator_0_0663
NODE
p324
(dp325
g43
(lp326
I0
aI0
aI0
aI0
asg45
(lp327
sg47
(lp328
(I2
I9
tp329
a(I0
I9
tp330
a(I1
I10
tp331
a(I1
I8
tp332
asg51
I0
sba(iNavigator_0_0663
NODE
p333
(dp334
g43
(lp335
I0
aI0
aI0
aI0
asg45
(lp336
sg47
(lp337
(I2
I10
tp338
a(I0
I10
tp339
a(I1
I11
tp340
a(I1
I9
tp341
asg51
I0
sba(iNavigator_0_0663
NODE
p342
(dp343
g43
(lp344
I0
aI0
aI0
aI0
asg45
(lp345
sg47
(lp346
(I2
I11
tp347
a(I0
I11
tp348
a(I1
I12
tp349
a(I1
I10
tp350
asg51
I0
sba(iNavigator_0_0663
NODE
p351
(dp352
g43
(lp353
I0
aI0
aI0
aI0
asg45
(lp354
sg47
(lp355
(I2
I12
tp356
a(I0
I12
tp357
a(I1
I13
tp358
a(I1
I11
tp359
asg51
I0
sba(iNavigator_0_0663
NODE
p360
(dp361
g43
(lp362
I0
aI0
aI0
aI0
asg45
(lp363
sg47
(lp364
(I2
I13
tp365
a(I0
I13
tp366
a(I1
I14
tp367
a(I1
I12
tp368
asg51
I0
sba(iNavigator_0_0663
NODE
p369
(dp370
g43
(lp371
I0
aI0
aI0
aI0
asg45
(lp372
sg47
(lp373
(I2
I14
tp374
a(I0
I14
tp375
a(I1
I15
tp376
a(I1
I13
tp377
asg51
I0
sba(iNavigator_0_0663
NODE
p378
(dp379
g43
(lp380
I0
aI0
aI0
aI0
asg45
(lp381
sg47
(lp382
(I2
I15
tp383
a(I0
I15
tp384
a(I1
I16
tp385
a(I1
I14
tp386
asg51
I0
sba(iNavigator_0_0663
NODE
p387
(dp388
g43
(lp389
I0
aI0
aI0
aI0
asg45
(lp390
sg47
(lp391
(I2
I16
tp392
a(I0
I16
tp393
a(I1
I17
tp394
a(I1
I15
tp395
asg51
I0
sba(iNavigator_0_0663
NODE
p396
(dp397
g43
(lp398
I0
aI0
aI0
aI0
asg45
(lp399
sg47
(lp400
(I2
I17
tp401
a(I0
I17
tp402
a(I1
I18
tp403
a(I1
I16
tp404
asg51
I0
sba(iNavigator_0_0663
NODE
p405
(dp406
g43
(lp407
I0
aI0
aI0
aI0
asg45
(lp408
sg47
(lp409
(I2
I18
tp410
a(I0
I18
tp411
a(I1
I19
tp412
a(I1
I17
tp413
asg51
I0
sba(iNavigator_0_0663
NODE
p414
(dp415
g43
(lp416
I0
aI0
aI0
aI0
asg45
(lp417
sg47
(lp418
(I2
I19
tp419
a(I0
I19
tp420
a(I1
I20
tp421
a(I1
I18
tp422
asg51
I0
sba(iNavigator_0_0663
NODE
p423
(dp424
g43
(lp425
I0
aI0
aI0
aI0
asg45
(lp426
sg47
(lp427
(I2
I20
tp428
a(I0
I20
tp429
a(I1
I21
tp430
a(I1
I19
tp431
asg51
I0
sba(iNavigator_0_0663
NODE
p432
(dp433
g43
(lp434
I0
aI0
aI0
aI0
asg45
(lp435
sg47
(lp436
(I2
I21
tp437
a(I0
I21
tp438
a(I1
I22
tp439
a(I1
I20
tp440
asg51
I0
sba(iNavigator_0_0663
NODE
p441
(dp442
g43
(lp443
I0
aI0
aI0
aI0
asg45
(lp444
sg47
(lp445
(I2
I22
tp446
a(I0
I22
tp447
a(I1
I23
tp448
a(I1
I21
tp449
asg51
I0
sba(iNavigator_0_0663
NODE
p450
(dp451
g43
(lp452
I0
aI0
aI0
aI0
asg45
(lp453
sg47
(lp454
(I2
I23
tp455
a(I0
I23
tp456
a(I1
I24
tp457
a(I1
I22
tp458
asg51
I0
sba(iNavigator_0_0663
NODE
p459
(dp460
g43
(lp461
I0
aI0
aI0
aI0
asg45
(lp462
sg47
(lp463
(I2
I24
tp464
a(I0
I24
tp465
a(I1
I23
tp466
asg51
I0
sbaa(lp467
(iNavigator_0_0663
NODE
p468
(dp469
g43
(lp470
I0
aI0
aI0
aI0
asg45
(lp471
sg47
(lp472
(I3
I0
tp473
a(I1
I0
tp474
a(I2
I1
tp475
asg51
I0
sba(iNavigator_0_0663
NODE
p476
(dp477
g43
(lp478
I0
aI0
aI0
aI0
asg45
(lp479
sg47
(lp480
(I3
I1
tp481
a(I1
I1
tp482
a(I2
I2
tp483
a(I2
I0
tp484
asg51
I0
sba(iNavigator_0_0663
NODE
p485
(dp486
g43
(lp487
I0
aI0
aI0
aI0
asg45
(lp488
sg47
(lp489
(I3
I2
tp490
a(I1
I2
tp491
a(I2
I3
tp492
a(I2
I1
tp493
asg51
I0
sba(iNavigator_0_0663
NODE
p494
(dp495
g43
(lp496
I0
aI0
aI0
aI0
asg45
(lp497
sg47
(lp498
(I3
I3
tp499
a(I1
I3
tp500
a(I2
I4
tp501
a(I2
I2
tp502
asg51
I0
sba(iNavigator_0_0663
NODE
p503
(dp504
g43
(lp505
I0
aI0
aI0
aI0
asg45
(lp506
sg47
(lp507
(I3
I4
tp508
a(I1
I4
tp509
a(I2
I5
tp510
a(I2
I3
tp511
asg51
I0
sba(iNavigator_0_0663
NODE
p512
(dp513
g43
(lp514
I0
aI0
aI0
aI0
asg45
(lp515
sg47
(lp516
(I3
I5
tp517
a(I1
I5
tp518
a(I2
I6
tp519
a(I2
I4
tp520
asg51
I0
sba(iNavigator_0_0663
NODE
p521
(dp522
g43
(lp523
I0
aI0
aI0
aI0
asg45
(lp524
sg47
(lp525
(I3
I6
tp526
a(I1
I6
tp527
a(I2
I7
tp528
a(I2
I5
tp529
asg51
I0
sba(iNavigator_0_0663
NODE
p530
(dp531
g43
(lp532
I0
aI0
aI0
aI0
asg45
(lp533
sg47
(lp534
(I3
I7
tp535
a(I1
I7
tp536
a(I2
I8
tp537
a(I2
I6
tp538
asg51
I0
sba(iNavigator_0_0663
NODE
p539
(dp540
g43
(lp541
I0
aI0
aI0
aI0
asg45
(lp542
sg47
(lp543
(I3
I8
tp544
a(I1
I8
tp545
a(I2
I9
tp546
a(I2
I7
tp547
asg51
I0
sba(iNavigator_0_0663
NODE
p548
(dp549
g43
(lp550
I0
aI0
aI0
aI0
asg45
(lp551
sg47
(lp552
(I3
I9
tp553
a(I1
I9
tp554
a(I2
I10
tp555
a(I2
I8
tp556
asg51
I0
sba(iNavigator_0_0663
NODE
p557
(dp558
g43
(lp559
I0
aI0
aI0
aI0
asg45
(lp560
sg47
(lp561
(I3
I10
tp562
a(I1
I10
tp563
a(I2
I11
tp564
a(I2
I9
tp565
asg51
I0
sba(iNavigator_0_0663
NODE
p566
(dp567
g43
(lp568
I0
aI0
aI0
aI0
asg45
(lp569
sg47
(lp570
(I3
I11
tp571
a(I1
I11
tp572
a(I2
I12
tp573
a(I2
I10
tp574
asg51
I0
sba(iNavigator_0_0663
NODE
p575
(dp576
g43
(lp577
I0
aI0
aI0
aI0
asg45
(lp578
sg47
(lp579
(I3
I12
tp580
a(I1
I12
tp581
a(I2
I13
tp582
a(I2
I11
tp583
asg51
I0
sba(iNavigator_0_0663
NODE
p584
(dp585
g43
(lp586
I0
aI0
aI0
aI0
asg45
(lp587
sg47
(lp588
(I3
I13
tp589
a(I1
I13
tp590
a(I2
I14
tp591
a(I2
I12
tp592
asg51
I0
sba(iNavigator_0_0663
NODE
p593
(dp594
g43
(lp595
I0
aI0
aI0
aI0
asg45
(lp596
sg47
(lp597
(I3
I14
tp598
a(I1
I14
tp599
a(I2
I15
tp600
a(I2
I13
tp601
asg51
I0
sba(iNavigator_0_0663
NODE
p602
(dp603
g43
(lp604
I0
aI0
aI0
aI0
asg45
(lp605
sg47
(lp606
(I3
I15
tp607
a(I1
I15
tp608
a(I2
I16
tp609
a(I2
I14
tp610
asg51
I0
sba(iNavigator_0_0663
NODE
p611
(dp612
g43
(lp613
I0
aI0
aI0
aI0
asg45
(lp614
sg47
(lp615
(I3
I16
tp616
a(I1
I16
tp617
a(I2
I17
tp618
a(I2
I15
tp619
asg51
I0
sba(iNavigator_0_0663
NODE
p620
(dp621
g43
(lp622
I0
aI0
aI0
aI0
asg45
(lp623
sg47
(lp624
(I3
I17
tp625
a(I1
I17
tp626
a(I2
I18
tp627
a(I2
I16
tp628
asg51
I0
sba(iNavigator_0_0663
NODE
p629
(dp630
g43
(lp631
I0
aI0
aI0
aI0
asg45
(lp632
sg47
(lp633
(I3
I18
tp634
a(I1
I18
tp635
a(I2
I19
tp636
a(I2
I17
tp637
asg51
I0
sba(iNavigator_0_0663
NODE
p638
(dp639
g43
(lp640
I0
aI0
aI0
aI0
asg45
(lp641
sg47
(lp642
(I3
I19
tp643
a(I1
I19
tp644
a(I2
I20
tp645
a(I2
I18
tp646
asg51
I0
sba(iNavigator_0_0663
NODE
p647
(dp648
g43
(lp649
I0
aI0
aI0
aI0
asg45
(lp650
sg47
(lp651
(I3
I20
tp652
a(I1
I20
tp653
a(I2
I21
tp654
a(I2
I19
tp655
asg51
I0
sba(iNavigator_0_0663
NODE
p656
(dp657
g43
(lp658
I0
aI0
aI0
aI0
asg45
(lp659
sg47
(lp660
(I3
I21
tp661
a(I1
I21
tp662
a(I2
I22
tp663
a(I2
I20
tp664
asg51
I0
sba(iNavigator_0_0663
NODE
p665
(dp666
g43
(lp667
I0
aI0
aI0
aI0
asg45
(lp668
sg47
(lp669
(I3
I22
tp670
a(I1
I22
tp671
a(I2
I23
tp672
a(I2
I21
tp673
asg51
I0
sba(iNavigator_0_0663
NODE
p674
(dp675
g43
(lp676
I0
aI0
aI0
aI0
asg45
(lp677
sg47
(lp678
(I3
I23
tp679
a(I1
I23
tp680
a(I2
I24
tp681
a(I2
I22
tp682
asg51
I0
sba(iNavigator_0_0663
NODE
p683
(dp684
g43
(lp685
I0
aI0
aI0
aI0
asg45
(lp686
sg47
(lp687
(I3
I24
tp688
a(I1
I24
tp689
a(I2
I23
tp690
asg51
I0
sbaa(lp691
(iNavigator_0_0663
NODE
p692
(dp693
g43
(lp694
I0
aI0
aI0
aI0
asg45
(lp695
sg47
(lp696
(I4
I0
tp697
a(I2
I0
tp698
a(I3
I1
tp699
asg51
I0
sba(iNavigator_0_0663
NODE
p700
(dp701
g43
(lp702
I0
aI0
aI0
aI0
asg45
(lp703
sg47
(lp704
(I4
I1
tp705
a(I2
I1
tp706
a(I3
I2
tp707
a(I3
I0
tp708
asg51
I0
sba(iNavigator_0_0663
NODE
p709
(dp710
g43
(lp711
I0
aI0
aI0
aI0
asg45
(lp712
sg47
(lp713
(I4
I2
tp714
a(I2
I2
tp715
a(I3
I3
tp716
a(I3
I1
tp717
asg51
I0
sba(iNavigator_0_0663
NODE
p718
(dp719
g43
(lp720
I0
aI0
aI0
aI0
asg45
(lp721
sg47
(lp722
(I4
I3
tp723
a(I2
I3
tp724
a(I3
I4
tp725
a(I3
I2
tp726
asg51
I0
sba(iNavigator_0_0663
NODE
p727
(dp728
g43
(lp729
I0
aI0
aI0
aI0
asg45
(lp730
sg47
(lp731
(I4
I4
tp732
a(I2
I4
tp733
a(I3
I5
tp734
a(I3
I3
tp735
asg51
I0
sba(iNavigator_0_0663
NODE
p736
(dp737
g43
(lp738
I0
aI0
aI0
aI0
asg45
(lp739
sg47
(lp740
(I4
I5
tp741
a(I2
I5
tp742
a(I3
I6
tp743
a(I3
I4
tp744
asg51
I0
sba(iNavigator_0_0663
NODE
p745
(dp746
g43
(lp747
I0
aI0
aI0
aI0
asg45
(lp748
sg47
(lp749
(I4
I6
tp750
a(I2
I6
tp751
a(I3
I7
tp752
a(I3
I5
tp753
asg51
I0
sba(iNavigator_0_0663
NODE
p754
(dp755
g43
(lp756
I0
aI0
aI0
aI0
asg45
(lp757
sg47
(lp758
(I4
I7
tp759
a(I2
I7
tp760
a(I3
I8
tp761
a(I3
I6
tp762
asg51
I0
sba(iNavigator_0_0663
NODE
p763
(dp764
g43
(lp765
I0
aI0
aI0
aI0
asg45
(lp766
sg47
(lp767
(I4
I8
tp768
a(I2
I8
tp769
a(I3
I9
tp770
a(I3
I7
tp771
asg51
I0
sba(iNavigator_0_0663
NODE
p772
(dp773
g43
(lp774
I0
aI0
aI0
aI0
asg45
(lp775
sg47
(lp776
(I4
I9
tp777
a(I2
I9
tp778
a(I3
I10
tp779
a(I3
I8
tp780
asg51
I0
sba(iNavigator_0_0663
NODE
p781
(dp782
g43
(lp783
I0
aI0
aI0
aI0
asg45
(lp784
sg47
(lp785
(I4
I10
tp786
a(I2
I10
tp787
a(I3
I11
tp788
a(I3
I9
tp789
asg51
I0
sba(iNavigator_0_0663
NODE
p790
(dp791
g43
(lp792
I0
aI0
aI0
aI0
asg45
(lp793
sg47
(lp794
(I4
I11
tp795
a(I2
I11
tp796
a(I3
I12
tp797
a(I3
I10
tp798
asg51
I0
sba(iNavigator_0_0663
NODE
p799
(dp800
g43
(lp801
I0
aI0
aI0
aI0
asg45
(lp802
sg47
(lp803
(I4
I12
tp804
a(I2
I12
tp805
a(I3
I13
tp806
a(I3
I11
tp807
asg51
I0
sba(iNavigator_0_0663
NODE
p808
(dp809
g43
(lp810
I0
aI0
aI0
aI0
asg45
(lp811
sg47
(lp812
(I4
I13
tp813
a(I2
I13
tp814
a(I3
I14
tp815
a(I3
I12
tp816
asg51
I0
sba(iNavigator_0_0663
NODE
p817
(dp818
g43
(lp819
I0
aI0
aI0
aI0
asg45
(lp820
sg47
(lp821
(I4
I14
tp822
a(I2
I14
tp823
a(I3
I15
tp824
a(I3
I13
tp825
asg51
I0
sba(iNavigator_0_0663
NODE
p826
(dp827
g43
(lp828
I0
aI0
aI0
aI0
asg45
(lp829
sg47
(lp830
(I4
I15
tp831
a(I2
I15
tp832
a(I3
I16
tp833
a(I3
I14
tp834
asg51
I0
sba(iNavigator_0_0663
NODE
p835
(dp836
g43
(lp837
I0
aI0
aI0
aI0
asg45
(lp838
sg47
(lp839
(I4
I16
tp840
a(I2
I16
tp841
a(I3
I17
tp842
a(I3
I15
tp843
asg51
I0
sba(iNavigator_0_0663
NODE
p844
(dp845
g43
(lp846
I0
aI0
aI0
aI0
asg45
(lp847
sg47
(lp848
(I4
I17
tp849
a(I2
I17
tp850
a(I3
I18
tp851
a(I3
I16
tp852
asg51
I0
sba(iNavigator_0_0663
NODE
p853
(dp854
g43
(lp855
I0
aI0
aI0
aI0
asg45
(lp856
sg47
(lp857
(I4
I18
tp858
a(I2
I18
tp859
a(I3
I19
tp860
a(I3
I17
tp861
asg51
I0
sba(iNavigator_0_0663
NODE
p862
(dp863
g43
(lp864
I0
aI0
aI0
aI0
asg45
(lp865
sg47
(lp866
(I4
I19
tp867
a(I2
I19
tp868
a(I3
I20
tp869
a(I3
I18
tp870
asg51
I0
sba(iNavigator_0_0663
NODE
p871
(dp872
g43
(lp873
I0
aI0
aI0
aI0
asg45
(lp874
sg47
(lp875
(I4
I20
tp876
a(I2
I20
tp877
a(I3
I21
tp878
a(I3
I19
tp879
asg51
I0
sba(iNavigator_0_0663
NODE
p880
(dp881
g43
(lp882
I0
aI0
aI0
aI0
asg45
(lp883
sg47
(lp884
(I4
I21
tp885
a(I2
I21
tp886
a(I3
I22
tp887
a(I3
I20
tp888
asg51
I0
sba(iNavigator_0_0663
NODE
p889
(dp890
g43
(lp891
I0
aI0
aI0
aI0
asg45
(lp892
sg47
(lp893
(I4
I22
tp894
a(I2
I22
tp895
a(I3
I23
tp896
a(I3
I21
tp897
asg51
I0
sba(iNavigator_0_0663
NODE
p898
(dp899
g43
(lp900
I0
aI0
aI0
aI0
asg45
(lp901
sg47
(lp902
(I4
I23
tp903
a(I2
I23
tp904
a(I3
I24
tp905
a(I3
I22
tp906
asg51
I0
sba(iNavigator_0_0663
NODE
p907
(dp908
g43
(lp909
I0
aI0
aI0
aI0
asg45
(lp910
sg47
(lp911
(I4
I24
tp912
a(I2
I24
tp913
a(I3
I23
tp914
asg51
I0
sbaa(lp915
(iNavigator_0_0663
NODE
p916
(dp917
g43
(lp918
I0
aI0
aI0
aI0
asg45
(lp919
sg47
(lp920
(I5
I0
tp921
a(I3
I0
tp922
a(I4
I1
tp923
asg51
I0
sba(iNavigator_0_0663
NODE
p924
(dp925
g43
(lp926
I0
aI0
aI0
aI0
asg45
(lp927
sg47
(lp928
(I5
I1
tp929
a(I3
I1
tp930
a(I4
I2
tp931
a(I4
I0
tp932
asg51
I0
sba(iNavigator_0_0663
NODE
p933
(dp934
g43
(lp935
I0
aI0
aI0
aI0
asg45
(lp936
sg47
(lp937
(I5
I2
tp938
a(I3
I2
tp939
a(I4
I3
tp940
a(I4
I1
tp941
asg51
I0
sba(iNavigator_0_0663
NODE
p942
(dp943
g43
(lp944
I0
aI0
aI0
aI0
asg45
(lp945
sg47
(lp946
(I5
I3
tp947
a(I3
I3
tp948
a(I4
I4
tp949
a(I4
I2
tp950
asg51
I0
sba(iNavigator_0_0663
NODE
p951
(dp952
g43
(lp953
I0
aI0
aI0
aI0
asg45
(lp954
sg47
(lp955
(I5
I4
tp956
a(I3
I4
tp957
a(I4
I5
tp958
a(I4
I3
tp959
asg51
I0
sba(iNavigator_0_0663
NODE
p960
(dp961
g43
(lp962
I0
aI0
aI0
aI0
asg45
(lp963
sg47
(lp964
(I5
I5
tp965
a(I3
I5
tp966
a(I4
I6
tp967
a(I4
I4
tp968
asg51
I0
sba(iNavigator_0_0663
NODE
p969
(dp970
g43
(lp971
I0
aI0
aI0
aI0
asg45
(lp972
sg47
(lp973
(I5
I6
tp974
a(I3
I6
tp975
a(I4
I7
tp976
a(I4
I5
tp977
asg51
I0
sba(iNavigator_0_0663
NODE
p978
(dp979
g43
(lp980
I0
aI0
aI0
aI0
asg45
(lp981
sg47
(lp982
(I5
I7
tp983
a(I3
I7
tp984
a(I4
I8
tp985
a(I4
I6
tp986
asg51
I0
sba(iNavigator_0_0663
NODE
p987
(dp988
g43
(lp989
I0
aI0
aI0
aI0
asg45
(lp990
sg47
(lp991
(I5
I8
tp992
a(I3
I8
tp993
a(I4
I9
tp994
a(I4
I7
tp995
asg51
I0
sba(iNavigator_0_0663
NODE
p996
(dp997
g43
(lp998
I0
aI0
aI0
aI0
asg45
(lp999
sg47
(lp1000
(I5
I9
tp1001
a(I3
I9
tp1002
a(I4
I10
tp1003
a(I4
I8
tp1004
asg51
I0
sba(iNavigator_0_0663
NODE
p1005
(dp1006
g43
(lp1007
I0
aI0
aI0
aI0
asg45
(lp1008
sg47
(lp1009
(I5
I10
tp1010
a(I3
I10
tp1011
a(I4
I11
tp1012
a(I4
I9
tp1013
asg51
I0
sba(iNavigator_0_0663
NODE
p1014
(dp1015
g43
(lp1016
I0
aI0
aI0
aI0
asg45
(lp1017
sg47
(lp1018
(I5
I11
tp1019
a(I3
I11
tp1020
a(I4
I12
tp1021
a(I4
I10
tp1022
asg51
I0
sba(iNavigator_0_0663
NODE
p1023
(dp1024
g43
(lp1025
I0
aI0
aI0
aI0
asg45
(lp1026
sg47
(lp1027
(I5
I12
tp1028
a(I3
I12
tp1029
a(I4
I13
tp1030
a(I4
I11
tp1031
asg51
I0
sba(iNavigator_0_0663
NODE
p1032
(dp1033
g43
(lp1034
I0
aI0
aI0
aI0
asg45
(lp1035
sg47
(lp1036
(I5
I13
tp1037
a(I3
I13
tp1038
a(I4
I14
tp1039
a(I4
I12
tp1040
asg51
I0
sba(iNavigator_0_0663
NODE
p1041
(dp1042
g43
(lp1043
I0
aI0
aI0
aI0
asg45
(lp1044
sg47
(lp1045
(I5
I14
tp1046
a(I3
I14
tp1047
a(I4
I15
tp1048
a(I4
I13
tp1049
asg51
I0
sba(iNavigator_0_0663
NODE
p1050
(dp1051
g43
(lp1052
I0
aI0
aI0
aI0
asg45
(lp1053
sg47
(lp1054
(I5
I15
tp1055
a(I3
I15
tp1056
a(I4
I16
tp1057
a(I4
I14
tp1058
asg51
I0
sba(iNavigator_0_0663
NODE
p1059
(dp1060
g43
(lp1061
I0
aI0
aI0
aI0
asg45
(lp1062
sg47
(lp1063
(I5
I16
tp1064
a(I3
I16
tp1065
a(I4
I17
tp1066
a(I4
I15
tp1067
asg51
I0
sba(iNavigator_0_0663
NODE
p1068
(dp1069
g43
(lp1070
I0
aI0
aI0
aI0
asg45
(lp1071
sg47
(lp1072
(I5
I17
tp1073
a(I3
I17
tp1074
a(I4
I18
tp1075
a(I4
I16
tp1076
asg51
I0
sba(iNavigator_0_0663
NODE
p1077
(dp1078
g43
(lp1079
I0
aI0
aI0
aI0
asg45
(lp1080
sg47
(lp1081
(I5
I18
tp1082
a(I3
I18
tp1083
a(I4
I19
tp1084
a(I4
I17
tp1085
asg51
I0
sba(iNavigator_0_0663
NODE
p1086
(dp1087
g43
(lp1088
I0
aI0
aI0
aI0
asg45
(lp1089
sg47
(lp1090
(I5
I19
tp1091
a(I3
I19
tp1092
a(I4
I20
tp1093
a(I4
I18
tp1094
asg51
I0
sba(iNavigator_0_0663
NODE
p1095
(dp1096
g43
(lp1097
I0
aI0
aI0
aI0
asg45
(lp1098
sg47
(lp1099
(I5
I20
tp1100
a(I3
I20
tp1101
a(I4
I21
tp1102
a(I4
I19
tp1103
asg51
I0
sba(iNavigator_0_0663
NODE
p1104
(dp1105
g43
(lp1106
I0
aI0
aI0
aI0
asg45
(lp1107
sg47
(lp1108
(I5
I21
tp1109
a(I3
I21
tp1110
a(I4
I22
tp1111
a(I4
I20
tp1112
asg51
I0
sba(iNavigator_0_0663
NODE
p1113
(dp1114
g43
(lp1115
I0
aI0
aI0
aI0
asg45
(lp1116
sg47
(lp1117
(I5
I22
tp1118
a(I3
I22
tp1119
a(I4
I23
tp1120
a(I4
I21
tp1121
asg51
I0
sba(iNavigator_0_0663
NODE
p1122
(dp1123
g43
(lp1124
I0
aI0
aI0
aI0
asg45
(lp1125
sg47
(lp1126
(I5
I23
tp1127
a(I3
I23
tp1128
a(I4
I24
tp1129
a(I4
I22
tp1130
asg51
I0
sba(iNavigator_0_0663
NODE
p1131
(dp1132
g43
(lp1133
I0
aI0
aI0
aI0
asg45
(lp1134
sg47
(lp1135
(I5
I24
tp1136
a(I3
I24
tp1137
a(I4
I23
tp1138
asg51
I0
sbaa(lp1139
(iNavigator_0_0663
NODE
p1140
(dp1141
g43
(lp1142
I0
aI0
aI0
aI0
asg45
(lp1143
sg47
(lp1144
(I6
I0
tp1145
a(I4
I0
tp1146
a(I5
I1
tp1147
asg51
I0
sba(iNavigator_0_0663
NODE
p1148
(dp1149
g43
(lp1150
I0
aI0
aI0
aI0
asg45
(lp1151
sg47
(lp1152
(I6
I1
tp1153
a(I4
I1
tp1154
a(I5
I2
tp1155
a(I5
I0
tp1156
asg51
I0
sba(iNavigator_0_0663
NODE
p1157
(dp1158
g43
(lp1159
I0
aI0
aI0
aI0
asg45
(lp1160
sg47
(lp1161
(I6
I2
tp1162
a(I4
I2
tp1163
a(I5
I3
tp1164
a(I5
I1
tp1165
asg51
I0
sba(iNavigator_0_0663
NODE
p1166
(dp1167
g43
(lp1168
I0
aI0
aI0
aI0
asg45
(lp1169
sg47
(lp1170
(I6
I3
tp1171
a(I4
I3
tp1172
a(I5
I4
tp1173
a(I5
I2
tp1174
asg51
I0
sba(iNavigator_0_0663
NODE
p1175
(dp1176
g43
(lp1177
I0
aI0
aI0
aI0
asg45
(lp1178
sg47
(lp1179
(I6
I4
tp1180
a(I4
I4
tp1181
a(I5
I5
tp1182
a(I5
I3
tp1183
asg51
I0
sba(iNavigator_0_0663
NODE
p1184
(dp1185
g43
(lp1186
I0
aI0
aI0
aI0
asg45
(lp1187
sg47
(lp1188
(I6
I5
tp1189
a(I4
I5
tp1190
a(I5
I6
tp1191
a(I5
I4
tp1192
asg51
I0
sba(iNavigator_0_0663
NODE
p1193
(dp1194
g43
(lp1195
I0
aI0
aI0
aI0
asg45
(lp1196
sg47
(lp1197
(I6
I6
tp1198
a(I4
I6
tp1199
a(I5
I7
tp1200
a(I5
I5
tp1201
asg51
I0
sba(iNavigator_0_0663
NODE
p1202
(dp1203
g43
(lp1204
I0
aI0
aI0
aI0
asg45
(lp1205
sg47
(lp1206
(I6
I7
tp1207
a(I4
I7
tp1208
a(I5
I8
tp1209
a(I5
I6
tp1210
asg51
I0
sba(iNavigator_0_0663
NODE
p1211
(dp1212
g43
(lp1213
I0
aI0
aI0
aI0
asg45
(lp1214
sg47
(lp1215
(I6
I8
tp1216
a(I4
I8
tp1217
a(I5
I9
tp1218
a(I5
I7
tp1219
asg51
I0
sba(iNavigator_0_0663
NODE
p1220
(dp1221
g43
(lp1222
I0
aI0
aI0
aI0
asg45
(lp1223
sg47
(lp1224
(I6
I9
tp1225
a(I4
I9
tp1226
a(I5
I10
tp1227
a(I5
I8
tp1228
asg51
I0
sba(iNavigator_0_0663
NODE
p1229
(dp1230
g43
(lp1231
I0
aI0
aI0
aI0
asg45
(lp1232
sg47
(lp1233
(I6
I10
tp1234
a(I4
I10
tp1235
a(I5
I11
tp1236
a(I5
I9
tp1237
asg51
I0
sba(iNavigator_0_0663
NODE
p1238
(dp1239
g43
(lp1240
I0
aI0
aI0
aI0
asg45
(lp1241
sg47
(lp1242
(I6
I11
tp1243
a(I4
I11
tp1244
a(I5
I12
tp1245
a(I5
I10
tp1246
asg51
I0
sba(iNavigator_0_0663
NODE
p1247
(dp1248
g43
(lp1249
I0
aI0
aI0
aI0
asg45
(lp1250
sg47
(lp1251
(I6
I12
tp1252
a(I4
I12
tp1253
a(I5
I13
tp1254
a(I5
I11
tp1255
asg51
I0
sba(iNavigator_0_0663
NODE
p1256
(dp1257
g43
(lp1258
I0
aI0
aI0
aI0
asg45
(lp1259
sg47
(lp1260
(I6
I13
tp1261
a(I4
I13
tp1262
a(I5
I14
tp1263
a(I5
I12
tp1264
asg51
I0
sba(iNavigator_0_0663
NODE
p1265
(dp1266
g43
(lp1267
I0
aI0
aI0
aI0
asg45
(lp1268
sg47
(lp1269
(I6
I14
tp1270
a(I4
I14
tp1271
a(I5
I15
tp1272
a(I5
I13
tp1273
asg51
I0
sba(iNavigator_0_0663
NODE
p1274
(dp1275
g43
(lp1276
I0
aI0
aI0
aI0
asg45
(lp1277
sg47
(lp1278
(I6
I15
tp1279
a(I4
I15
tp1280
a(I5
I16
tp1281
a(I5
I14
tp1282
asg51
I0
sba(iNavigator_0_0663
NODE
p1283
(dp1284
g43
(lp1285
I0
aI0
aI0
aI0
asg45
(lp1286
sg47
(lp1287
(I6
I16
tp1288
a(I4
I16
tp1289
a(I5
I17
tp1290
a(I5
I15
tp1291
asg51
I0
sba(iNavigator_0_0663
NODE
p1292
(dp1293
g43
(lp1294
I0
aI0
aI0
aI0
asg45
(lp1295
sg47
(lp1296
(I6
I17
tp1297
a(I4
I17
tp1298
a(I5
I18
tp1299
a(I5
I16
tp1300
asg51
I0
sba(iNavigator_0_0663
NODE
p1301
(dp1302
g43
(lp1303
I0
aI0
aI0
aI0
asg45
(lp1304
sg47
(lp1305
(I6
I18
tp1306
a(I4
I18
tp1307
a(I5
I19
tp1308
a(I5
I17
tp1309
asg51
I0
sba(iNavigator_0_0663
NODE
p1310
(dp1311
g43
(lp1312
I0
aI0
aI0
aI0
asg45
(lp1313
sg47
(lp1314
(I6
I19
tp1315
a(I4
I19
tp1316
a(I5
I20
tp1317
a(I5
I18
tp1318
asg51
I0
sba(iNavigator_0_0663
NODE
p1319
(dp1320
g43
(lp1321
I0
aI0
aI0
aI0
asg45
(lp1322
sg47
(lp1323
(I6
I20
tp1324
a(I4
I20
tp1325
a(I5
I21
tp1326
a(I5
I19
tp1327
asg51
I0
sba(iNavigator_0_0663
NODE
p1328
(dp1329
g43
(lp1330
I0
aI0
aI0
aI0
asg45
(lp1331
sg47
(lp1332
(I6
I21
tp1333
a(I4
I21
tp1334
a(I5
I22
tp1335
a(I5
I20
tp1336
asg51
I0
sba(iNavigator_0_0663
NODE
p1337
(dp1338
g43
(lp1339
I0
aI0
aI0
aI0
asg45
(lp1340
sg47
(lp1341
(I6
I22
tp1342
a(I4
I22
tp1343
a(I5
I23
tp1344
a(I5
I21
tp1345
asg51
I0
sba(iNavigator_0_0663
NODE
p1346
(dp1347
g43
(lp1348
I0
aI0
aI0
aI0
asg45
(lp1349
sg47
(lp1350
(I6
I23
tp1351
a(I4
I23
tp1352
a(I5
I24
tp1353
a(I5
I22
tp1354
asg51
I0
sba(iNavigator_0_0663
NODE
p1355
(dp1356
g43
(lp1357
I0
aI0
aI0
aI0
asg45
(lp1358
sg47
(lp1359
(I6
I24
tp1360
a(I4
I24
tp1361
a(I5
I23
tp1362
asg51
I0
sbaa(lp1363
(iNavigator_0_0663
NODE
p1364
(dp1365
g43
(lp1366
I0
aI0
aI0
aI0
asg45
(lp1367
sg47
(lp1368
(I7
I0
tp1369
a(I5
I0
tp1370
a(I6
I1
tp1371
asg51
I0
sba(iNavigator_0_0663
NODE
p1372
(dp1373
g43
(lp1374
I0
aI0
aI0
aI0
asg45
(lp1375
sg47
(lp1376
(I7
I1
tp1377
a(I5
I1
tp1378
a(I6
I2
tp1379
a(I6
I0
tp1380
asg51
I0
sba(iNavigator_0_0663
NODE
p1381
(dp1382
g43
(lp1383
I0
aI0
aI0
aI0
asg45
(lp1384
sg47
(lp1385
(I7
I2
tp1386
a(I5
I2
tp1387
a(I6
I3
tp1388
a(I6
I1
tp1389
asg51
I0
sba(iNavigator_0_0663
NODE
p1390
(dp1391
g43
(lp1392
I0
aI0
aI0
aI0
asg45
(lp1393
sg47
(lp1394
(I7
I3
tp1395
a(I5
I3
tp1396
a(I6
I4
tp1397
a(I6
I2
tp1398
asg51
I0
sba(iNavigator_0_0663
NODE
p1399
(dp1400
g43
(lp1401
I0
aI0
aI0
aI0
asg45
(lp1402
sg47
(lp1403
(I7
I4
tp1404
a(I5
I4
tp1405
a(I6
I5
tp1406
a(I6
I3
tp1407
asg51
I0
sba(iNavigator_0_0663
NODE
p1408
(dp1409
g43
(lp1410
I0
aI0
aI0
aI0
asg45
(lp1411
sg47
(lp1412
(I7
I5
tp1413
a(I5
I5
tp1414
a(I6
I6
tp1415
a(I6
I4
tp1416
asg51
I0
sba(iNavigator_0_0663
NODE
p1417
(dp1418
g43
(lp1419
I0
aI0
aI0
aI0
asg45
(lp1420
sg47
(lp1421
(I7
I6
tp1422
a(I5
I6
tp1423
a(I6
I7
tp1424
a(I6
I5
tp1425
asg51
I0
sba(iNavigator_0_0663
NODE
p1426
(dp1427
g43
(lp1428
I0
aI0
aI0
aI0
asg45
(lp1429
sg47
(lp1430
(I7
I7
tp1431
a(I5
I7
tp1432
a(I6
I8
tp1433
a(I6
I6
tp1434
asg51
I0
sba(iNavigator_0_0663
NODE
p1435
(dp1436
g43
(lp1437
I0
aI0
aI0
aI0
asg45
(lp1438
sg47
(lp1439
(I7
I8
tp1440
a(I5
I8
tp1441
a(I6
I9
tp1442
a(I6
I7
tp1443
asg51
I0
sba(iNavigator_0_0663
NODE
p1444
(dp1445
g43
(lp1446
I0
aI0
aI0
aI0
asg45
(lp1447
sg47
(lp1448
(I7
I9
tp1449
a(I5
I9
tp1450
a(I6
I10
tp1451
a(I6
I8
tp1452
asg51
I0
sba(iNavigator_0_0663
NODE
p1453
(dp1454
g43
(lp1455
I0
aI0
aI0
aI0
asg45
(lp1456
sg47
(lp1457
(I7
I10
tp1458
a(I5
I10
tp1459
a(I6
I11
tp1460
a(I6
I9
tp1461
asg51
I0
sba(iNavigator_0_0663
NODE
p1462
(dp1463
g43
(lp1464
I0
aI0
aI0
aI0
asg45
(lp1465
sg47
(lp1466
(I7
I11
tp1467
a(I5
I11
tp1468
a(I6
I12
tp1469
a(I6
I10
tp1470
asg51
I0
sba(iNavigator_0_0663
NODE
p1471
(dp1472
g43
(lp1473
I0
aI0
aI0
aI0
asg45
(lp1474
sg47
(lp1475
(I7
I12
tp1476
a(I5
I12
tp1477
a(I6
I13
tp1478
a(I6
I11
tp1479
asg51
I0
sba(iNavigator_0_0663
NODE
p1480
(dp1481
g43
(lp1482
I0
aI0
aI0
aI0
asg45
(lp1483
sg47
(lp1484
(I7
I13
tp1485
a(I5
I13
tp1486
a(I6
I14
tp1487
a(I6
I12
tp1488
asg51
I0
sba(iNavigator_0_0663
NODE
p1489
(dp1490
g43
(lp1491
I0
aI0
aI0
aI0
asg45
(lp1492
sg47
(lp1493
(I7
I14
tp1494
a(I5
I14
tp1495
a(I6
I15
tp1496
a(I6
I13
tp1497
asg51
I0
sba(iNavigator_0_0663
NODE
p1498
(dp1499
g43
(lp1500
I0
aI0
aI0
aI0
asg45
(lp1501
sg47
(lp1502
(I7
I15
tp1503
a(I5
I15
tp1504
a(I6
I16
tp1505
a(I6
I14
tp1506
asg51
I0
sba(iNavigator_0_0663
NODE
p1507
(dp1508
g43
(lp1509
I0
aI0
aI0
aI0
asg45
(lp1510
sg47
(lp1511
(I7
I16
tp1512
a(I5
I16
tp1513
a(I6
I17
tp1514
a(I6
I15
tp1515
asg51
I0
sba(iNavigator_0_0663
NODE
p1516
(dp1517
g43
(lp1518
I0
aI0
aI0
aI0
asg45
(lp1519
sg47
(lp1520
(I7
I17
tp1521
a(I5
I17
tp1522
a(I6
I18
tp1523
a(I6
I16
tp1524
asg51
I0
sba(iNavigator_0_0663
NODE
p1525
(dp1526
g43
(lp1527
I0
aI0
aI0
aI0
asg45
(lp1528
sg47
(lp1529
(I7
I18
tp1530
a(I5
I18
tp1531
a(I6
I19
tp1532
a(I6
I17
tp1533
asg51
I0
sba(iNavigator_0_0663
NODE
p1534
(dp1535
g43
(lp1536
I0
aI0
aI0
aI0
asg45
(lp1537
sg47
(lp1538
(I7
I19
tp1539
a(I5
I19
tp1540
a(I6
I20
tp1541
a(I6
I18
tp1542
asg51
I0
sba(iNavigator_0_0663
NODE
p1543
(dp1544
g43
(lp1545
I0
aI0
aI0
aI0
asg45
(lp1546
sg47
(lp1547
(I7
I20
tp1548
a(I5
I20
tp1549
a(I6
I21
tp1550
a(I6
I19
tp1551
asg51
I0
sba(iNavigator_0_0663
NODE
p1552
(dp1553
g43
(lp1554
I0
aI0
aI0
aI0
asg45
(lp1555
sg47
(lp1556
(I7
I21
tp1557
a(I5
I21
tp1558
a(I6
I22
tp1559
a(I6
I20
tp1560
asg51
I0
sba(iNavigator_0_0663
NODE
p1561
(dp1562
g43
(lp1563
I0
aI0
aI0
aI0
asg45
(lp1564
sg47
(lp1565
(I7
I22
tp1566
a(I5
I22
tp1567
a(I6
I23
tp1568
a(I6
I21
tp1569
asg51
I0
sba(iNavigator_0_0663
NODE
p1570
(dp1571
g43
(lp1572
I0
aI0
aI0
aI0
asg45
(lp1573
sg47
(lp1574
(I7
I23
tp1575
a(I5
I23
tp1576
a(I6
I24
tp1577
a(I6
I22
tp1578
asg51
I0
sba(iNavigator_0_0663
NODE
p1579
(dp1580
g43
(lp1581
I0
aI0
aI0
aI0
asg45
(lp1582
sg47
(lp1583
(I7
I24
tp1584
a(I5
I24
tp1585
a(I6
I23
tp1586
asg51
I0
sbaa(lp1587
(iNavigator_0_0663
NODE
p1588
(dp1589
g43
(lp1590
I0
aI0
aI0
aI0
asg45
(lp1591
sg47
(lp1592
(I8
I0
tp1593
a(I6
I0
tp1594
a(I7
I1
tp1595
asg51
I0
sba(iNavigator_0_0663
NODE
p1596
(dp1597
g43
(lp1598
I0
aI0
aI0
aI0
asg45
(lp1599
sg47
(lp1600
(I8
I1
tp1601
a(I6
I1
tp1602
a(I7
I2
tp1603
a(I7
I0
tp1604
asg51
I0
sba(iNavigator_0_0663
NODE
p1605
(dp1606
g43
(lp1607
I0
aI0
aI0
aI0
asg45
(lp1608
sg47
(lp1609
(I8
I2
tp1610
a(I6
I2
tp1611
a(I7
I3
tp1612
a(I7
I1
tp1613
asg51
I0
sba(iNavigator_0_0663
NODE
p1614
(dp1615
g43
(lp1616
I0
aI0
aI0
aI0
asg45
(lp1617
sg47
(lp1618
(I8
I3
tp1619
a(I6
I3
tp1620
a(I7
I4
tp1621
a(I7
I2
tp1622
asg51
I0
sba(iNavigator_0_0663
NODE
p1623
(dp1624
g43
(lp1625
I0
aI0
aI0
aI0
asg45
(lp1626
sg47
(lp1627
(I8
I4
tp1628
a(I6
I4
tp1629
a(I7
I5
tp1630
a(I7
I3
tp1631
asg51
I0
sba(iNavigator_0_0663
NODE
p1632
(dp1633
g43
(lp1634
I0
aI0
aI0
aI0
asg45
(lp1635
sg47
(lp1636
(I8
I5
tp1637
a(I6
I5
tp1638
a(I7
I6
tp1639
a(I7
I4
tp1640
asg51
I0
sba(iNavigator_0_0663
NODE
p1641
(dp1642
g43
(lp1643
I0
aI0
aI0
aI0
asg45
(lp1644
sg47
(lp1645
(I8
I6
tp1646
a(I6
I6
tp1647
a(I7
I7
tp1648
a(I7
I5
tp1649
asg51
I0
sba(iNavigator_0_0663
NODE
p1650
(dp1651
g43
(lp1652
I0
aI0
aI0
aI0
asg45
(lp1653
sg47
(lp1654
(I8
I7
tp1655
a(I6
I7
tp1656
a(I7
I8
tp1657
a(I7
I6
tp1658
asg51
I0
sba(iNavigator_0_0663
NODE
p1659
(dp1660
g43
(lp1661
I0
aI0
aI0
aI0
asg45
(lp1662
sg47
(lp1663
(I8
I8
tp1664
a(I6
I8
tp1665
a(I7
I9
tp1666
a(I7
I7
tp1667
asg51
I0
sba(iNavigator_0_0663
NODE
p1668
(dp1669
g43
(lp1670
I0
aI0
aI0
aI0
asg45
(lp1671
sg47
(lp1672
(I8
I9
tp1673
a(I6
I9
tp1674
a(I7
I10
tp1675
a(I7
I8
tp1676
asg51
I0
sba(iNavigator_0_0663
NODE
p1677
(dp1678
g43
(lp1679
I0
aI0
aI0
aI0
asg45
(lp1680
sg47
(lp1681
(I8
I10
tp1682
a(I6
I10
tp1683
a(I7
I11
tp1684
a(I7
I9
tp1685
asg51
I0
sba(iNavigator_0_0663
NODE
p1686
(dp1687
g43
(lp1688
I0
aI0
aI0
aI0
asg45
(lp1689
sg47
(lp1690
(I8
I11
tp1691
a(I6
I11
tp1692
a(I7
I12
tp1693
a(I7
I10
tp1694
asg51
I0
sba(iNavigator_0_0663
NODE
p1695
(dp1696
g43
(lp1697
I0
aI0
aI0
aI0
asg45
(lp1698
sg47
(lp1699
(I8
I12
tp1700
a(I6
I12
tp1701
a(I7
I13
tp1702
a(I7
I11
tp1703
asg51
I0
sba(iNavigator_0_0663
NODE
p1704
(dp1705
g43
(lp1706
I0
aI0
aI0
aI0
asg45
(lp1707
sg47
(lp1708
(I8
I13
tp1709
a(I6
I13
tp1710
a(I7
I14
tp1711
a(I7
I12
tp1712
asg51
I0
sba(iNavigator_0_0663
NODE
p1713
(dp1714
g43
(lp1715
I0
aI0
aI0
aI0
asg45
(lp1716
sg47
(lp1717
(I8
I14
tp1718
a(I6
I14
tp1719
a(I7
I15
tp1720
a(I7
I13
tp1721
asg51
I0
sba(iNavigator_0_0663
NODE
p1722
(dp1723
g43
(lp1724
I0
aI0
aI0
aI0
asg45
(lp1725
sg47
(lp1726
(I8
I15
tp1727
a(I6
I15
tp1728
a(I7
I16
tp1729
a(I7
I14
tp1730
asg51
I0
sba(iNavigator_0_0663
NODE
p1731
(dp1732
g43
(lp1733
I0
aI0
aI0
aI0
asg45
(lp1734
sg47
(lp1735
(I8
I16
tp1736
a(I6
I16
tp1737
a(I7
I17
tp1738
a(I7
I15
tp1739
asg51
I0
sba(iNavigator_0_0663
NODE
p1740
(dp1741
g43
(lp1742
I0
aI0
aI0
aI0
asg45
(lp1743
sg47
(lp1744
(I8
I17
tp1745
a(I6
I17
tp1746
a(I7
I18
tp1747
a(I7
I16
tp1748
asg51
I0
sba(iNavigator_0_0663
NODE
p1749
(dp1750
g43
(lp1751
I0
aI0
aI0
aI0
asg45
(lp1752
sg47
(lp1753
(I8
I18
tp1754
a(I6
I18
tp1755
a(I7
I19
tp1756
a(I7
I17
tp1757
asg51
I0
sba(iNavigator_0_0663
NODE
p1758
(dp1759
g43
(lp1760
I0
aI0
aI0
aI0
asg45
(lp1761
sg47
(lp1762
(I8
I19
tp1763
a(I6
I19
tp1764
a(I7
I20
tp1765
a(I7
I18
tp1766
asg51
I0
sba(iNavigator_0_0663
NODE
p1767
(dp1768
g43
(lp1769
I0
aI0
aI0
aI0
asg45
(lp1770
sg47
(lp1771
(I8
I20
tp1772
a(I6
I20
tp1773
a(I7
I21
tp1774
a(I7
I19
tp1775
asg51
I0
sba(iNavigator_0_0663
NODE
p1776
(dp1777
g43
(lp1778
I0
aI0
aI0
aI0
asg45
(lp1779
sg47
(lp1780
(I8
I21
tp1781
a(I6
I21
tp1782
a(I7
I22
tp1783
a(I7
I20
tp1784
asg51
I0
sba(iNavigator_0_0663
NODE
p1785
(dp1786
g43
(lp1787
I0
aI0
aI0
aI0
asg45
(lp1788
sg47
(lp1789
(I8
I22
tp1790
a(I6
I22
tp1791
a(I7
I23
tp1792
a(I7
I21
tp1793
asg51
I0
sba(iNavigator_0_0663
NODE
p1794
(dp1795
g43
(lp1796
I0
aI0
aI0
aI0
asg45
(lp1797
sg47
(lp1798
(I8
I23
tp1799
a(I6
I23
tp1800
a(I7
I24
tp1801
a(I7
I22
tp1802
asg51
I0
sba(iNavigator_0_0663
NODE
p1803
(dp1804
g43
(lp1805
I0
aI0
aI0
aI0
asg45
(lp1806
sg47
(lp1807
(I8
I24
tp1808
a(I6
I24
tp1809
a(I7
I23
tp1810
asg51
I0
sbaa(lp1811
(iNavigator_0_0663
NODE
p1812
(dp1813
g43
(lp1814
I0
aI0
aI0
aI0
asg45
(lp1815
sg47
(lp1816
(I9
I0
tp1817
a(I7
I0
tp1818
a(I8
I1
tp1819
asg51
I0
sba(iNavigator_0_0663
NODE
p1820
(dp1821
g43
(lp1822
I0
aI0
aI0
aI0
asg45
(lp1823
sg47
(lp1824
(I9
I1
tp1825
a(I7
I1
tp1826
a(I8
I2
tp1827
a(I8
I0
tp1828
asg51
I0
sba(iNavigator_0_0663
NODE
p1829
(dp1830
g43
(lp1831
I0
aI0
aI0
aI0
asg45
(lp1832
sg47
(lp1833
(I9
I2
tp1834
a(I7
I2
tp1835
a(I8
I3
tp1836
a(I8
I1
tp1837
asg51
I0
sba(iNavigator_0_0663
NODE
p1838
(dp1839
g43
(lp1840
I0
aI0
aI0
aI0
asg45
(lp1841
sg47
(lp1842
(I9
I3
tp1843
a(I7
I3
tp1844
a(I8
I4
tp1845
a(I8
I2
tp1846
asg51
I0
sba(iNavigator_0_0663
NODE
p1847
(dp1848
g43
(lp1849
I0
aI0
aI0
aI0
asg45
(lp1850
sg47
(lp1851
(I9
I4
tp1852
a(I7
I4
tp1853
a(I8
I5
tp1854
a(I8
I3
tp1855
asg51
I0
sba(iNavigator_0_0663
NODE
p1856
(dp1857
g43
(lp1858
I0
aI0
aI0
aI0
asg45
(lp1859
sg47
(lp1860
(I9
I5
tp1861
a(I7
I5
tp1862
a(I8
I6
tp1863
a(I8
I4
tp1864
asg51
I0
sba(iNavigator_0_0663
NODE
p1865
(dp1866
g43
(lp1867
I0
aI0
aI0
aI0
asg45
(lp1868
sg47
(lp1869
(I9
I6
tp1870
a(I7
I6
tp1871
a(I8
I7
tp1872
a(I8
I5
tp1873
asg51
I0
sba(iNavigator_0_0663
NODE
p1874
(dp1875
g43
(lp1876
I0
aI0
aI0
aI0
asg45
(lp1877
sg47
(lp1878
(I9
I7
tp1879
a(I7
I7
tp1880
a(I8
I8
tp1881
a(I8
I6
tp1882
asg51
I0
sba(iNavigator_0_0663
NODE
p1883
(dp1884
g43
(lp1885
I0
aI0
aI0
aI0
asg45
(lp1886
sg47
(lp1887
(I9
I8
tp1888
a(I7
I8
tp1889
a(I8
I9
tp1890
a(I8
I7
tp1891
asg51
I0
sba(iNavigator_0_0663
NODE
p1892
(dp1893
g43
(lp1894
I0
aI0
aI0
aI0
asg45
(lp1895
sg47
(lp1896
(I9
I9
tp1897
a(I7
I9
tp1898
a(I8
I10
tp1899
a(I8
I8
tp1900
asg51
I0
sba(iNavigator_0_0663
NODE
p1901
(dp1902
g43
(lp1903
I0
aI0
aI0
aI0
asg45
(lp1904
sg47
(lp1905
(I9
I10
tp1906
a(I7
I10
tp1907
a(I8
I11
tp1908
a(I8
I9
tp1909
asg51
I0
sba(iNavigator_0_0663
NODE
p1910
(dp1911
g43
(lp1912
I0
aI0
aI0
aI0
asg45
(lp1913
sg47
(lp1914
(I9
I11
tp1915
a(I7
I11
tp1916
a(I8
I12
tp1917
a(I8
I10
tp1918
asg51
I0
sba(iNavigator_0_0663
NODE
p1919
(dp1920
g43
(lp1921
I0
aI0
aI0
aI0
asg45
(lp1922
sg47
(lp1923
(I9
I12
tp1924
a(I7
I12
tp1925
a(I8
I13
tp1926
a(I8
I11
tp1927
asg51
I0
sba(iNavigator_0_0663
NODE
p1928
(dp1929
g43
(lp1930
I0
aI0
aI0
aI0
asg45
(lp1931
sg47
(lp1932
(I9
I13
tp1933
a(I7
I13
tp1934
a(I8
I14
tp1935
a(I8
I12
tp1936
asg51
I0
sba(iNavigator_0_0663
NODE
p1937
(dp1938
g43
(lp1939
I0
aI0
aI0
aI0
asg45
(lp1940
sg47
(lp1941
(I9
I14
tp1942
a(I7
I14
tp1943
a(I8
I15
tp1944
a(I8
I13
tp1945
asg51
I0
sba(iNavigator_0_0663
NODE
p1946
(dp1947
g43
(lp1948
I0
aI0
aI0
aI0
asg45
(lp1949
sg47
(lp1950
(I9
I15
tp1951
a(I7
I15
tp1952
a(I8
I16
tp1953
a(I8
I14
tp1954
asg51
I0
sba(iNavigator_0_0663
NODE
p1955
(dp1956
g43
(lp1957
I0
aI0
aI0
aI0
asg45
(lp1958
sg47
(lp1959
(I9
I16
tp1960
a(I7
I16
tp1961
a(I8
I17
tp1962
a(I8
I15
tp1963
asg51
I0
sba(iNavigator_0_0663
NODE
p1964
(dp1965
g43
(lp1966
I0
aI0
aI0
aI0
asg45
(lp1967
sg47
(lp1968
(I9
I17
tp1969
a(I7
I17
tp1970
a(I8
I18
tp1971
a(I8
I16
tp1972
asg51
I0
sba(iNavigator_0_0663
NODE
p1973
(dp1974
g43
(lp1975
I0
aI0
aI0
aI0
asg45
(lp1976
sg47
(lp1977
(I9
I18
tp1978
a(I7
I18
tp1979
a(I8
I19
tp1980
a(I8
I17
tp1981
asg51
I0
sba(iNavigator_0_0663
NODE
p1982
(dp1983
g43
(lp1984
I0
aI0
aI0
aI0
asg45
(lp1985
sg47
(lp1986
(I9
I19
tp1987
a(I7
I19
tp1988
a(I8
I20
tp1989
a(I8
I18
tp1990
asg51
I0
sba(iNavigator_0_0663
NODE
p1991
(dp1992
g43
(lp1993
I0
aI0
aI0
aI0
asg45
(lp1994
sg47
(lp1995
(I9
I20
tp1996
a(I7
I20
tp1997
a(I8
I21
tp1998
a(I8
I19
tp1999
asg51
I0
sba(iNavigator_0_0663
NODE
p2000
(dp2001
g43
(lp2002
I0
aI0
aI0
aI0
asg45
(lp2003
sg47
(lp2004
(I9
I21
tp2005
a(I7
I21
tp2006
a(I8
I22
tp2007
a(I8
I20
tp2008
asg51
I0
sba(iNavigator_0_0663
NODE
p2009
(dp2010
g43
(lp2011
I0
aI0
aI0
aI0
asg45
(lp2012
sg47
(lp2013
(I9
I22
tp2014
a(I7
I22
tp2015
a(I8
I23
tp2016
a(I8
I21
tp2017
asg51
I0
sba(iNavigator_0_0663
NODE
p2018
(dp2019
g43
(lp2020
I0
aI0
aI0
aI0
asg45
(lp2021
sg47
(lp2022
(I9
I23
tp2023
a(I7
I23
tp2024
a(I8
I24
tp2025
a(I8
I22
tp2026
asg51
I0
sba(iNavigator_0_0663
NODE
p2027
(dp2028
g43
(lp2029
I0
aI0
aI0
aI0
asg45
(lp2030
sg47
(lp2031
(I9
I24
tp2032
a(I7
I24
tp2033
a(I8
I23
tp2034
asg51
I0
sbaa(lp2035
(iNavigator_0_0663
NODE
p2036
(dp2037
g43
(lp2038
I0
aI0
aI0
aI0
asg45
(lp2039
sg47
(lp2040
(I10
I0
tp2041
a(I8
I0
tp2042
a(I9
I1
tp2043
asg51
I0
sba(iNavigator_0_0663
NODE
p2044
(dp2045
g43
(lp2046
I0
aI0
aI0
aI0
asg45
(lp2047
sg47
(lp2048
(I10
I1
tp2049
a(I8
I1
tp2050
a(I9
I2
tp2051
a(I9
I0
tp2052
asg51
I0
sba(iNavigator_0_0663
NODE
p2053
(dp2054
g43
(lp2055
I0
aI0
aI0
aI0
asg45
(lp2056
sg47
(lp2057
(I10
I2
tp2058
a(I8
I2
tp2059
a(I9
I3
tp2060
a(I9
I1
tp2061
asg51
I0
sba(iNavigator_0_0663
NODE
p2062
(dp2063
g43
(lp2064
I0
aI0
aI0
aI0
asg45
(lp2065
sg47
(lp2066
(I10
I3
tp2067
a(I8
I3
tp2068
a(I9
I4
tp2069
a(I9
I2
tp2070
asg51
I0
sba(iNavigator_0_0663
NODE
p2071
(dp2072
g43
(lp2073
I0
aI0
aI0
aI0
asg45
(lp2074
sg47
(lp2075
(I10
I4
tp2076
a(I8
I4
tp2077
a(I9
I5
tp2078
a(I9
I3
tp2079
asg51
I0
sba(iNavigator_0_0663
NODE
p2080
(dp2081
g43
(lp2082
I0
aI0
aI0
aI0
asg45
(lp2083
sg47
(lp2084
(I10
I5
tp2085
a(I8
I5
tp2086
a(I9
I6
tp2087
a(I9
I4
tp2088
asg51
I0
sba(iNavigator_0_0663
NODE
p2089
(dp2090
g43
(lp2091
I0
aI0
aI0
aI0
asg45
(lp2092
sg47
(lp2093
(I10
I6
tp2094
a(I8
I6
tp2095
a(I9
I7
tp2096
a(I9
I5
tp2097
asg51
I0
sba(iNavigator_0_0663
NODE
p2098
(dp2099
g43
(lp2100
I0
aI0
aI0
aI0
asg45
(lp2101
sg47
(lp2102
(I10
I7
tp2103
a(I8
I7
tp2104
a(I9
I8
tp2105
a(I9
I6
tp2106
asg51
I0
sba(iNavigator_0_0663
NODE
p2107
(dp2108
g43
(lp2109
I0
aI0
aI0
aI0
asg45
(lp2110
sg47
(lp2111
(I10
I8
tp2112
a(I8
I8
tp2113
a(I9
I9
tp2114
a(I9
I7
tp2115
asg51
I0
sba(iNavigator_0_0663
NODE
p2116
(dp2117
g43
(lp2118
I0
aI0
aI0
aI0
asg45
(lp2119
sg47
(lp2120
(I10
I9
tp2121
a(I8
I9
tp2122
a(I9
I10
tp2123
a(I9
I8
tp2124
asg51
I0
sba(iNavigator_0_0663
NODE
p2125
(dp2126
g43
(lp2127
I0
aI0
aI0
aI0
asg45
(lp2128
sg47
(lp2129
(I10
I10
tp2130
a(I8
I10
tp2131
a(I9
I11
tp2132
a(I9
I9
tp2133
asg51
I0
sba(iNavigator_0_0663
NODE
p2134
(dp2135
g43
(lp2136
I0
aI0
aI0
aI0
asg45
(lp2137
sg47
(lp2138
(I10
I11
tp2139
a(I8
I11
tp2140
a(I9
I12
tp2141
a(I9
I10
tp2142
asg51
I0
sba(iNavigator_0_0663
NODE
p2143
(dp2144
g43
(lp2145
I0
aI0
aI0
aI0
asg45
(lp2146
sg47
(lp2147
(I10
I12
tp2148
a(I8
I12
tp2149
a(I9
I13
tp2150
a(I9
I11
tp2151
asg51
I0
sba(iNavigator_0_0663
NODE
p2152
(dp2153
g43
(lp2154
I0
aI0
aI0
aI0
asg45
(lp2155
sg47
(lp2156
(I10
I13
tp2157
a(I8
I13
tp2158
a(I9
I14
tp2159
a(I9
I12
tp2160
asg51
I0
sba(iNavigator_0_0663
NODE
p2161
(dp2162
g43
(lp2163
I0
aI0
aI0
aI0
asg45
(lp2164
sg47
(lp2165
(I10
I14
tp2166
a(I8
I14
tp2167
a(I9
I15
tp2168
a(I9
I13
tp2169
asg51
I0
sba(iNavigator_0_0663
NODE
p2170
(dp2171
g43
(lp2172
I0
aI0
aI0
aI0
asg45
(lp2173
sg47
(lp2174
(I10
I15
tp2175
a(I8
I15
tp2176
a(I9
I16
tp2177
a(I9
I14
tp2178
asg51
I0
sba(iNavigator_0_0663
NODE
p2179
(dp2180
g43
(lp2181
I0
aI0
aI0
aI0
asg45
(lp2182
sg47
(lp2183
(I10
I16
tp2184
a(I8
I16
tp2185
a(I9
I17
tp2186
a(I9
I15
tp2187
asg51
I0
sba(iNavigator_0_0663
NODE
p2188
(dp2189
g43
(lp2190
I0
aI0
aI0
aI0
asg45
(lp2191
sg47
(lp2192
(I10
I17
tp2193
a(I8
I17
tp2194
a(I9
I18
tp2195
a(I9
I16
tp2196
asg51
I0
sba(iNavigator_0_0663
NODE
p2197
(dp2198
g43
(lp2199
I0
aI0
aI0
aI0
asg45
(lp2200
sg47
(lp2201
(I10
I18
tp2202
a(I8
I18
tp2203
a(I9
I19
tp2204
a(I9
I17
tp2205
asg51
I0
sba(iNavigator_0_0663
NODE
p2206
(dp2207
g43
(lp2208
I0
aI0
aI0
aI0
asg45
(lp2209
sg47
(lp2210
(I10
I19
tp2211
a(I8
I19
tp2212
a(I9
I20
tp2213
a(I9
I18
tp2214
asg51
I0
sba(iNavigator_0_0663
NODE
p2215
(dp2216
g43
(lp2217
I0
aI0
aI0
aI0
asg45
(lp2218
sg47
(lp2219
(I10
I20
tp2220
a(I8
I20
tp2221
a(I9
I21
tp2222
a(I9
I19
tp2223
asg51
I0
sba(iNavigator_0_0663
NODE
p2224
(dp2225
g43
(lp2226
I0
aI0
aI0
aI0
asg45
(lp2227
sg47
(lp2228
(I10
I21
tp2229
a(I8
I21
tp2230
a(I9
I22
tp2231
a(I9
I20
tp2232
asg51
I0
sba(iNavigator_0_0663
NODE
p2233
(dp2234
g43
(lp2235
I0
aI0
aI0
aI0
asg45
(lp2236
sg47
(lp2237
(I10
I22
tp2238
a(I8
I22
tp2239
a(I9
I23
tp2240
a(I9
I21
tp2241
asg51
I0
sba(iNavigator_0_0663
NODE
p2242
(dp2243
g43
(lp2244
I0
aI0
aI0
aI0
asg45
(lp2245
sg47
(lp2246
(I10
I23
tp2247
a(I8
I23
tp2248
a(I9
I24
tp2249
a(I9
I22
tp2250
asg51
I0
sba(iNavigator_0_0663
NODE
p2251
(dp2252
g43
(lp2253
I0
aI0
aI0
aI0
asg45
(lp2254
sg47
(lp2255
(I10
I24
tp2256
a(I8
I24
tp2257
a(I9
I23
tp2258
asg51
I0
sbaa(lp2259
(iNavigator_0_0663
NODE
p2260
(dp2261
g43
(lp2262
I0
aI0
aI0
aI0
asg45
(lp2263
sg47
(lp2264
(I11
I0
tp2265
a(I9
I0
tp2266
a(I10
I1
tp2267
asg51
I0
sba(iNavigator_0_0663
NODE
p2268
(dp2269
g43
(lp2270
I0
aI0
aI0
aI0
asg45
(lp2271
sg47
(lp2272
(I11
I1
tp2273
a(I9
I1
tp2274
a(I10
I2
tp2275
a(I10
I0
tp2276
asg51
I0
sba(iNavigator_0_0663
NODE
p2277
(dp2278
g43
(lp2279
I0
aI0
aI0
aI0
asg45
(lp2280
sg47
(lp2281
(I11
I2
tp2282
a(I9
I2
tp2283
a(I10
I3
tp2284
a(I10
I1
tp2285
asg51
I0
sba(iNavigator_0_0663
NODE
p2286
(dp2287
g43
(lp2288
I0
aI0
aI0
aI0
asg45
(lp2289
sg47
(lp2290
(I11
I3
tp2291
a(I9
I3
tp2292
a(I10
I4
tp2293
a(I10
I2
tp2294
asg51
I0
sba(iNavigator_0_0663
NODE
p2295
(dp2296
g43
(lp2297
I0
aI0
aI0
aI0
asg45
(lp2298
sg47
(lp2299
(I11
I4
tp2300
a(I9
I4
tp2301
a(I10
I5
tp2302
a(I10
I3
tp2303
asg51
I0
sba(iNavigator_0_0663
NODE
p2304
(dp2305
g43
(lp2306
I0
aI0
aI0
aI0
asg45
(lp2307
sg47
(lp2308
(I11
I5
tp2309
a(I9
I5
tp2310
a(I10
I6
tp2311
a(I10
I4
tp2312
asg51
I0
sba(iNavigator_0_0663
NODE
p2313
(dp2314
g43
(lp2315
I0
aI0
aI0
aI0
asg45
(lp2316
sg47
(lp2317
(I11
I6
tp2318
a(I9
I6
tp2319
a(I10
I7
tp2320
a(I10
I5
tp2321
asg51
I0
sba(iNavigator_0_0663
NODE
p2322
(dp2323
g43
(lp2324
I0
aI0
aI0
aI0
asg45
(lp2325
sg47
(lp2326
(I11
I7
tp2327
a(I9
I7
tp2328
a(I10
I8
tp2329
a(I10
I6
tp2330
asg51
I0
sba(iNavigator_0_0663
NODE
p2331
(dp2332
g43
(lp2333
I0
aI0
aI0
aI0
asg45
(lp2334
sg47
(lp2335
(I11
I8
tp2336
a(I9
I8
tp2337
a(I10
I9
tp2338
a(I10
I7
tp2339
asg51
I0
sba(iNavigator_0_0663
NODE
p2340
(dp2341
g43
(lp2342
I0
aI0
aI0
aI0
asg45
(lp2343
sg47
(lp2344
(I11
I9
tp2345
a(I9
I9
tp2346
a(I10
I10
tp2347
a(I10
I8
tp2348
asg51
I0
sba(iNavigator_0_0663
NODE
p2349
(dp2350
g43
(lp2351
I0
aI0
aI0
aI0
asg45
(lp2352
sg47
(lp2353
(I11
I10
tp2354
a(I9
I10
tp2355
a(I10
I11
tp2356
a(I10
I9
tp2357
asg51
I0
sba(iNavigator_0_0663
NODE
p2358
(dp2359
g43
(lp2360
I0
aI0
aI0
aI0
asg45
(lp2361
sg47
(lp2362
(I11
I11
tp2363
a(I9
I11
tp2364
a(I10
I12
tp2365
a(I10
I10
tp2366
asg51
I0
sba(iNavigator_0_0663
NODE
p2367
(dp2368
g43
(lp2369
I0
aI0
aI0
aI0
asg45
(lp2370
sg47
(lp2371
(I11
I12
tp2372
a(I9
I12
tp2373
a(I10
I13
tp2374
a(I10
I11
tp2375
asg51
I0
sba(iNavigator_0_0663
NODE
p2376
(dp2377
g43
(lp2378
I0
aI0
aI0
aI0
asg45
(lp2379
sg47
(lp2380
(I11
I13
tp2381
a(I9
I13
tp2382
a(I10
I14
tp2383
a(I10
I12
tp2384
asg51
I0
sba(iNavigator_0_0663
NODE
p2385
(dp2386
g43
(lp2387
I0
aI0
aI0
aI0
asg45
(lp2388
sg47
(lp2389
(I11
I14
tp2390
a(I9
I14
tp2391
a(I10
I15
tp2392
a(I10
I13
tp2393
asg51
I0
sba(iNavigator_0_0663
NODE
p2394
(dp2395
g43
(lp2396
I0
aI0
aI0
aI0
asg45
(lp2397
sg47
(lp2398
(I11
I15
tp2399
a(I9
I15
tp2400
a(I10
I16
tp2401
a(I10
I14
tp2402
asg51
I0
sba(iNavigator_0_0663
NODE
p2403
(dp2404
g43
(lp2405
I0
aI0
aI0
aI0
asg45
(lp2406
sg47
(lp2407
(I11
I16
tp2408
a(I9
I16
tp2409
a(I10
I17
tp2410
a(I10
I15
tp2411
asg51
I0
sba(iNavigator_0_0663
NODE
p2412
(dp2413
g43
(lp2414
I0
aI0
aI0
aI0
asg45
(lp2415
sg47
(lp2416
(I11
I17
tp2417
a(I9
I17
tp2418
a(I10
I18
tp2419
a(I10
I16
tp2420
asg51
I0
sba(iNavigator_0_0663
NODE
p2421
(dp2422
g43
(lp2423
I0
aI0
aI0
aI0
asg45
(lp2424
sg47
(lp2425
(I11
I18
tp2426
a(I9
I18
tp2427
a(I10
I19
tp2428
a(I10
I17
tp2429
asg51
I0
sba(iNavigator_0_0663
NODE
p2430
(dp2431
g43
(lp2432
I0
aI0
aI0
aI0
asg45
(lp2433
sg47
(lp2434
(I11
I19
tp2435
a(I9
I19
tp2436
a(I10
I20
tp2437
a(I10
I18
tp2438
asg51
I0
sba(iNavigator_0_0663
NODE
p2439
(dp2440
g43
(lp2441
I0
aI0
aI0
aI0
asg45
(lp2442
sg47
(lp2443
(I11
I20
tp2444
a(I9
I20
tp2445
a(I10
I21
tp2446
a(I10
I19
tp2447
asg51
I0
sba(iNavigator_0_0663
NODE
p2448
(dp2449
g43
(lp2450
I0
aI0
aI0
aI0
asg45
(lp2451
sg47
(lp2452
(I11
I21
tp2453
a(I9
I21
tp2454
a(I10
I22
tp2455
a(I10
I20
tp2456
asg51
I0
sba(iNavigator_0_0663
NODE
p2457
(dp2458
g43
(lp2459
I0
aI0
aI0
aI0
asg45
(lp2460
sg47
(lp2461
(I11
I22
tp2462
a(I9
I22
tp2463
a(I10
I23
tp2464
a(I10
I21
tp2465
asg51
I0
sba(iNavigator_0_0663
NODE
p2466
(dp2467
g43
(lp2468
I0
aI0
aI0
aI0
asg45
(lp2469
sg47
(lp2470
(I11
I23
tp2471
a(I9
I23
tp2472
a(I10
I24
tp2473
a(I10
I22
tp2474
asg51
I0
sba(iNavigator_0_0663
NODE
p2475
(dp2476
g43
(lp2477
I0
aI0
aI0
aI0
asg45
(lp2478
sg47
(lp2479
(I11
I24
tp2480
a(I9
I24
tp2481
a(I10
I23
tp2482
asg51
I0
sbaa(lp2483
(iNavigator_0_0663
NODE
p2484
(dp2485
g43
(lp2486
I0
aI0
aI0
aI0
asg45
(lp2487
sg47
(lp2488
(I12
I0
tp2489
a(I10
I0
tp2490
a(I11
I1
tp2491
asg51
I0
sba(iNavigator_0_0663
NODE
p2492
(dp2493
g43
(lp2494
I0
aI0
aI0
aI0
asg45
(lp2495
sg47
(lp2496
(I12
I1
tp2497
a(I10
I1
tp2498
a(I11
I2
tp2499
a(I11
I0
tp2500
asg51
I0
sba(iNavigator_0_0663
NODE
p2501
(dp2502
g43
(lp2503
I0
aI0
aI0
aI0
asg45
(lp2504
sg47
(lp2505
(I12
I2
tp2506
a(I10
I2
tp2507
a(I11
I3
tp2508
a(I11
I1
tp2509
asg51
I0
sba(iNavigator_0_0663
NODE
p2510
(dp2511
g43
(lp2512
I0
aI0
aI0
aI0
asg45
(lp2513
sg47
(lp2514
(I12
I3
tp2515
a(I10
I3
tp2516
a(I11
I4
tp2517
a(I11
I2
tp2518
asg51
I0
sba(iNavigator_0_0663
NODE
p2519
(dp2520
g43
(lp2521
I0
aI0
aI0
aI0
asg45
(lp2522
sg47
(lp2523
(I12
I4
tp2524
a(I10
I4
tp2525
a(I11
I5
tp2526
a(I11
I3
tp2527
asg51
I0
sba(iNavigator_0_0663
NODE
p2528
(dp2529
g43
(lp2530
I0
aI0
aI0
aI0
asg45
(lp2531
sg47
(lp2532
(I12
I5
tp2533
a(I10
I5
tp2534
a(I11
I6
tp2535
a(I11
I4
tp2536
asg51
I0
sba(iNavigator_0_0663
NODE
p2537
(dp2538
g43
(lp2539
I0
aI0
aI0
aI0
asg45
(lp2540
sg47
(lp2541
(I12
I6
tp2542
a(I10
I6
tp2543
a(I11
I7
tp2544
a(I11
I5
tp2545
asg51
I0
sba(iNavigator_0_0663
NODE
p2546
(dp2547
g43
(lp2548
I0
aI0
aI0
aI0
asg45
(lp2549
sg47
(lp2550
(I12
I7
tp2551
a(I10
I7
tp2552
a(I11
I8
tp2553
a(I11
I6
tp2554
asg51
I0
sba(iNavigator_0_0663
NODE
p2555
(dp2556
g43
(lp2557
I0
aI0
aI0
aI0
asg45
(lp2558
sg47
(lp2559
(I12
I8
tp2560
a(I10
I8
tp2561
a(I11
I9
tp2562
a(I11
I7
tp2563
asg51
I0
sba(iNavigator_0_0663
NODE
p2564
(dp2565
g43
(lp2566
I0
aI0
aI0
aI0
asg45
(lp2567
sg47
(lp2568
(I12
I9
tp2569
a(I10
I9
tp2570
a(I11
I10
tp2571
a(I11
I8
tp2572
asg51
I0
sba(iNavigator_0_0663
NODE
p2573
(dp2574
g43
(lp2575
I0
aI0
aI0
aI0
asg45
(lp2576
sg47
(lp2577
(I12
I10
tp2578
a(I10
I10
tp2579
a(I11
I11
tp2580
a(I11
I9
tp2581
asg51
I0
sba(iNavigator_0_0663
NODE
p2582
(dp2583
g43
(lp2584
I0
aI0
aI0
aI0
asg45
(lp2585
sg47
(lp2586
(I12
I11
tp2587
a(I10
I11
tp2588
a(I11
I12
tp2589
a(I11
I10
tp2590
asg51
I0
sba(iNavigator_0_0663
NODE
p2591
(dp2592
g43
(lp2593
I0
aI0
aI0
aI0
asg45
(lp2594
sg47
(lp2595
(I12
I12
tp2596
a(I10
I12
tp2597
a(I11
I13
tp2598
a(I11
I11
tp2599
asg51
I0
sba(iNavigator_0_0663
NODE
p2600
(dp2601
g43
(lp2602
I0
aI0
aI0
aI0
asg45
(lp2603
sg47
(lp2604
(I12
I13
tp2605
a(I10
I13
tp2606
a(I11
I14
tp2607
a(I11
I12
tp2608
asg51
I0
sba(iNavigator_0_0663
NODE
p2609
(dp2610
g43
(lp2611
I0
aI0
aI0
aI0
asg45
(lp2612
sg47
(lp2613
(I12
I14
tp2614
a(I10
I14
tp2615
a(I11
I15
tp2616
a(I11
I13
tp2617
asg51
I0
sba(iNavigator_0_0663
NODE
p2618
(dp2619
g43
(lp2620
I0
aI0
aI0
aI0
asg45
(lp2621
sg47
(lp2622
(I12
I15
tp2623
a(I10
I15
tp2624
a(I11
I16
tp2625
a(I11
I14
tp2626
asg51
I0
sba(iNavigator_0_0663
NODE
p2627
(dp2628
g43
(lp2629
I0
aI0
aI0
aI0
asg45
(lp2630
sg47
(lp2631
(I12
I16
tp2632
a(I10
I16
tp2633
a(I11
I17
tp2634
a(I11
I15
tp2635
asg51
I0
sba(iNavigator_0_0663
NODE
p2636
(dp2637
g43
(lp2638
I0
aI0
aI0
aI0
asg45
(lp2639
sg47
(lp2640
(I12
I17
tp2641
a(I10
I17
tp2642
a(I11
I18
tp2643
a(I11
I16
tp2644
asg51
I0
sba(iNavigator_0_0663
NODE
p2645
(dp2646
g43
(lp2647
I0
aI0
aI0
aI0
asg45
(lp2648
sg47
(lp2649
(I12
I18
tp2650
a(I10
I18
tp2651
a(I11
I19
tp2652
a(I11
I17
tp2653
asg51
I0
sba(iNavigator_0_0663
NODE
p2654
(dp2655
g43
(lp2656
I0
aI0
aI0
aI0
asg45
(lp2657
sg47
(lp2658
(I12
I19
tp2659
a(I10
I19
tp2660
a(I11
I20
tp2661
a(I11
I18
tp2662
asg51
I0
sba(iNavigator_0_0663
NODE
p2663
(dp2664
g43
(lp2665
I0
aI0
aI0
aI0
asg45
(lp2666
sg47
(lp2667
(I12
I20
tp2668
a(I10
I20
tp2669
a(I11
I21
tp2670
a(I11
I19
tp2671
asg51
I0
sba(iNavigator_0_0663
NODE
p2672
(dp2673
g43
(lp2674
I0
aI0
aI0
aI0
asg45
(lp2675
sg47
(lp2676
(I12
I21
tp2677
a(I10
I21
tp2678
a(I11
I22
tp2679
a(I11
I20
tp2680
asg51
I0
sba(iNavigator_0_0663
NODE
p2681
(dp2682
g43
(lp2683
I0
aI0
aI0
aI0
asg45
(lp2684
sg47
(lp2685
(I12
I22
tp2686
a(I10
I22
tp2687
a(I11
I23
tp2688
a(I11
I21
tp2689
asg51
I0
sba(iNavigator_0_0663
NODE
p2690
(dp2691
g43
(lp2692
I0
aI0
aI0
aI0
asg45
(lp2693
sg47
(lp2694
(I12
I23
tp2695
a(I10
I23
tp2696
a(I11
I24
tp2697
a(I11
I22
tp2698
asg51
I0
sba(iNavigator_0_0663
NODE
p2699
(dp2700
g43
(lp2701
I0
aI0
aI0
aI0
asg45
(lp2702
sg47
(lp2703
(I12
I24
tp2704
a(I10
I24
tp2705
a(I11
I23
tp2706
asg51
I0
sbaa(lp2707
(iNavigator_0_0663
NODE
p2708
(dp2709
g43
(lp2710
I0
aI0
aI0
aI0
asg45
(lp2711
sg47
(lp2712
(I13
I0
tp2713
a(I11
I0
tp2714
a(I12
I1
tp2715
asg51
I0
sba(iNavigator_0_0663
NODE
p2716
(dp2717
g43
(lp2718
I0
aI0
aI0
aI0
asg45
(lp2719
sg47
(lp2720
(I13
I1
tp2721
a(I11
I1
tp2722
a(I12
I2
tp2723
a(I12
I0
tp2724
asg51
I0
sba(iNavigator_0_0663
NODE
p2725
(dp2726
g43
(lp2727
I0
aI0
aI0
aI0
asg45
(lp2728
sg47
(lp2729
(I13
I2
tp2730
a(I11
I2
tp2731
a(I12
I3
tp2732
a(I12
I1
tp2733
asg51
I0
sba(iNavigator_0_0663
NODE
p2734
(dp2735
g43
(lp2736
I0
aI0
aI0
aI0
asg45
(lp2737
sg47
(lp2738
(I13
I3
tp2739
a(I11
I3
tp2740
a(I12
I4
tp2741
a(I12
I2
tp2742
asg51
I0
sba(iNavigator_0_0663
NODE
p2743
(dp2744
g43
(lp2745
I0
aI0
aI0
aI0
asg45
(lp2746
sg47
(lp2747
(I13
I4
tp2748
a(I11
I4
tp2749
a(I12
I5
tp2750
a(I12
I3
tp2751
asg51
I0
sba(iNavigator_0_0663
NODE
p2752
(dp2753
g43
(lp2754
I0
aI0
aI0
aI0
asg45
(lp2755
sg47
(lp2756
(I13
I5
tp2757
a(I11
I5
tp2758
a(I12
I6
tp2759
a(I12
I4
tp2760
asg51
I0
sba(iNavigator_0_0663
NODE
p2761
(dp2762
g43
(lp2763
I0
aI0
aI0
aI0
asg45
(lp2764
sg47
(lp2765
(I13
I6
tp2766
a(I11
I6
tp2767
a(I12
I7
tp2768
a(I12
I5
tp2769
asg51
I0
sba(iNavigator_0_0663
NODE
p2770
(dp2771
g43
(lp2772
I0
aI0
aI0
aI0
asg45
(lp2773
sg47
(lp2774
(I13
I7
tp2775
a(I11
I7
tp2776
a(I12
I8
tp2777
a(I12
I6
tp2778
asg51
I0
sba(iNavigator_0_0663
NODE
p2779
(dp2780
g43
(lp2781
I0
aI0
aI0
aI0
asg45
(lp2782
sg47
(lp2783
(I13
I8
tp2784
a(I11
I8
tp2785
a(I12
I9
tp2786
a(I12
I7
tp2787
asg51
I0
sba(iNavigator_0_0663
NODE
p2788
(dp2789
g43
(lp2790
I0
aI0
aI0
aI0
asg45
(lp2791
sg47
(lp2792
(I13
I9
tp2793
a(I11
I9
tp2794
a(I12
I10
tp2795
a(I12
I8
tp2796
asg51
I0
sba(iNavigator_0_0663
NODE
p2797
(dp2798
g43
(lp2799
I0
aI0
aI0
aI0
asg45
(lp2800
sg47
(lp2801
(I13
I10
tp2802
a(I11
I10
tp2803
a(I12
I11
tp2804
a(I12
I9
tp2805
asg51
I0
sba(iNavigator_0_0663
NODE
p2806
(dp2807
g43
(lp2808
I0
aI0
aI0
aI0
asg45
(lp2809
sg47
(lp2810
(I13
I11
tp2811
a(I11
I11
tp2812
a(I12
I12
tp2813
a(I12
I10
tp2814
asg51
I0
sba(iNavigator_0_0663
NODE
p2815
(dp2816
g43
(lp2817
I0
aI0
aI0
aI0
asg45
(lp2818
sg47
(lp2819
(I13
I12
tp2820
a(I11
I12
tp2821
a(I12
I13
tp2822
a(I12
I11
tp2823
asg51
I0
sba(iNavigator_0_0663
NODE
p2824
(dp2825
g43
(lp2826
I0
aI0
aI0
aI0
asg45
(lp2827
sg47
(lp2828
(I13
I13
tp2829
a(I11
I13
tp2830
a(I12
I14
tp2831
a(I12
I12
tp2832
asg51
I0
sba(iNavigator_0_0663
NODE
p2833
(dp2834
g43
(lp2835
I0
aI0
aI0
aI0
asg45
(lp2836
sg47
(lp2837
(I13
I14
tp2838
a(I11
I14
tp2839
a(I12
I15
tp2840
a(I12
I13
tp2841
asg51
I0
sba(iNavigator_0_0663
NODE
p2842
(dp2843
g43
(lp2844
I0
aI0
aI0
aI0
asg45
(lp2845
sg47
(lp2846
(I13
I15
tp2847
a(I11
I15
tp2848
a(I12
I16
tp2849
a(I12
I14
tp2850
asg51
I0
sba(iNavigator_0_0663
NODE
p2851
(dp2852
g43
(lp2853
I0
aI0
aI0
aI0
asg45
(lp2854
sg47
(lp2855
(I13
I16
tp2856
a(I11
I16
tp2857
a(I12
I17
tp2858
a(I12
I15
tp2859
asg51
I0
sba(iNavigator_0_0663
NODE
p2860
(dp2861
g43
(lp2862
I0
aI0
aI0
aI0
asg45
(lp2863
sg47
(lp2864
(I13
I17
tp2865
a(I11
I17
tp2866
a(I12
I18
tp2867
a(I12
I16
tp2868
asg51
I0
sba(iNavigator_0_0663
NODE
p2869
(dp2870
g43
(lp2871
I0
aI0
aI0
aI0
asg45
(lp2872
sg47
(lp2873
(I13
I18
tp2874
a(I11
I18
tp2875
a(I12
I19
tp2876
a(I12
I17
tp2877
asg51
I0
sba(iNavigator_0_0663
NODE
p2878
(dp2879
g43
(lp2880
I0
aI0
aI0
aI0
asg45
(lp2881
sg47
(lp2882
(I13
I19
tp2883
a(I11
I19
tp2884
a(I12
I20
tp2885
a(I12
I18
tp2886
asg51
I0
sba(iNavigator_0_0663
NODE
p2887
(dp2888
g43
(lp2889
I0
aI0
aI0
aI0
asg45
(lp2890
sg47
(lp2891
(I13
I20
tp2892
a(I11
I20
tp2893
a(I12
I21
tp2894
a(I12
I19
tp2895
asg51
I0
sba(iNavigator_0_0663
NODE
p2896
(dp2897
g43
(lp2898
I0
aI0
aI0
aI0
asg45
(lp2899
sg47
(lp2900
(I13
I21
tp2901
a(I11
I21
tp2902
a(I12
I22
tp2903
a(I12
I20
tp2904
asg51
I0
sba(iNavigator_0_0663
NODE
p2905
(dp2906
g43
(lp2907
I0
aI0
aI0
aI0
asg45
(lp2908
sg47
(lp2909
(I13
I22
tp2910
a(I11
I22
tp2911
a(I12
I23
tp2912
a(I12
I21
tp2913
asg51
I0
sba(iNavigator_0_0663
NODE
p2914
(dp2915
g43
(lp2916
I0
aI0
aI0
aI0
asg45
(lp2917
sg47
(lp2918
(I13
I23
tp2919
a(I11
I23
tp2920
a(I12
I24
tp2921
a(I12
I22
tp2922
asg51
I0
sba(iNavigator_0_0663
NODE
p2923
(dp2924
g43
(lp2925
I0
aI0
aI0
aI0
asg45
(lp2926
sg47
(lp2927
(I13
I24
tp2928
a(I11
I24
tp2929
a(I12
I23
tp2930
asg51
I0
sbaa(lp2931
(iNavigator_0_0663
NODE
p2932
(dp2933
g43
(lp2934
I0
aI0
aI0
aI0
asg45
(lp2935
sg47
(lp2936
(I14
I0
tp2937
a(I12
I0
tp2938
a(I13
I1
tp2939
asg51
I0
sba(iNavigator_0_0663
NODE
p2940
(dp2941
g43
(lp2942
I0
aI0
aI0
aI0
asg45
(lp2943
sg47
(lp2944
(I14
I1
tp2945
a(I12
I1
tp2946
a(I13
I2
tp2947
a(I13
I0
tp2948
asg51
I0
sba(iNavigator_0_0663
NODE
p2949
(dp2950
g43
(lp2951
I0
aI0
aI0
aI0
asg45
(lp2952
sg47
(lp2953
(I14
I2
tp2954
a(I12
I2
tp2955
a(I13
I3
tp2956
a(I13
I1
tp2957
asg51
I0
sba(iNavigator_0_0663
NODE
p2958
(dp2959
g43
(lp2960
I0
aI0
aI0
aI0
asg45
(lp2961
sg47
(lp2962
(I14
I3
tp2963
a(I12
I3
tp2964
a(I13
I4
tp2965
a(I13
I2
tp2966
asg51
I0
sba(iNavigator_0_0663
NODE
p2967
(dp2968
g43
(lp2969
I0
aI0
aI0
aI0
asg45
(lp2970
sg47
(lp2971
(I14
I4
tp2972
a(I12
I4
tp2973
a(I13
I5
tp2974
a(I13
I3
tp2975
asg51
I0
sba(iNavigator_0_0663
NODE
p2976
(dp2977
g43
(lp2978
I0
aI0
aI0
aI0
asg45
(lp2979
sg47
(lp2980
(I14
I5
tp2981
a(I12
I5
tp2982
a(I13
I6
tp2983
a(I13
I4
tp2984
asg51
I0
sba(iNavigator_0_0663
NODE
p2985
(dp2986
g43
(lp2987
I0
aI0
aI0
aI0
asg45
(lp2988
sg47
(lp2989
(I14
I6
tp2990
a(I12
I6
tp2991
a(I13
I7
tp2992
a(I13
I5
tp2993
asg51
I0
sba(iNavigator_0_0663
NODE
p2994
(dp2995
g43
(lp2996
I0
aI0
aI0
aI0
asg45
(lp2997
sg47
(lp2998
(I14
I7
tp2999
a(I12
I7
tp3000
a(I13
I8
tp3001
a(I13
I6
tp3002
asg51
I0
sba(iNavigator_0_0663
NODE
p3003
(dp3004
g43
(lp3005
I0
aI0
aI0
aI0
asg45
(lp3006
sg47
(lp3007
(I14
I8
tp3008
a(I12
I8
tp3009
a(I13
I9
tp3010
a(I13
I7
tp3011
asg51
I0
sba(iNavigator_0_0663
NODE
p3012
(dp3013
g43
(lp3014
I0
aI0
aI0
aI0
asg45
(lp3015
sg47
(lp3016
(I14
I9
tp3017
a(I12
I9
tp3018
a(I13
I10
tp3019
a(I13
I8
tp3020
asg51
I0
sba(iNavigator_0_0663
NODE
p3021
(dp3022
g43
(lp3023
I0
aI0
aI0
aI0
asg45
(lp3024
sg47
(lp3025
(I14
I10
tp3026
a(I12
I10
tp3027
a(I13
I11
tp3028
a(I13
I9
tp3029
asg51
I0
sba(iNavigator_0_0663
NODE
p3030
(dp3031
g43
(lp3032
I0
aI0
aI0
aI0
asg45
(lp3033
sg47
(lp3034
(I14
I11
tp3035
a(I12
I11
tp3036
a(I13
I12
tp3037
a(I13
I10
tp3038
asg51
I0
sba(iNavigator_0_0663
NODE
p3039
(dp3040
g43
(lp3041
I0
aI0
aI0
aI0
asg45
(lp3042
sg47
(lp3043
(I14
I12
tp3044
a(I12
I12
tp3045
a(I13
I13
tp3046
a(I13
I11
tp3047
asg51
I0
sba(iNavigator_0_0663
NODE
p3048
(dp3049
g43
(lp3050
I0
aI0
aI0
aI0
asg45
(lp3051
sg47
(lp3052
(I14
I13
tp3053
a(I12
I13
tp3054
a(I13
I14
tp3055
a(I13
I12
tp3056
asg51
I0
sba(iNavigator_0_0663
NODE
p3057
(dp3058
g43
(lp3059
I0
aI0
aI0
aI0
asg45
(lp3060
sg47
(lp3061
(I14
I14
tp3062
a(I12
I14
tp3063
a(I13
I15
tp3064
a(I13
I13
tp3065
asg51
I0
sba(iNavigator_0_0663
NODE
p3066
(dp3067
g43
(lp3068
I0
aI0
aI0
aI0
asg45
(lp3069
sg47
(lp3070
(I14
I15
tp3071
a(I12
I15
tp3072
a(I13
I16
tp3073
a(I13
I14
tp3074
asg51
I0
sba(iNavigator_0_0663
NODE
p3075
(dp3076
g43
(lp3077
I0
aI0
aI0
aI0
asg45
(lp3078
sg47
(lp3079
(I14
I16
tp3080
a(I12
I16
tp3081
a(I13
I17
tp3082
a(I13
I15
tp3083
asg51
I0
sba(iNavigator_0_0663
NODE
p3084
(dp3085
g43
(lp3086
I0
aI0
aI0
aI0
asg45
(lp3087
sg47
(lp3088
(I14
I17
tp3089
a(I12
I17
tp3090
a(I13
I18
tp3091
a(I13
I16
tp3092
asg51
I0
sba(iNavigator_0_0663
NODE
p3093
(dp3094
g43
(lp3095
I0
aI0
aI0
aI0
asg45
(lp3096
sg47
(lp3097
(I14
I18
tp3098
a(I12
I18
tp3099
a(I13
I19
tp3100
a(I13
I17
tp3101
asg51
I0
sba(iNavigator_0_0663
NODE
p3102
(dp3103
g43
(lp3104
I0
aI0
aI0
aI0
asg45
(lp3105
sg47
(lp3106
(I14
I19
tp3107
a(I12
I19
tp3108
a(I13
I20
tp3109
a(I13
I18
tp3110
asg51
I0
sba(iNavigator_0_0663
NODE
p3111
(dp3112
g43
(lp3113
I0
aI0
aI0
aI0
asg45
(lp3114
sg47
(lp3115
(I14
I20
tp3116
a(I12
I20
tp3117
a(I13
I21
tp3118
a(I13
I19
tp3119
asg51
I0
sba(iNavigator_0_0663
NODE
p3120
(dp3121
g43
(lp3122
I0
aI0
aI0
aI0
asg45
(lp3123
sg47
(lp3124
(I14
I21
tp3125
a(I12
I21
tp3126
a(I13
I22
tp3127
a(I13
I20
tp3128
asg51
I0
sba(iNavigator_0_0663
NODE
p3129
(dp3130
g43
(lp3131
I0
aI0
aI0
aI0
asg45
(lp3132
sg47
(lp3133
(I14
I22
tp3134
a(I12
I22
tp3135
a(I13
I23
tp3136
a(I13
I21
tp3137
asg51
I0
sba(iNavigator_0_0663
NODE
p3138
(dp3139
g43
(lp3140
I0
aI0
aI0
aI0
asg45
(lp3141
sg47
(lp3142
(I14
I23
tp3143
a(I12
I23
tp3144
a(I13
I24
tp3145
a(I13
I22
tp3146
asg51
I0
sba(iNavigator_0_0663
NODE
p3147
(dp3148
g43
(lp3149
I0
aI0
aI0
aI0
asg45
(lp3150
sg47
(lp3151
(I14
I24
tp3152
a(I12
I24
tp3153
a(I13
I23
tp3154
asg51
I0
sbaa(lp3155
(iNavigator_0_0663
NODE
p3156
(dp3157
g43
(lp3158
I0
aI0
aI0
aI0
asg45
(lp3159
sg47
(lp3160
(I15
I0
tp3161
a(I13
I0
tp3162
a(I14
I1
tp3163
asg51
I0
sba(iNavigator_0_0663
NODE
p3164
(dp3165
g43
(lp3166
I0
aI0
aI0
aI0
asg45
(lp3167
sg47
(lp3168
(I15
I1
tp3169
a(I13
I1
tp3170
a(I14
I2
tp3171
a(I14
I0
tp3172
asg51
I0
sba(iNavigator_0_0663
NODE
p3173
(dp3174
g43
(lp3175
I0
aI0
aI0
aI0
asg45
(lp3176
sg47
(lp3177
(I15
I2
tp3178
a(I13
I2
tp3179
a(I14
I3
tp3180
a(I14
I1
tp3181
asg51
I0
sba(iNavigator_0_0663
NODE
p3182
(dp3183
g43
(lp3184
I0
aI0
aI0
aI0
asg45
(lp3185
sg47
(lp3186
(I15
I3
tp3187
a(I13
I3
tp3188
a(I14
I4
tp3189
a(I14
I2
tp3190
asg51
I0
sba(iNavigator_0_0663
NODE
p3191
(dp3192
g43
(lp3193
I0
aI0
aI0
aI0
asg45
(lp3194
sg47
(lp3195
(I15
I4
tp3196
a(I13
I4
tp3197
a(I14
I5
tp3198
a(I14
I3
tp3199
asg51
I0
sba(iNavigator_0_0663
NODE
p3200
(dp3201
g43
(lp3202
I0
aI0
aI0
aI0
asg45
(lp3203
sg47
(lp3204
(I15
I5
tp3205
a(I13
I5
tp3206
a(I14
I6
tp3207
a(I14
I4
tp3208
asg51
I0
sba(iNavigator_0_0663
NODE
p3209
(dp3210
g43
(lp3211
I0
aI0
aI0
aI0
asg45
(lp3212
sg47
(lp3213
(I15
I6
tp3214
a(I13
I6
tp3215
a(I14
I7
tp3216
a(I14
I5
tp3217
asg51
I0
sba(iNavigator_0_0663
NODE
p3218
(dp3219
g43
(lp3220
I0
aI0
aI0
aI0
asg45
(lp3221
sg47
(lp3222
(I15
I7
tp3223
a(I13
I7
tp3224
a(I14
I8
tp3225
a(I14
I6
tp3226
asg51
I0
sba(iNavigator_0_0663
NODE
p3227
(dp3228
g43
(lp3229
I0
aI0
aI0
aI0
asg45
(lp3230
sg47
(lp3231
(I15
I8
tp3232
a(I13
I8
tp3233
a(I14
I9
tp3234
a(I14
I7
tp3235
asg51
I0
sba(iNavigator_0_0663
NODE
p3236
(dp3237
g43
(lp3238
I0
aI0
aI0
aI0
asg45
(lp3239
sg47
(lp3240
(I15
I9
tp3241
a(I13
I9
tp3242
a(I14
I10
tp3243
a(I14
I8
tp3244
asg51
I0
sba(iNavigator_0_0663
NODE
p3245
(dp3246
g43
(lp3247
I0
aI0
aI0
aI0
asg45
(lp3248
sg47
(lp3249
(I15
I10
tp3250
a(I13
I10
tp3251
a(I14
I11
tp3252
a(I14
I9
tp3253
asg51
I0
sba(iNavigator_0_0663
NODE
p3254
(dp3255
g43
(lp3256
I0
aI0
aI0
aI0
asg45
(lp3257
sg47
(lp3258
(I15
I11
tp3259
a(I13
I11
tp3260
a(I14
I12
tp3261
a(I14
I10
tp3262
asg51
I0
sba(iNavigator_0_0663
NODE
p3263
(dp3264
g43
(lp3265
I0
aI0
aI0
aI0
asg45
(lp3266
sg47
(lp3267
(I15
I12
tp3268
a(I13
I12
tp3269
a(I14
I13
tp3270
a(I14
I11
tp3271
asg51
I0
sba(iNavigator_0_0663
NODE
p3272
(dp3273
g43
(lp3274
I0
aI0
aI0
aI0
asg45
(lp3275
sg47
(lp3276
(I15
I13
tp3277
a(I13
I13
tp3278
a(I14
I14
tp3279
a(I14
I12
tp3280
asg51
I0
sba(iNavigator_0_0663
NODE
p3281
(dp3282
g43
(lp3283
I0
aI0
aI0
aI0
asg45
(lp3284
sg47
(lp3285
(I15
I14
tp3286
a(I13
I14
tp3287
a(I14
I15
tp3288
a(I14
I13
tp3289
asg51
I0
sba(iNavigator_0_0663
NODE
p3290
(dp3291
g43
(lp3292
I0
aI0
aI0
aI0
asg45
(lp3293
sg47
(lp3294
(I15
I15
tp3295
a(I13
I15
tp3296
a(I14
I16
tp3297
a(I14
I14
tp3298
asg51
I0
sba(iNavigator_0_0663
NODE
p3299
(dp3300
g43
(lp3301
I0
aI0
aI0
aI0
asg45
(lp3302
sg47
(lp3303
(I15
I16
tp3304
a(I13
I16
tp3305
a(I14
I17
tp3306
a(I14
I15
tp3307
asg51
I0
sba(iNavigator_0_0663
NODE
p3308
(dp3309
g43
(lp3310
I0
aI0
aI0
aI0
asg45
(lp3311
sg47
(lp3312
(I15
I17
tp3313
a(I13
I17
tp3314
a(I14
I18
tp3315
a(I14
I16
tp3316
asg51
I0
sba(iNavigator_0_0663
NODE
p3317
(dp3318
g43
(lp3319
I0
aI0
aI0
aI0
asg45
(lp3320
sg47
(lp3321
(I15
I18
tp3322
a(I13
I18
tp3323
a(I14
I19
tp3324
a(I14
I17
tp3325
asg51
I0
sba(iNavigator_0_0663
NODE
p3326
(dp3327
g43
(lp3328
I0
aI0
aI0
aI0
asg45
(lp3329
sg47
(lp3330
(I15
I19
tp3331
a(I13
I19
tp3332
a(I14
I20
tp3333
a(I14
I18
tp3334
asg51
I0
sba(iNavigator_0_0663
NODE
p3335
(dp3336
g43
(lp3337
I0
aI0
aI0
aI0
asg45
(lp3338
sg47
(lp3339
(I15
I20
tp3340
a(I13
I20
tp3341
a(I14
I21
tp3342
a(I14
I19
tp3343
asg51
I0
sba(iNavigator_0_0663
NODE
p3344
(dp3345
g43
(lp3346
I0
aI0
aI0
aI0
asg45
(lp3347
sg47
(lp3348
(I15
I21
tp3349
a(I13
I21
tp3350
a(I14
I22
tp3351
a(I14
I20
tp3352
asg51
I0
sba(iNavigator_0_0663
NODE
p3353
(dp3354
g43
(lp3355
I0
aI0
aI0
aI0
asg45
(lp3356
sg47
(lp3357
(I15
I22
tp3358
a(I13
I22
tp3359
a(I14
I23
tp3360
a(I14
I21
tp3361
asg51
I0
sba(iNavigator_0_0663
NODE
p3362
(dp3363
g43
(lp3364
I0
aI0
aI0
aI0
asg45
(lp3365
sg47
(lp3366
(I15
I23
tp3367
a(I13
I23
tp3368
a(I14
I24
tp3369
a(I14
I22
tp3370
asg51
I0
sba(iNavigator_0_0663
NODE
p3371
(dp3372
g43
(lp3373
I0
aI0
aI0
aI0
asg45
(lp3374
sg47
(lp3375
(I15
I24
tp3376
a(I13
I24
tp3377
a(I14
I23
tp3378
asg51
I0
sbaa(lp3379
(iNavigator_0_0663
NODE
p3380
(dp3381
g43
(lp3382
I0
aI0
aI0
aI0
asg45
(lp3383
sg47
(lp3384
(I16
I0
tp3385
a(I14
I0
tp3386
a(I15
I1
tp3387
asg51
I0
sba(iNavigator_0_0663
NODE
p3388
(dp3389
g43
(lp3390
I0
aI0
aI0
aI0
asg45
(lp3391
sg47
(lp3392
(I16
I1
tp3393
a(I14
I1
tp3394
a(I15
I2
tp3395
a(I15
I0
tp3396
asg51
I0
sba(iNavigator_0_0663
NODE
p3397
(dp3398
g43
(lp3399
I0
aI0
aI0
aI0
asg45
(lp3400
sg47
(lp3401
(I16
I2
tp3402
a(I14
I2
tp3403
a(I15
I3
tp3404
a(I15
I1
tp3405
asg51
I0
sba(iNavigator_0_0663
NODE
p3406
(dp3407
g43
(lp3408
I0
aI0
aI0
aI0
asg45
(lp3409
sg47
(lp3410
(I16
I3
tp3411
a(I14
I3
tp3412
a(I15
I4
tp3413
a(I15
I2
tp3414
asg51
I0
sba(iNavigator_0_0663
NODE
p3415
(dp3416
g43
(lp3417
I0
aI0
aI0
aI0
asg45
(lp3418
sg47
(lp3419
(I16
I4
tp3420
a(I14
I4
tp3421
a(I15
I5
tp3422
a(I15
I3
tp3423
asg51
I0
sba(iNavigator_0_0663
NODE
p3424
(dp3425
g43
(lp3426
I0
aI0
aI0
aI0
asg45
(lp3427
sg47
(lp3428
(I16
I5
tp3429
a(I14
I5
tp3430
a(I15
I6
tp3431
a(I15
I4
tp3432
asg51
I0
sba(iNavigator_0_0663
NODE
p3433
(dp3434
g43
(lp3435
I0
aI0
aI0
aI0
asg45
(lp3436
sg47
(lp3437
(I16
I6
tp3438
a(I14
I6
tp3439
a(I15
I7
tp3440
a(I15
I5
tp3441
asg51
I0
sba(iNavigator_0_0663
NODE
p3442
(dp3443
g43
(lp3444
I0
aI0
aI0
aI0
asg45
(lp3445
sg47
(lp3446
(I16
I7
tp3447
a(I14
I7
tp3448
a(I15
I8
tp3449
a(I15
I6
tp3450
asg51
I0
sba(iNavigator_0_0663
NODE
p3451
(dp3452
g43
(lp3453
I0
aI0
aI0
aI0
asg45
(lp3454
sg47
(lp3455
(I16
I8
tp3456
a(I14
I8
tp3457
a(I15
I9
tp3458
a(I15
I7
tp3459
asg51
I0
sba(iNavigator_0_0663
NODE
p3460
(dp3461
g43
(lp3462
I0
aI0
aI0
aI0
asg45
(lp3463
sg47
(lp3464
(I16
I9
tp3465
a(I14
I9
tp3466
a(I15
I10
tp3467
a(I15
I8
tp3468
asg51
I0
sba(iNavigator_0_0663
NODE
p3469
(dp3470
g43
(lp3471
I0
aI0
aI0
aI0
asg45
(lp3472
sg47
(lp3473
(I16
I10
tp3474
a(I14
I10
tp3475
a(I15
I11
tp3476
a(I15
I9
tp3477
asg51
I0
sba(iNavigator_0_0663
NODE
p3478
(dp3479
g43
(lp3480
I0
aI0
aI0
aI0
asg45
(lp3481
sg47
(lp3482
(I16
I11
tp3483
a(I14
I11
tp3484
a(I15
I12
tp3485
a(I15
I10
tp3486
asg51
I0
sba(iNavigator_0_0663
NODE
p3487
(dp3488
g43
(lp3489
I0
aI0
aI0
aI0
asg45
(lp3490
sg47
(lp3491
(I16
I12
tp3492
a(I14
I12
tp3493
a(I15
I13
tp3494
a(I15
I11
tp3495
asg51
I0
sba(iNavigator_0_0663
NODE
p3496
(dp3497
g43
(lp3498
I0
aI0
aI0
aI0
asg45
(lp3499
sg47
(lp3500
(I16
I13
tp3501
a(I14
I13
tp3502
a(I15
I14
tp3503
a(I15
I12
tp3504
asg51
I0
sba(iNavigator_0_0663
NODE
p3505
(dp3506
g43
(lp3507
I0
aI0
aI0
aI0
asg45
(lp3508
sg47
(lp3509
(I16
I14
tp3510
a(I14
I14
tp3511
a(I15
I15
tp3512
a(I15
I13
tp3513
asg51
I0
sba(iNavigator_0_0663
NODE
p3514
(dp3515
g43
(lp3516
I0
aI0
aI0
aI0
asg45
(lp3517
sg47
(lp3518
(I16
I15
tp3519
a(I14
I15
tp3520
a(I15
I16
tp3521
a(I15
I14
tp3522
asg51
I0
sba(iNavigator_0_0663
NODE
p3523
(dp3524
g43
(lp3525
I0
aI0
aI0
aI0
asg45
(lp3526
sg47
(lp3527
(I16
I16
tp3528
a(I14
I16
tp3529
a(I15
I17
tp3530
a(I15
I15
tp3531
asg51
I0
sba(iNavigator_0_0663
NODE
p3532
(dp3533
g43
(lp3534
I0
aI0
aI0
aI0
asg45
(lp3535
sg47
(lp3536
(I16
I17
tp3537
a(I14
I17
tp3538
a(I15
I18
tp3539
a(I15
I16
tp3540
asg51
I0
sba(iNavigator_0_0663
NODE
p3541
(dp3542
g43
(lp3543
I0
aI0
aI0
aI0
asg45
(lp3544
sg47
(lp3545
(I16
I18
tp3546
a(I14
I18
tp3547
a(I15
I19
tp3548
a(I15
I17
tp3549
asg51
I0
sba(iNavigator_0_0663
NODE
p3550
(dp3551
g43
(lp3552
I0
aI0
aI0
aI0
asg45
(lp3553
sg47
(lp3554
(I16
I19
tp3555
a(I14
I19
tp3556
a(I15
I20
tp3557
a(I15
I18
tp3558
asg51
I0
sba(iNavigator_0_0663
NODE
p3559
(dp3560
g43
(lp3561
I0
aI0
aI0
aI0
asg45
(lp3562
sg47
(lp3563
(I16
I20
tp3564
a(I14
I20
tp3565
a(I15
I21
tp3566
a(I15
I19
tp3567
asg51
I0
sba(iNavigator_0_0663
NODE
p3568
(dp3569
g43
(lp3570
I0
aI0
aI0
aI0
asg45
(lp3571
sg47
(lp3572
(I16
I21
tp3573
a(I14
I21
tp3574
a(I15
I22
tp3575
a(I15
I20
tp3576
asg51
I0
sba(iNavigator_0_0663
NODE
p3577
(dp3578
g43
(lp3579
I0
aI0
aI0
aI0
asg45
(lp3580
sg47
(lp3581
(I16
I22
tp3582
a(I14
I22
tp3583
a(I15
I23
tp3584
a(I15
I21
tp3585
asg51
I0
sba(iNavigator_0_0663
NODE
p3586
(dp3587
g43
(lp3588
I0
aI0
aI0
aI0
asg45
(lp3589
sg47
(lp3590
(I16
I23
tp3591
a(I14
I23
tp3592
a(I15
I24
tp3593
a(I15
I22
tp3594
asg51
I0
sba(iNavigator_0_0663
NODE
p3595
(dp3596
g43
(lp3597
I0
aI0
aI0
aI0
asg45
(lp3598
sg47
(lp3599
(I16
I24
tp3600
a(I14
I24
tp3601
a(I15
I23
tp3602
asg51
I0
sbaa(lp3603
(iNavigator_0_0663
NODE
p3604
(dp3605
g43
(lp3606
I0
aI0
aI0
aI0
asg45
(lp3607
sg47
(lp3608
(I17
I0
tp3609
a(I15
I0
tp3610
a(I16
I1
tp3611
asg51
I0
sba(iNavigator_0_0663
NODE
p3612
(dp3613
g43
(lp3614
I0
aI0
aI0
aI0
asg45
(lp3615
sg47
(lp3616
(I17
I1
tp3617
a(I15
I1
tp3618
a(I16
I2
tp3619
a(I16
I0
tp3620
asg51
I0
sba(iNavigator_0_0663
NODE
p3621
(dp3622
g43
(lp3623
I0
aI0
aI0
aI0
asg45
(lp3624
sg47
(lp3625
(I17
I2
tp3626
a(I15
I2
tp3627
a(I16
I3
tp3628
a(I16
I1
tp3629
asg51
I0
sba(iNavigator_0_0663
NODE
p3630
(dp3631
g43
(lp3632
I0
aI0
aI0
aI0
asg45
(lp3633
sg47
(lp3634
(I17
I3
tp3635
a(I15
I3
tp3636
a(I16
I4
tp3637
a(I16
I2
tp3638
asg51
I0
sba(iNavigator_0_0663
NODE
p3639
(dp3640
g43
(lp3641
I0
aI0
aI0
aI0
asg45
(lp3642
sg47
(lp3643
(I17
I4
tp3644
a(I15
I4
tp3645
a(I16
I5
tp3646
a(I16
I3
tp3647
asg51
I0
sba(iNavigator_0_0663
NODE
p3648
(dp3649
g43
(lp3650
I0
aI0
aI0
aI0
asg45
(lp3651
sg47
(lp3652
(I17
I5
tp3653
a(I15
I5
tp3654
a(I16
I6
tp3655
a(I16
I4
tp3656
asg51
I0
sba(iNavigator_0_0663
NODE
p3657
(dp3658
g43
(lp3659
I0
aI0
aI0
aI0
asg45
(lp3660
sg47
(lp3661
(I17
I6
tp3662
a(I15
I6
tp3663
a(I16
I7
tp3664
a(I16
I5
tp3665
asg51
I0
sba(iNavigator_0_0663
NODE
p3666
(dp3667
g43
(lp3668
I0
aI0
aI0
aI0
asg45
(lp3669
sg47
(lp3670
(I17
I7
tp3671
a(I15
I7
tp3672
a(I16
I8
tp3673
a(I16
I6
tp3674
asg51
I0
sba(iNavigator_0_0663
NODE
p3675
(dp3676
g43
(lp3677
I0
aI0
aI0
aI0
asg45
(lp3678
sg47
(lp3679
(I17
I8
tp3680
a(I15
I8
tp3681
a(I16
I9
tp3682
a(I16
I7
tp3683
asg51
I0
sba(iNavigator_0_0663
NODE
p3684
(dp3685
g43
(lp3686
I0
aI0
aI0
aI0
asg45
(lp3687
sg47
(lp3688
(I17
I9
tp3689
a(I15
I9
tp3690
a(I16
I10
tp3691
a(I16
I8
tp3692
asg51
I0
sba(iNavigator_0_0663
NODE
p3693
(dp3694
g43
(lp3695
I0
aI0
aI0
aI0
asg45
(lp3696
sg47
(lp3697
(I17
I10
tp3698
a(I15
I10
tp3699
a(I16
I11
tp3700
a(I16
I9
tp3701
asg51
I0
sba(iNavigator_0_0663
NODE
p3702
(dp3703
g43
(lp3704
I0
aI0
aI0
aI0
asg45
(lp3705
sg47
(lp3706
(I17
I11
tp3707
a(I15
I11
tp3708
a(I16
I12
tp3709
a(I16
I10
tp3710
asg51
I0
sba(iNavigator_0_0663
NODE
p3711
(dp3712
g43
(lp3713
I0
aI0
aI0
aI0
asg45
(lp3714
sg47
(lp3715
(I17
I12
tp3716
a(I15
I12
tp3717
a(I16
I13
tp3718
a(I16
I11
tp3719
asg51
I0
sba(iNavigator_0_0663
NODE
p3720
(dp3721
g43
(lp3722
I0
aI0
aI0
aI0
asg45
(lp3723
sg47
(lp3724
(I17
I13
tp3725
a(I15
I13
tp3726
a(I16
I14
tp3727
a(I16
I12
tp3728
asg51
I0
sba(iNavigator_0_0663
NODE
p3729
(dp3730
g43
(lp3731
I0
aI0
aI0
aI0
asg45
(lp3732
sg47
(lp3733
(I17
I14
tp3734
a(I15
I14
tp3735
a(I16
I15
tp3736
a(I16
I13
tp3737
asg51
I0
sba(iNavigator_0_0663
NODE
p3738
(dp3739
g43
(lp3740
I0
aI0
aI0
aI0
asg45
(lp3741
sg47
(lp3742
(I17
I15
tp3743
a(I15
I15
tp3744
a(I16
I16
tp3745
a(I16
I14
tp3746
asg51
I0
sba(iNavigator_0_0663
NODE
p3747
(dp3748
g43
(lp3749
I0
aI0
aI0
aI0
asg45
(lp3750
sg47
(lp3751
(I17
I16
tp3752
a(I15
I16
tp3753
a(I16
I17
tp3754
a(I16
I15
tp3755
asg51
I0
sba(iNavigator_0_0663
NODE
p3756
(dp3757
g43
(lp3758
I0
aI0
aI0
aI0
asg45
(lp3759
sg47
(lp3760
(I17
I17
tp3761
a(I15
I17
tp3762
a(I16
I18
tp3763
a(I16
I16
tp3764
asg51
I0
sba(iNavigator_0_0663
NODE
p3765
(dp3766
g43
(lp3767
I0
aI0
aI0
aI0
asg45
(lp3768
sg47
(lp3769
(I17
I18
tp3770
a(I15
I18
tp3771
a(I16
I19
tp3772
a(I16
I17
tp3773
asg51
I0
sba(iNavigator_0_0663
NODE
p3774
(dp3775
g43
(lp3776
I0
aI0
aI0
aI0
asg45
(lp3777
sg47
(lp3778
(I17
I19
tp3779
a(I15
I19
tp3780
a(I16
I20
tp3781
a(I16
I18
tp3782
asg51
I0
sba(iNavigator_0_0663
NODE
p3783
(dp3784
g43
(lp3785
I0
aI0
aI0
aI0
asg45
(lp3786
sg47
(lp3787
(I17
I20
tp3788
a(I15
I20
tp3789
a(I16
I21
tp3790
a(I16
I19
tp3791
asg51
I0
sba(iNavigator_0_0663
NODE
p3792
(dp3793
g43
(lp3794
I0
aI0
aI0
aI0
asg45
(lp3795
sg47
(lp3796
(I17
I21
tp3797
a(I15
I21
tp3798
a(I16
I22
tp3799
a(I16
I20
tp3800
asg51
I0
sba(iNavigator_0_0663
NODE
p3801
(dp3802
g43
(lp3803
I0
aI0
aI0
aI0
asg45
(lp3804
sg47
(lp3805
(I17
I22
tp3806
a(I15
I22
tp3807
a(I16
I23
tp3808
a(I16
I21
tp3809
asg51
I0
sba(iNavigator_0_0663
NODE
p3810
(dp3811
g43
(lp3812
I0
aI0
aI0
aI0
asg45
(lp3813
sg47
(lp3814
(I17
I23
tp3815
a(I15
I23
tp3816
a(I16
I24
tp3817
a(I16
I22
tp3818
asg51
I0
sba(iNavigator_0_0663
NODE
p3819
(dp3820
g43
(lp3821
I0
aI0
aI0
aI0
asg45
(lp3822
sg47
(lp3823
(I17
I24
tp3824
a(I15
I24
tp3825
a(I16
I23
tp3826
asg51
I0
sbaa(lp3827
(iNavigator_0_0663
NODE
p3828
(dp3829
g43
(lp3830
I0
aI0
aI0
aI0
asg45
(lp3831
sg47
(lp3832
(I18
I0
tp3833
a(I16
I0
tp3834
a(I17
I1
tp3835
asg51
I0
sba(iNavigator_0_0663
NODE
p3836
(dp3837
g43
(lp3838
I0
aI0
aI0
aI0
asg45
(lp3839
sg47
(lp3840
(I18
I1
tp3841
a(I16
I1
tp3842
a(I17
I2
tp3843
a(I17
I0
tp3844
asg51
I0
sba(iNavigator_0_0663
NODE
p3845
(dp3846
g43
(lp3847
I0
aI0
aI0
aI0
asg45
(lp3848
sg47
(lp3849
(I18
I2
tp3850
a(I16
I2
tp3851
a(I17
I3
tp3852
a(I17
I1
tp3853
asg51
I0
sba(iNavigator_0_0663
NODE
p3854
(dp3855
g43
(lp3856
I0
aI0
aI0
aI0
asg45
(lp3857
sg47
(lp3858
(I18
I3
tp3859
a(I16
I3
tp3860
a(I17
I4
tp3861
a(I17
I2
tp3862
asg51
I0
sba(iNavigator_0_0663
NODE
p3863
(dp3864
g43
(lp3865
I0
aI0
aI0
aI0
asg45
(lp3866
sg47
(lp3867
(I18
I4
tp3868
a(I16
I4
tp3869
a(I17
I5
tp3870
a(I17
I3
tp3871
asg51
I0
sba(iNavigator_0_0663
NODE
p3872
(dp3873
g43
(lp3874
I0
aI0
aI0
aI0
asg45
(lp3875
sg47
(lp3876
(I18
I5
tp3877
a(I16
I5
tp3878
a(I17
I6
tp3879
a(I17
I4
tp3880
asg51
I0
sba(iNavigator_0_0663
NODE
p3881
(dp3882
g43
(lp3883
I0
aI0
aI0
aI0
asg45
(lp3884
sg47
(lp3885
(I18
I6
tp3886
a(I16
I6
tp3887
a(I17
I7
tp3888
a(I17
I5
tp3889
asg51
I0
sba(iNavigator_0_0663
NODE
p3890
(dp3891
g43
(lp3892
I0
aI0
aI0
aI0
asg45
(lp3893
sg47
(lp3894
(I18
I7
tp3895
a(I16
I7
tp3896
a(I17
I8
tp3897
a(I17
I6
tp3898
asg51
I0
sba(iNavigator_0_0663
NODE
p3899
(dp3900
g43
(lp3901
I0
aI0
aI0
aI0
asg45
(lp3902
sg47
(lp3903
(I18
I8
tp3904
a(I16
I8
tp3905
a(I17
I9
tp3906
a(I17
I7
tp3907
asg51
I0
sba(iNavigator_0_0663
NODE
p3908
(dp3909
g43
(lp3910
I0
aI0
aI0
aI0
asg45
(lp3911
sg47
(lp3912
(I18
I9
tp3913
a(I16
I9
tp3914
a(I17
I10
tp3915
a(I17
I8
tp3916
asg51
I0
sba(iNavigator_0_0663
NODE
p3917
(dp3918
g43
(lp3919
I0
aI0
aI0
aI0
asg45
(lp3920
sg47
(lp3921
(I18
I10
tp3922
a(I16
I10
tp3923
a(I17
I11
tp3924
a(I17
I9
tp3925
asg51
I0
sba(iNavigator_0_0663
NODE
p3926
(dp3927
g43
(lp3928
I0
aI0
aI0
aI0
asg45
(lp3929
sg47
(lp3930
(I18
I11
tp3931
a(I16
I11
tp3932
a(I17
I12
tp3933
a(I17
I10
tp3934
asg51
I0
sba(iNavigator_0_0663
NODE
p3935
(dp3936
g43
(lp3937
I0
aI0
aI0
aI0
asg45
(lp3938
sg47
(lp3939
(I18
I12
tp3940
a(I16
I12
tp3941
a(I17
I13
tp3942
a(I17
I11
tp3943
asg51
I0
sba(iNavigator_0_0663
NODE
p3944
(dp3945
g43
(lp3946
I0
aI0
aI0
aI0
asg45
(lp3947
sg47
(lp3948
(I18
I13
tp3949
a(I16
I13
tp3950
a(I17
I14
tp3951
a(I17
I12
tp3952
asg51
I0
sba(iNavigator_0_0663
NODE
p3953
(dp3954
g43
(lp3955
I0
aI0
aI0
aI0
asg45
(lp3956
sg47
(lp3957
(I18
I14
tp3958
a(I16
I14
tp3959
a(I17
I15
tp3960
a(I17
I13
tp3961
asg51
I0
sba(iNavigator_0_0663
NODE
p3962
(dp3963
g43
(lp3964
I0
aI0
aI0
aI0
asg45
(lp3965
sg47
(lp3966
(I18
I15
tp3967
a(I16
I15
tp3968
a(I17
I16
tp3969
a(I17
I14
tp3970
asg51
I0
sba(iNavigator_0_0663
NODE
p3971
(dp3972
g43
(lp3973
I0
aI0
aI0
aI0
asg45
(lp3974
sg47
(lp3975
(I18
I16
tp3976
a(I16
I16
tp3977
a(I17
I17
tp3978
a(I17
I15
tp3979
asg51
I0
sba(iNavigator_0_0663
NODE
p3980
(dp3981
g43
(lp3982
I0
aI0
aI0
aI0
asg45
(lp3983
sg47
(lp3984
(I18
I17
tp3985
a(I16
I17
tp3986
a(I17
I18
tp3987
a(I17
I16
tp3988
asg51
I0
sba(iNavigator_0_0663
NODE
p3989
(dp3990
g43
(lp3991
I0
aI0
aI0
aI0
asg45
(lp3992
sg47
(lp3993
(I18
I18
tp3994
a(I16
I18
tp3995
a(I17
I19
tp3996
a(I17
I17
tp3997
asg51
I0
sba(iNavigator_0_0663
NODE
p3998
(dp3999
g43
(lp4000
I0
aI0
aI0
aI0
asg45
(lp4001
sg47
(lp4002
(I18
I19
tp4003
a(I16
I19
tp4004
a(I17
I20
tp4005
a(I17
I18
tp4006
asg51
I0
sba(iNavigator_0_0663
NODE
p4007
(dp4008
g43
(lp4009
I0
aI0
aI0
aI0
asg45
(lp4010
sg47
(lp4011
(I18
I20
tp4012
a(I16
I20
tp4013
a(I17
I21
tp4014
a(I17
I19
tp4015
asg51
I0
sba(iNavigator_0_0663
NODE
p4016
(dp4017
g43
(lp4018
I0
aI0
aI0
aI0
asg45
(lp4019
sg47
(lp4020
(I18
I21
tp4021
a(I16
I21
tp4022
a(I17
I22
tp4023
a(I17
I20
tp4024
asg51
I0
sba(iNavigator_0_0663
NODE
p4025
(dp4026
g43
(lp4027
I0
aI0
aI0
aI0
asg45
(lp4028
sg47
(lp4029
(I18
I22
tp4030
a(I16
I22
tp4031
a(I17
I23
tp4032
a(I17
I21
tp4033
asg51
I0
sba(iNavigator_0_0663
NODE
p4034
(dp4035
g43
(lp4036
I0
aI0
aI0
aI0
asg45
(lp4037
sg47
(lp4038
(I18
I23
tp4039
a(I16
I23
tp4040
a(I17
I24
tp4041
a(I17
I22
tp4042
asg51
I0
sba(iNavigator_0_0663
NODE
p4043
(dp4044
g43
(lp4045
I0
aI0
aI0
aI0
asg45
(lp4046
sg47
(lp4047
(I18
I24
tp4048
a(I16
I24
tp4049
a(I17
I23
tp4050
asg51
I0
sbaa(lp4051
(iNavigator_0_0663
NODE
p4052
(dp4053
g43
(lp4054
I0
aI0
aI0
aI0
asg45
(lp4055
sg47
(lp4056
(I19
I0
tp4057
a(I17
I0
tp4058
a(I18
I1
tp4059
asg51
I0
sba(iNavigator_0_0663
NODE
p4060
(dp4061
g43
(lp4062
I0
aI0
aI0
aI0
asg45
(lp4063
sg47
(lp4064
(I19
I1
tp4065
a(I17
I1
tp4066
a(I18
I2
tp4067
a(I18
I0
tp4068
asg51
I0
sba(iNavigator_0_0663
NODE
p4069
(dp4070
g43
(lp4071
I0
aI0
aI0
aI0
asg45
(lp4072
sg47
(lp4073
(I19
I2
tp4074
a(I17
I2
tp4075
a(I18
I3
tp4076
a(I18
I1
tp4077
asg51
I0
sba(iNavigator_0_0663
NODE
p4078
(dp4079
g43
(lp4080
I0
aI0
aI0
aI0
asg45
(lp4081
sg47
(lp4082
(I19
I3
tp4083
a(I17
I3
tp4084
a(I18
I4
tp4085
a(I18
I2
tp4086
asg51
I0
sba(iNavigator_0_0663
NODE
p4087
(dp4088
g43
(lp4089
I0
aI0
aI0
aI0
asg45
(lp4090
sg47
(lp4091
(I19
I4
tp4092
a(I17
I4
tp4093
a(I18
I5
tp4094
a(I18
I3
tp4095
asg51
I0
sba(iNavigator_0_0663
NODE
p4096
(dp4097
g43
(lp4098
I0
aI0
aI0
aI0
asg45
(lp4099
sg47
(lp4100
(I19
I5
tp4101
a(I17
I5
tp4102
a(I18
I6
tp4103
a(I18
I4
tp4104
asg51
I0
sba(iNavigator_0_0663
NODE
p4105
(dp4106
g43
(lp4107
I0
aI0
aI0
aI0
asg45
(lp4108
sg47
(lp4109
(I19
I6
tp4110
a(I17
I6
tp4111
a(I18
I7
tp4112
a(I18
I5
tp4113
asg51
I0
sba(iNavigator_0_0663
NODE
p4114
(dp4115
g43
(lp4116
I0
aI0
aI0
aI0
asg45
(lp4117
sg47
(lp4118
(I19
I7
tp4119
a(I17
I7
tp4120
a(I18
I8
tp4121
a(I18
I6
tp4122
asg51
I0
sba(iNavigator_0_0663
NODE
p4123
(dp4124
g43
(lp4125
I0
aI0
aI0
aI0
asg45
(lp4126
sg47
(lp4127
(I19
I8
tp4128
a(I17
I8
tp4129
a(I18
I9
tp4130
a(I18
I7
tp4131
asg51
I0
sba(iNavigator_0_0663
NODE
p4132
(dp4133
g43
(lp4134
I0
aI0
aI0
aI0
asg45
(lp4135
sg47
(lp4136
(I19
I9
tp4137
a(I17
I9
tp4138
a(I18
I10
tp4139
a(I18
I8
tp4140
asg51
I0
sba(iNavigator_0_0663
NODE
p4141
(dp4142
g43
(lp4143
I0
aI0
aI0
aI0
asg45
(lp4144
sg47
(lp4145
(I19
I10
tp4146
a(I17
I10
tp4147
a(I18
I11
tp4148
a(I18
I9
tp4149
asg51
I0
sba(iNavigator_0_0663
NODE
p4150
(dp4151
g43
(lp4152
I0
aI0
aI0
aI0
asg45
(lp4153
sg47
(lp4154
(I19
I11
tp4155
a(I17
I11
tp4156
a(I18
I12
tp4157
a(I18
I10
tp4158
asg51
I0
sba(iNavigator_0_0663
NODE
p4159
(dp4160
g43
(lp4161
I0
aI0
aI0
aI0
asg45
(lp4162
sg47
(lp4163
(I19
I12
tp4164
a(I17
I12
tp4165
a(I18
I13
tp4166
a(I18
I11
tp4167
asg51
I0
sba(iNavigator_0_0663
NODE
p4168
(dp4169
g43
(lp4170
I0
aI0
aI0
aI0
asg45
(lp4171
sg47
(lp4172
(I19
I13
tp4173
a(I17
I13
tp4174
a(I18
I14
tp4175
a(I18
I12
tp4176
asg51
I0
sba(iNavigator_0_0663
NODE
p4177
(dp4178
g43
(lp4179
I0
aI0
aI0
aI0
asg45
(lp4180
sg47
(lp4181
(I19
I14
tp4182
a(I17
I14
tp4183
a(I18
I15
tp4184
a(I18
I13
tp4185
asg51
I0
sba(iNavigator_0_0663
NODE
p4186
(dp4187
g43
(lp4188
I0
aI0
aI0
aI0
asg45
(lp4189
sg47
(lp4190
(I19
I15
tp4191
a(I17
I15
tp4192
a(I18
I16
tp4193
a(I18
I14
tp4194
asg51
I0
sba(iNavigator_0_0663
NODE
p4195
(dp4196
g43
(lp4197
I0
aI0
aI0
aI0
asg45
(lp4198
sg47
(lp4199
(I19
I16
tp4200
a(I17
I16
tp4201
a(I18
I17
tp4202
a(I18
I15
tp4203
asg51
I0
sba(iNavigator_0_0663
NODE
p4204
(dp4205
g43
(lp4206
I0
aI0
aI0
aI0
asg45
(lp4207
sg47
(lp4208
(I19
I17
tp4209
a(I17
I17
tp4210
a(I18
I18
tp4211
a(I18
I16
tp4212
asg51
I0
sba(iNavigator_0_0663
NODE
p4213
(dp4214
g43
(lp4215
I0
aI0
aI0
aI0
asg45
(lp4216
sg47
(lp4217
(I19
I18
tp4218
a(I17
I18
tp4219
a(I18
I19
tp4220
a(I18
I17
tp4221
asg51
I0
sba(iNavigator_0_0663
NODE
p4222
(dp4223
g43
(lp4224
I0
aI0
aI0
aI0
asg45
(lp4225
sg47
(lp4226
(I19
I19
tp4227
a(I17
I19
tp4228
a(I18
I20
tp4229
a(I18
I18
tp4230
asg51
I0
sba(iNavigator_0_0663
NODE
p4231
(dp4232
g43
(lp4233
I0
aI0
aI0
aI0
asg45
(lp4234
sg47
(lp4235
(I19
I20
tp4236
a(I17
I20
tp4237
a(I18
I21
tp4238
a(I18
I19
tp4239
asg51
I0
sba(iNavigator_0_0663
NODE
p4240
(dp4241
g43
(lp4242
I0
aI0
aI0
aI0
asg45
(lp4243
sg47
(lp4244
(I19
I21
tp4245
a(I17
I21
tp4246
a(I18
I22
tp4247
a(I18
I20
tp4248
asg51
I0
sba(iNavigator_0_0663
NODE
p4249
(dp4250
g43
(lp4251
I0
aI0
aI0
aI0
asg45
(lp4252
sg47
(lp4253
(I19
I22
tp4254
a(I17
I22
tp4255
a(I18
I23
tp4256
a(I18
I21
tp4257
asg51
I0
sba(iNavigator_0_0663
NODE
p4258
(dp4259
g43
(lp4260
I0
aI0
aI0
aI0
asg45
(lp4261
sg47
(lp4262
(I19
I23
tp4263
a(I17
I23
tp4264
a(I18
I24
tp4265
a(I18
I22
tp4266
asg51
I0
sba(iNavigator_0_0663
NODE
p4267
(dp4268
g43
(lp4269
I0
aI0
aI0
aI0
asg45
(lp4270
sg47
(lp4271
(I19
I24
tp4272
a(I17
I24
tp4273
a(I18
I23
tp4274
asg51
I0
sbaa(lp4275
(iNavigator_0_0663
NODE
p4276
(dp4277
g43
(lp4278
I0
aI0
aI0
aI0
asg45
(lp4279
sg47
(lp4280
(I20
I0
tp4281
a(I18
I0
tp4282
a(I19
I1
tp4283
asg51
I0
sba(iNavigator_0_0663
NODE
p4284
(dp4285
g43
(lp4286
I0
aI0
aI0
aI0
asg45
(lp4287
sg47
(lp4288
(I20
I1
tp4289
a(I18
I1
tp4290
a(I19
I2
tp4291
a(I19
I0
tp4292
asg51
I0
sba(iNavigator_0_0663
NODE
p4293
(dp4294
g43
(lp4295
I0
aI0
aI0
aI0
asg45
(lp4296
sg47
(lp4297
(I20
I2
tp4298
a(I18
I2
tp4299
a(I19
I3
tp4300
a(I19
I1
tp4301
asg51
I0
sba(iNavigator_0_0663
NODE
p4302
(dp4303
g43
(lp4304
I0
aI0
aI0
aI0
asg45
(lp4305
sg47
(lp4306
(I20
I3
tp4307
a(I18
I3
tp4308
a(I19
I4
tp4309
a(I19
I2
tp4310
asg51
I0
sba(iNavigator_0_0663
NODE
p4311
(dp4312
g43
(lp4313
I0
aI0
aI0
aI0
asg45
(lp4314
sg47
(lp4315
(I20
I4
tp4316
a(I18
I4
tp4317
a(I19
I5
tp4318
a(I19
I3
tp4319
asg51
I0
sba(iNavigator_0_0663
NODE
p4320
(dp4321
g43
(lp4322
I0
aI0
aI0
aI0
asg45
(lp4323
sg47
(lp4324
(I20
I5
tp4325
a(I18
I5
tp4326
a(I19
I6
tp4327
a(I19
I4
tp4328
asg51
I0
sba(iNavigator_0_0663
NODE
p4329
(dp4330
g43
(lp4331
I0
aI0
aI0
aI0
asg45
(lp4332
sg47
(lp4333
(I20
I6
tp4334
a(I18
I6
tp4335
a(I19
I7
tp4336
a(I19
I5
tp4337
asg51
I0
sba(iNavigator_0_0663
NODE
p4338
(dp4339
g43
(lp4340
I0
aI0
aI0
aI0
asg45
(lp4341
sg47
(lp4342
(I20
I7
tp4343
a(I18
I7
tp4344
a(I19
I8
tp4345
a(I19
I6
tp4346
asg51
I0
sba(iNavigator_0_0663
NODE
p4347
(dp4348
g43
(lp4349
I0
aI0
aI0
aI0
asg45
(lp4350
sg47
(lp4351
(I20
I8
tp4352
a(I18
I8
tp4353
a(I19
I9
tp4354
a(I19
I7
tp4355
asg51
I0
sba(iNavigator_0_0663
NODE
p4356
(dp4357
g43
(lp4358
I0
aI0
aI0
aI0
asg45
(lp4359
sg47
(lp4360
(I20
I9
tp4361
a(I18
I9
tp4362
a(I19
I10
tp4363
a(I19
I8
tp4364
asg51
I0
sba(iNavigator_0_0663
NODE
p4365
(dp4366
g43
(lp4367
I0
aI0
aI0
aI0
asg45
(lp4368
sg47
(lp4369
(I20
I10
tp4370
a(I18
I10
tp4371
a(I19
I11
tp4372
a(I19
I9
tp4373
asg51
I0
sba(iNavigator_0_0663
NODE
p4374
(dp4375
g43
(lp4376
I0
aI0
aI0
aI0
asg45
(lp4377
sg47
(lp4378
(I20
I11
tp4379
a(I18
I11
tp4380
a(I19
I12
tp4381
a(I19
I10
tp4382
asg51
I0
sba(iNavigator_0_0663
NODE
p4383
(dp4384
g43
(lp4385
I0
aI0
aI0
aI0
asg45
(lp4386
sg47
(lp4387
(I20
I12
tp4388
a(I18
I12
tp4389
a(I19
I13
tp4390
a(I19
I11
tp4391
asg51
I0
sba(iNavigator_0_0663
NODE
p4392
(dp4393
g43
(lp4394
I0
aI0
aI0
aI0
asg45
(lp4395
sg47
(lp4396
(I20
I13
tp4397
a(I18
I13
tp4398
a(I19
I14
tp4399
a(I19
I12
tp4400
asg51
I0
sba(iNavigator_0_0663
NODE
p4401
(dp4402
g43
(lp4403
I0
aI0
aI0
aI0
asg45
(lp4404
sg47
(lp4405
(I20
I14
tp4406
a(I18
I14
tp4407
a(I19
I15
tp4408
a(I19
I13
tp4409
asg51
I0
sba(iNavigator_0_0663
NODE
p4410
(dp4411
g43
(lp4412
I0
aI0
aI0
aI0
asg45
(lp4413
sg47
(lp4414
(I20
I15
tp4415
a(I18
I15
tp4416
a(I19
I16
tp4417
a(I19
I14
tp4418
asg51
I0
sba(iNavigator_0_0663
NODE
p4419
(dp4420
g43
(lp4421
I0
aI0
aI0
aI0
asg45
(lp4422
sg47
(lp4423
(I20
I16
tp4424
a(I18
I16
tp4425
a(I19
I17
tp4426
a(I19
I15
tp4427
asg51
I0
sba(iNavigator_0_0663
NODE
p4428
(dp4429
g43
(lp4430
I0
aI0
aI0
aI0
asg45
(lp4431
sg47
(lp4432
(I20
I17
tp4433
a(I18
I17
tp4434
a(I19
I18
tp4435
a(I19
I16
tp4436
asg51
I0
sba(iNavigator_0_0663
NODE
p4437
(dp4438
g43
(lp4439
I0
aI0
aI0
aI0
asg45
(lp4440
sg47
(lp4441
(I20
I18
tp4442
a(I18
I18
tp4443
a(I19
I19
tp4444
a(I19
I17
tp4445
asg51
I0
sba(iNavigator_0_0663
NODE
p4446
(dp4447
g43
(lp4448
I0
aI0
aI0
aI0
asg45
(lp4449
sg47
(lp4450
(I20
I19
tp4451
a(I18
I19
tp4452
a(I19
I20
tp4453
a(I19
I18
tp4454
asg51
I0
sba(iNavigator_0_0663
NODE
p4455
(dp4456
g43
(lp4457
I0
aI0
aI0
aI0
asg45
(lp4458
sg47
(lp4459
(I20
I20
tp4460
a(I18
I20
tp4461
a(I19
I21
tp4462
a(I19
I19
tp4463
asg51
I0
sba(iNavigator_0_0663
NODE
p4464
(dp4465
g43
(lp4466
I0
aI0
aI0
aI0
asg45
(lp4467
sg47
(lp4468
(I20
I21
tp4469
a(I18
I21
tp4470
a(I19
I22
tp4471
a(I19
I20
tp4472
asg51
I0
sba(iNavigator_0_0663
NODE
p4473
(dp4474
g43
(lp4475
I0
aI0
aI0
aI0
asg45
(lp4476
sg47
(lp4477
(I20
I22
tp4478
a(I18
I22
tp4479
a(I19
I23
tp4480
a(I19
I21
tp4481
asg51
I0
sba(iNavigator_0_0663
NODE
p4482
(dp4483
g43
(lp4484
I0
aI0
aI0
aI0
asg45
(lp4485
(I19
I24
tp4486
asg47
(lp4487
(I20
I23
tp4488
a(I18
I23
tp4489
a(I19
I24
tp4490
a(I19
I22
tp4491
asg51
I0
sba(iNavigator_0_0663
NODE
p4492
(dp4493
g43
(lp4494
I0
aI0
aI0
aI0
asg45
(lp4495
(I19
I23
tp4496
a(I20
I24
tp4497
asg47
(lp4498
(I20
I24
tp4499
a(I18
I24
tp4500
a(I19
I23
tp4501
asg51
I0
sbaa(lp4502
(iNavigator_0_0663
NODE
p4503
(dp4504
g43
(lp4505
I0
aI0
aI0
aI0
asg45
(lp4506
sg47
(lp4507
(I21
I0
tp4508
a(I19
I0
tp4509
a(I20
I1
tp4510
asg51
I0
sba(iNavigator_0_0663
NODE
p4511
(dp4512
g43
(lp4513
I0
aI0
aI0
aI0
asg45
(lp4514
sg47
(lp4515
(I21
I1
tp4516
a(I19
I1
tp4517
a(I20
I2
tp4518
a(I20
I0
tp4519
asg51
I0
sba(iNavigator_0_0663
NODE
p4520
(dp4521
g43
(lp4522
I0
aI0
aI0
aI0
asg45
(lp4523
sg47
(lp4524
(I21
I2
tp4525
a(I19
I2
tp4526
a(I20
I3
tp4527
a(I20
I1
tp4528
asg51
I0
sba(iNavigator_0_0663
NODE
p4529
(dp4530
g43
(lp4531
I0
aI0
aI0
aI0
asg45
(lp4532
sg47
(lp4533
(I21
I3
tp4534
a(I19
I3
tp4535
a(I20
I4
tp4536
a(I20
I2
tp4537
asg51
I0
sba(iNavigator_0_0663
NODE
p4538
(dp4539
g43
(lp4540
I0
aI0
aI0
aI0
asg45
(lp4541
sg47
(lp4542
(I21
I4
tp4543
a(I19
I4
tp4544
a(I20
I5
tp4545
a(I20
I3
tp4546
asg51
I0
sba(iNavigator_0_0663
NODE
p4547
(dp4548
g43
(lp4549
I0
aI0
aI0
aI0
asg45
(lp4550
sg47
(lp4551
(I21
I5
tp4552
a(I19
I5
tp4553
a(I20
I6
tp4554
a(I20
I4
tp4555
asg51
I0
sba(iNavigator_0_0663
NODE
p4556
(dp4557
g43
(lp4558
I0
aI0
aI0
aI0
asg45
(lp4559
sg47
(lp4560
(I21
I6
tp4561
a(I19
I6
tp4562
a(I20
I7
tp4563
a(I20
I5
tp4564
asg51
I0
sba(iNavigator_0_0663
NODE
p4565
(dp4566
g43
(lp4567
I0
aI0
aI0
aI0
asg45
(lp4568
sg47
(lp4569
(I21
I7
tp4570
a(I19
I7
tp4571
a(I20
I8
tp4572
a(I20
I6
tp4573
asg51
I0
sba(iNavigator_0_0663
NODE
p4574
(dp4575
g43
(lp4576
I0
aI0
aI0
aI0
asg45
(lp4577
sg47
(lp4578
(I21
I8
tp4579
a(I19
I8
tp4580
a(I20
I9
tp4581
a(I20
I7
tp4582
asg51
I0
sba(iNavigator_0_0663
NODE
p4583
(dp4584
g43
(lp4585
I0
aI0
aI0
aI0
asg45
(lp4586
sg47
(lp4587
(I21
I9
tp4588
a(I19
I9
tp4589
a(I20
I10
tp4590
a(I20
I8
tp4591
asg51
I0
sba(iNavigator_0_0663
NODE
p4592
(dp4593
g43
(lp4594
I0
aI0
aI0
aI0
asg45
(lp4595
sg47
(lp4596
(I21
I10
tp4597
a(I19
I10
tp4598
a(I20
I11
tp4599
a(I20
I9
tp4600
asg51
I0
sba(iNavigator_0_0663
NODE
p4601
(dp4602
g43
(lp4603
I0
aI0
aI0
aI0
asg45
(lp4604
sg47
(lp4605
(I21
I11
tp4606
a(I19
I11
tp4607
a(I20
I12
tp4608
a(I20
I10
tp4609
asg51
I0
sba(iNavigator_0_0663
NODE
p4610
(dp4611
g43
(lp4612
I0
aI0
aI0
aI0
asg45
(lp4613
sg47
(lp4614
(I21
I12
tp4615
a(I19
I12
tp4616
a(I20
I13
tp4617
a(I20
I11
tp4618
asg51
I0
sba(iNavigator_0_0663
NODE
p4619
(dp4620
g43
(lp4621
I0
aI0
aI0
aI0
asg45
(lp4622
sg47
(lp4623
(I21
I13
tp4624
a(I19
I13
tp4625
a(I20
I14
tp4626
a(I20
I12
tp4627
asg51
I0
sba(iNavigator_0_0663
NODE
p4628
(dp4629
g43
(lp4630
I0
aI0
aI0
aI0
asg45
(lp4631
sg47
(lp4632
(I21
I14
tp4633
a(I19
I14
tp4634
a(I20
I15
tp4635
a(I20
I13
tp4636
asg51
I0
sba(iNavigator_0_0663
NODE
p4637
(dp4638
g43
(lp4639
I0
aI0
aI0
aI0
asg45
(lp4640
sg47
(lp4641
(I21
I15
tp4642
a(I19
I15
tp4643
a(I20
I16
tp4644
a(I20
I14
tp4645
asg51
I0
sba(iNavigator_0_0663
NODE
p4646
(dp4647
g43
(lp4648
I0
aI0
aI0
aI0
asg45
(lp4649
sg47
(lp4650
(I21
I16
tp4651
a(I19
I16
tp4652
a(I20
I17
tp4653
a(I20
I15
tp4654
asg51
I0
sba(iNavigator_0_0663
NODE
p4655
(dp4656
g43
(lp4657
I0
aI0
aI0
aI0
asg45
(lp4658
sg47
(lp4659
(I21
I17
tp4660
a(I19
I17
tp4661
a(I20
I18
tp4662
a(I20
I16
tp4663
asg51
I0
sba(iNavigator_0_0663
NODE
p4664
(dp4665
g43
(lp4666
I0
aI0
aI0
aI0
asg45
(lp4667
sg47
(lp4668
(I21
I18
tp4669
a(I19
I18
tp4670
a(I20
I19
tp4671
a(I20
I17
tp4672
asg51
I0
sba(iNavigator_0_0663
NODE
p4673
(dp4674
g43
(lp4675
I0
aI0
aI0
aI0
asg45
(lp4676
sg47
(lp4677
(I21
I19
tp4678
a(I19
I19
tp4679
a(I20
I20
tp4680
a(I20
I18
tp4681
asg51
I0
sba(iNavigator_0_0663
NODE
p4682
(dp4683
g43
(lp4684
I0
aI0
aI0
aI0
asg45
(lp4685
sg47
(lp4686
(I21
I20
tp4687
a(I19
I20
tp4688
a(I20
I21
tp4689
a(I20
I19
tp4690
asg51
I0
sba(iNavigator_0_0663
NODE
p4691
(dp4692
g43
(lp4693
I0
aI0
aI0
aI0
asg45
(lp4694
(I21
I21
tp4695
asg47
(lp4696
(I21
I21
tp4697
a(I19
I21
tp4698
a(I20
I22
tp4699
a(I20
I20
tp4700
asg51
I0
sba(iNavigator_0_0663
NODE
p4701
(dp4702
g43
(lp4703
I0
aI0
aI0
aI0
asg45
(lp4704
(I21
I22
tp4705
asg47
(lp4706
(I21
I22
tp4707
a(I19
I22
tp4708
a(I20
I23
tp4709
a(I20
I21
tp4710
asg51
I0
sba(iNavigator_0_0663
NODE
p4711
(dp4712
g43
(lp4713
I0
aI0
aI0
aI0
asg45
(lp4714
(I21
I23
tp4715
asg47
(lp4716
(I21
I23
tp4717
a(I19
I23
tp4718
a(I20
I24
tp4719
a(I20
I22
tp4720
asg51
I0
sba(iNavigator_0_0663
NODE
p4721
(dp4722
g43
(lp4723
I0
aI0
aI0
aI0
asg45
(lp4724
(I19
I24
tp4725
a(I21
I24
tp4726
asg47
(lp4727
(I21
I24
tp4728
a(I19
I24
tp4729
a(I20
I23
tp4730
asg51
I0
sbaa(lp4731
(iNavigator_0_0663
NODE
p4732
(dp4733
g43
(lp4734
I0
aI0
aI0
aI0
asg45
(lp4735
sg47
(lp4736
(I22
I0
tp4737
a(I20
I0
tp4738
a(I21
I1
tp4739
asg51
I0
sba(iNavigator_0_0663
NODE
p4740
(dp4741
g43
(lp4742
I0
aI0
aI0
aI0
asg45
(lp4743
sg47
(lp4744
(I22
I1
tp4745
a(I20
I1
tp4746
a(I21
I2
tp4747
a(I21
I0
tp4748
asg51
I0
sba(iNavigator_0_0663
NODE
p4749
(dp4750
g43
(lp4751
I0
aI0
aI0
aI0
asg45
(lp4752
sg47
(lp4753
(I22
I2
tp4754
a(I20
I2
tp4755
a(I21
I3
tp4756
a(I21
I1
tp4757
asg51
I0
sba(iNavigator_0_0663
NODE
p4758
(dp4759
g43
(lp4760
I0
aI0
aI0
aI0
asg45
(lp4761
sg47
(lp4762
(I22
I3
tp4763
a(I20
I3
tp4764
a(I21
I4
tp4765
a(I21
I2
tp4766
asg51
I0
sba(iNavigator_0_0663
NODE
p4767
(dp4768
g43
(lp4769
I0
aI0
aI0
aI0
asg45
(lp4770
sg47
(lp4771
(I22
I4
tp4772
a(I20
I4
tp4773
a(I21
I5
tp4774
a(I21
I3
tp4775
asg51
I0
sba(iNavigator_0_0663
NODE
p4776
(dp4777
g43
(lp4778
I0
aI0
aI0
aI0
asg45
(lp4779
sg47
(lp4780
(I22
I5
tp4781
a(I20
I5
tp4782
a(I21
I6
tp4783
a(I21
I4
tp4784
asg51
I0
sba(iNavigator_0_0663
NODE
p4785
(dp4786
g43
(lp4787
I0
aI0
aI0
aI0
asg45
(lp4788
sg47
(lp4789
(I22
I6
tp4790
a(I20
I6
tp4791
a(I21
I7
tp4792
a(I21
I5
tp4793
asg51
I0
sba(iNavigator_0_0663
NODE
p4794
(dp4795
g43
(lp4796
I0
aI0
aI0
aI0
asg45
(lp4797
sg47
(lp4798
(I22
I7
tp4799
a(I20
I7
tp4800
a(I21
I8
tp4801
a(I21
I6
tp4802
asg51
I0
sba(iNavigator_0_0663
NODE
p4803
(dp4804
g43
(lp4805
I0
aI0
aI0
aI0
asg45
(lp4806
sg47
(lp4807
(I22
I8
tp4808
a(I20
I8
tp4809
a(I21
I9
tp4810
a(I21
I7
tp4811
asg51
I0
sba(iNavigator_0_0663
NODE
p4812
(dp4813
g43
(lp4814
I0
aI0
aI0
aI0
asg45
(lp4815
sg47
(lp4816
(I22
I9
tp4817
a(I20
I9
tp4818
a(I21
I10
tp4819
a(I21
I8
tp4820
asg51
I0
sba(iNavigator_0_0663
NODE
p4821
(dp4822
g43
(lp4823
I0
aI0
aI0
aI0
asg45
(lp4824
sg47
(lp4825
(I22
I10
tp4826
a(I20
I10
tp4827
a(I21
I11
tp4828
a(I21
I9
tp4829
asg51
I0
sba(iNavigator_0_0663
NODE
p4830
(dp4831
g43
(lp4832
I0
aI0
aI0
aI0
asg45
(lp4833
sg47
(lp4834
(I22
I11
tp4835
a(I20
I11
tp4836
a(I21
I12
tp4837
a(I21
I10
tp4838
asg51
I0
sba(iNavigator_0_0663
NODE
p4839
(dp4840
g43
(lp4841
I0
aI0
aI0
aI0
asg45
(lp4842
sg47
(lp4843
(I22
I12
tp4844
a(I20
I12
tp4845
a(I21
I13
tp4846
a(I21
I11
tp4847
asg51
I0
sba(iNavigator_0_0663
NODE
p4848
(dp4849
g43
(lp4850
I0
aI0
aI0
aI0
asg45
(lp4851
sg47
(lp4852
(I22
I13
tp4853
a(I20
I13
tp4854
a(I21
I14
tp4855
a(I21
I12
tp4856
asg51
I0
sba(iNavigator_0_0663
NODE
p4857
(dp4858
g43
(lp4859
I0
aI0
aI0
aI0
asg45
(lp4860
sg47
(lp4861
(I22
I14
tp4862
a(I20
I14
tp4863
a(I21
I15
tp4864
a(I21
I13
tp4865
asg51
I0
sba(iNavigator_0_0663
NODE
p4866
(dp4867
g43
(lp4868
I0
aI0
aI0
aI0
asg45
(lp4869
sg47
(lp4870
(I22
I15
tp4871
a(I20
I15
tp4872
a(I21
I16
tp4873
a(I21
I14
tp4874
asg51
I0
sba(iNavigator_0_0663
NODE
p4875
(dp4876
g43
(lp4877
I0
aI0
aI0
aI0
asg45
(lp4878
sg47
(lp4879
(I22
I16
tp4880
a(I20
I16
tp4881
a(I21
I17
tp4882
a(I21
I15
tp4883
asg51
I0
sba(iNavigator_0_0663
NODE
p4884
(dp4885
g43
(lp4886
I0
aI0
aI0
aI0
asg45
(lp4887
(I22
I17
tp4888
asg47
(lp4889
(I22
I17
tp4890
a(I20
I17
tp4891
a(I21
I18
tp4892
a(I21
I16
tp4893
asg51
I0
sba(iNavigator_0_0663
NODE
p4894
(dp4895
g43
(lp4896
I0
aI0
aI0
aI0
asg45
(lp4897
sg47
(lp4898
(I22
I18
tp4899
a(I20
I18
tp4900
a(I21
I19
tp4901
a(I21
I17
tp4902
asg51
I0
sba(iNavigator_0_0663
NODE
p4903
(dp4904
g43
(lp4905
I0
aI0
aI0
aI0
asg45
(lp4906
sg47
(lp4907
(I22
I19
tp4908
a(I20
I19
tp4909
a(I21
I20
tp4910
a(I21
I18
tp4911
asg51
I0
sba(iNavigator_0_0663
NODE
p4912
(dp4913
g43
(lp4914
I0
aI0
aI0
aI0
asg45
(lp4915
sg47
(lp4916
(I22
I20
tp4917
a(I20
I20
tp4918
a(I21
I21
tp4919
a(I21
I19
tp4920
asg51
I0
sba(iNavigator_0_0663
NODE
p4921
(dp4922
g43
(lp4923
I0
aI0
aI0
aI0
asg45
(lp4924
(I20
I21
tp4925
a(I22
I21
tp4926
a(I21
I22
tp4927
asg47
(lp4928
(I22
I21
tp4929
a(I20
I21
tp4930
a(I21
I22
tp4931
a(I21
I20
tp4932
asg51
I0
sba(iNavigator_0_0663
NODE
p4933
(dp4934
g43
(lp4935
I0
aI0
aI0
aI0
asg45
(lp4936
(I21
I21
tp4937
a(I20
I22
tp4938
a(I22
I22
tp4939
a(I21
I23
tp4940
asg47
(lp4941
(I22
I22
tp4942
a(I20
I22
tp4943
a(I21
I23
tp4944
a(I21
I21
tp4945
asg51
I0
sba(iNavigator_0_0663
NODE
p4946
(dp4947
g43
(lp4948
I0
aI0
aI0
aI0
asg45
(lp4949
(I21
I22
tp4950
a(I20
I23
tp4951
a(I22
I23
tp4952
a(I21
I24
tp4953
asg47
(lp4954
(I22
I23
tp4955
a(I20
I23
tp4956
a(I21
I24
tp4957
a(I21
I22
tp4958
asg51
I0
sba(iNavigator_0_0663
NODE
p4959
(dp4960
g43
(lp4961
I0
aI0
aI0
aI0
asg45
(lp4962
(I21
I23
tp4963
a(I20
I24
tp4964
asg47
(lp4965
(I22
I24
tp4966
a(I20
I24
tp4967
a(I21
I23
tp4968
asg51
I0
sbaa(lp4969
(iNavigator_0_0663
NODE
p4970
(dp4971
g43
(lp4972
I0
aI0
aI0
aI0
asg45
(lp4973
sg47
(lp4974
(I23
I0
tp4975
a(I21
I0
tp4976
a(I22
I1
tp4977
asg51
I0
sba(iNavigator_0_0663
NODE
p4978
(dp4979
g43
(lp4980
I0
aI0
aI0
aI0
asg45
(lp4981
sg47
(lp4982
(I23
I1
tp4983
a(I21
I1
tp4984
a(I22
I2
tp4985
a(I22
I0
tp4986
asg51
I0
sba(iNavigator_0_0663
NODE
p4987
(dp4988
g43
(lp4989
I0
aI0
aI0
aI0
asg45
(lp4990
sg47
(lp4991
(I23
I2
tp4992
a(I21
I2
tp4993
a(I22
I3
tp4994
a(I22
I1
tp4995
asg51
I0
sba(iNavigator_0_0663
NODE
p4996
(dp4997
g43
(lp4998
I0
aI0
aI0
aI0
asg45
(lp4999
sg47
(lp5000
(I23
I3
tp5001
a(I21
I3
tp5002
a(I22
I4
tp5003
a(I22
I2
tp5004
asg51
I0
sba(iNavigator_0_0663
NODE
p5005
(dp5006
g43
(lp5007
I0
aI0
aI0
aI0
asg45
(lp5008
sg47
(lp5009
(I23
I4
tp5010
a(I21
I4
tp5011
a(I22
I5
tp5012
a(I22
I3
tp5013
asg51
I0
sba(iNavigator_0_0663
NODE
p5014
(dp5015
g43
(lp5016
I0
aI0
aI0
aI0
asg45
(lp5017
sg47
(lp5018
(I23
I5
tp5019
a(I21
I5
tp5020
a(I22
I6
tp5021
a(I22
I4
tp5022
asg51
I0
sba(iNavigator_0_0663
NODE
p5023
(dp5024
g43
(lp5025
I0
aI0
aI0
aI0
asg45
(lp5026
sg47
(lp5027
(I23
I6
tp5028
a(I21
I6
tp5029
a(I22
I7
tp5030
a(I22
I5
tp5031
asg51
I0
sba(iNavigator_0_0663
NODE
p5032
(dp5033
g43
(lp5034
I0
aI0
aI0
aI0
asg45
(lp5035
sg47
(lp5036
(I23
I7
tp5037
a(I21
I7
tp5038
a(I22
I8
tp5039
a(I22
I6
tp5040
asg51
I0
sba(iNavigator_0_0663
NODE
p5041
(dp5042
g43
(lp5043
I0
aI0
aI0
aI0
asg45
(lp5044
sg47
(lp5045
(I23
I8
tp5046
a(I21
I8
tp5047
a(I22
I9
tp5048
a(I22
I7
tp5049
asg51
I0
sba(iNavigator_0_0663
NODE
p5050
(dp5051
g43
(lp5052
I0
aI0
aI0
aI0
asg45
(lp5053
sg47
(lp5054
(I23
I9
tp5055
a(I21
I9
tp5056
a(I22
I10
tp5057
a(I22
I8
tp5058
asg51
I0
sba(iNavigator_0_0663
NODE
p5059
(dp5060
g43
(lp5061
I0
aI0
aI0
aI0
asg45
(lp5062
sg47
(lp5063
(I23
I10
tp5064
a(I21
I10
tp5065
a(I22
I11
tp5066
a(I22
I9
tp5067
asg51
I0
sba(iNavigator_0_0663
NODE
p5068
(dp5069
g43
(lp5070
I0
aI0
aI0
aI0
asg45
(lp5071
sg47
(lp5072
(I23
I11
tp5073
a(I21
I11
tp5074
a(I22
I12
tp5075
a(I22
I10
tp5076
asg51
I0
sba(iNavigator_0_0663
NODE
p5077
(dp5078
g43
(lp5079
I0
aI0
aI0
aI0
asg45
(lp5080
sg47
(lp5081
(I23
I12
tp5082
a(I21
I12
tp5083
a(I22
I13
tp5084
a(I22
I11
tp5085
asg51
I0
sba(iNavigator_0_0663
NODE
p5086
(dp5087
g43
(lp5088
I0
aI0
aI0
aI0
asg45
(lp5089
sg47
(lp5090
(I23
I13
tp5091
a(I21
I13
tp5092
a(I22
I14
tp5093
a(I22
I12
tp5094
asg51
I0
sba(iNavigator_0_0663
NODE
p5095
(dp5096
g43
(lp5097
I0
aI0
aI0
aI0
asg45
(lp5098
sg47
(lp5099
(I23
I14
tp5100
a(I21
I14
tp5101
a(I22
I15
tp5102
a(I22
I13
tp5103
asg51
I0
sba(iNavigator_0_0663
NODE
p5104
(dp5105
g43
(lp5106
I0
aI0
aI0
aI0
asg45
(lp5107
sg47
(lp5108
(I23
I15
tp5109
a(I21
I15
tp5110
a(I22
I16
tp5111
a(I22
I14
tp5112
asg51
I0
sba(iNavigator_0_0663
NODE
p5113
(dp5114
g43
(lp5115
I0
aI0
aI0
aI0
asg45
(lp5116
sg47
(lp5117
(I23
I16
tp5118
a(I21
I16
tp5119
a(I22
I17
tp5120
a(I22
I15
tp5121
asg51
I0
sba(iNavigator_0_0663
NODE
p5122
(dp5123
g43
(lp5124
I0
aI0
aI0
aI0
asg45
(lp5125
(I21
I17
tp5126
a(I23
I17
tp5127
a(I22
I18
tp5128
asg47
(lp5129
(I23
I17
tp5130
a(I21
I17
tp5131
a(I22
I18
tp5132
a(I22
I16
tp5133
asg51
I0
sba(iNavigator_0_0663
NODE
p5134
(dp5135
g43
(lp5136
I0
aI0
aI0
aI0
asg45
(lp5137
(I22
I17
tp5138
asg47
(lp5139
(I23
I18
tp5140
a(I21
I18
tp5141
a(I22
I19
tp5142
a(I22
I17
tp5143
asg51
I0
sba(iNavigator_0_0663
NODE
p5144
(dp5145
g43
(lp5146
I0
aI0
aI0
aI0
asg45
(lp5147
sg47
(lp5148
(I23
I19
tp5149
a(I21
I19
tp5150
a(I22
I20
tp5151
a(I22
I18
tp5152
asg51
I0
sba(iNavigator_0_0663
NODE
p5153
(dp5154
g43
(lp5155
I0
aI0
aI0
aI0
asg45
(lp5156
sg47
(lp5157
(I23
I20
tp5158
a(I21
I20
tp5159
a(I22
I21
tp5160
a(I22
I19
tp5161
asg51
I0
sba(iNavigator_0_0663
NODE
p5162
(dp5163
g43
(lp5164
I0
aI0
aI0
aI0
asg45
(lp5165
(I21
I21
tp5166
a(I23
I21
tp5167
asg47
(lp5168
(I23
I21
tp5169
a(I21
I21
tp5170
a(I22
I22
tp5171
a(I22
I20
tp5172
asg51
I0
sba(iNavigator_0_0663
NODE
p5173
(dp5174
g43
(lp5175
I0
aI0
aI0
aI0
asg45
(lp5176
(I21
I22
tp5177
a(I23
I22
tp5178
a(I22
I23
tp5179
asg47
(lp5180
(I23
I22
tp5181
a(I21
I22
tp5182
a(I22
I23
tp5183
a(I22
I21
tp5184
asg51
I0
sba(iNavigator_0_0663
NODE
p5185
(dp5186
g43
(lp5187
I0
aI0
aI0
aI0
asg45
(lp5188
(I22
I22
tp5189
a(I21
I23
tp5190
a(I23
I23
tp5191
a(I22
I24
tp5192
asg47
(lp5193
(I23
I23
tp5194
a(I21
I23
tp5195
a(I22
I24
tp5196
a(I22
I22
tp5197
asg51
I0
sba(iNavigator_0_0663
NODE
p5198
(dp5199
g43
(lp5200
I0
aI0
aI0
aI0
asg45
(lp5201
(I22
I23
tp5202
asg47
(lp5203
(I23
I24
tp5204
a(I21
I24
tp5205
a(I22
I23
tp5206
asg51
I0
sbaa(lp5207
(iNavigator_0_0663
NODE
p5208
(dp5209
g43
(lp5210
I0
aI0
aI0
aI0
asg45
(lp5211
sg47
(lp5212
(I24
I0
tp5213
a(I22
I0
tp5214
a(I23
I1
tp5215
asg51
I0
sba(iNavigator_0_0663
NODE
p5216
(dp5217
g43
(lp5218
I0
aI0
aI0
aI0
asg45
(lp5219
sg47
(lp5220
(I24
I1
tp5221
a(I22
I1
tp5222
a(I23
I2
tp5223
a(I23
I0
tp5224
asg51
I0
sba(iNavigator_0_0663
NODE
p5225
(dp5226
g43
(lp5227
I0
aI0
aI0
aI0
asg45
(lp5228
sg47
(lp5229
(I24
I2
tp5230
a(I22
I2
tp5231
a(I23
I3
tp5232
a(I23
I1
tp5233
asg51
I0
sba(iNavigator_0_0663
NODE
p5234
(dp5235
g43
(lp5236
I0
aI0
aI0
aI0
asg45
(lp5237
sg47
(lp5238
(I24
I3
tp5239
a(I22
I3
tp5240
a(I23
I4
tp5241
a(I23
I2
tp5242
asg51
I0
sba(iNavigator_0_0663
NODE
p5243
(dp5244
g43
(lp5245
I0
aI0
aI0
aI0
asg45
(lp5246
sg47
(lp5247
(I24
I4
tp5248
a(I22
I4
tp5249
a(I23
I5
tp5250
a(I23
I3
tp5251
asg51
I0
sba(iNavigator_0_0663
NODE
p5252
(dp5253
g43
(lp5254
I0
aI0
aI0
aI0
asg45
(lp5255
sg47
(lp5256
(I24
I5
tp5257
a(I22
I5
tp5258
a(I23
I6
tp5259
a(I23
I4
tp5260
asg51
I0
sba(iNavigator_0_0663
NODE
p5261
(dp5262
g43
(lp5263
I0
aI0
aI0
aI0
asg45
(lp5264
sg47
(lp5265
(I24
I6
tp5266
a(I22
I6
tp5267
a(I23
I7
tp5268
a(I23
I5
tp5269
asg51
I0
sba(iNavigator_0_0663
NODE
p5270
(dp5271
g43
(lp5272
I0
aI0
aI0
aI0
asg45
(lp5273
sg47
(lp5274
(I24
I7
tp5275
a(I22
I7
tp5276
a(I23
I8
tp5277
a(I23
I6
tp5278
asg51
I0
sba(iNavigator_0_0663
NODE
p5279
(dp5280
g43
(lp5281
I0
aI0
aI0
aI0
asg45
(lp5282
sg47
(lp5283
(I24
I8
tp5284
a(I22
I8
tp5285
a(I23
I9
tp5286
a(I23
I7
tp5287
asg51
I0
sba(iNavigator_0_0663
NODE
p5288
(dp5289
g43
(lp5290
I0
aI0
aI0
aI0
asg45
(lp5291
sg47
(lp5292
(I24
I9
tp5293
a(I22
I9
tp5294
a(I23
I10
tp5295
a(I23
I8
tp5296
asg51
I0
sba(iNavigator_0_0663
NODE
p5297
(dp5298
g43
(lp5299
I0
aI0
aI0
aI0
asg45
(lp5300
sg47
(lp5301
(I24
I10
tp5302
a(I22
I10
tp5303
a(I23
I11
tp5304
a(I23
I9
tp5305
asg51
I0
sba(iNavigator_0_0663
NODE
p5306
(dp5307
g43
(lp5308
I0
aI0
aI0
aI0
asg45
(lp5309
sg47
(lp5310
(I24
I11
tp5311
a(I22
I11
tp5312
a(I23
I12
tp5313
a(I23
I10
tp5314
asg51
I0
sba(iNavigator_0_0663
NODE
p5315
(dp5316
g43
(lp5317
I0
aI0
aI0
aI0
asg45
(lp5318
sg47
(lp5319
(I24
I12
tp5320
a(I22
I12
tp5321
a(I23
I13
tp5322
a(I23
I11
tp5323
asg51
I0
sba(iNavigator_0_0663
NODE
p5324
(dp5325
g43
(lp5326
I0
aI0
aI0
aI0
asg45
(lp5327
sg47
(lp5328
(I24
I13
tp5329
a(I22
I13
tp5330
a(I23
I14
tp5331
a(I23
I12
tp5332
asg51
I0
sba(iNavigator_0_0663
NODE
p5333
(dp5334
g43
(lp5335
I0
aI0
aI0
aI0
asg45
(lp5336
sg47
(lp5337
(I24
I14
tp5338
a(I22
I14
tp5339
a(I23
I15
tp5340
a(I23
I13
tp5341
asg51
I0
sba(iNavigator_0_0663
NODE
p5342
(dp5343
g43
(lp5344
I0
aI0
aI0
aI0
asg45
(lp5345
sg47
(lp5346
(I24
I15
tp5347
a(I22
I15
tp5348
a(I23
I16
tp5349
a(I23
I14
tp5350
asg51
I0
sba(iNavigator_0_0663
NODE
p5351
(dp5352
g43
(lp5353
I0
aI0
aI0
aI0
asg45
(lp5354
(I23
I17
tp5355
asg47
(lp5356
(I24
I16
tp5357
a(I22
I16
tp5358
a(I23
I17
tp5359
a(I23
I15
tp5360
asg51
I0
sba(iNavigator_0_0663
NODE
p5361
(dp5362
g43
(lp5363
I0
aI0
aI0
aI0
asg45
(lp5364
(I23
I16
tp5365
a(I22
I17
tp5366
a(I24
I17
tp5367
a(I23
I18
tp5368
asg47
(lp5369
(I24
I17
tp5370
a(I22
I17
tp5371
a(I23
I18
tp5372
a(I23
I16
tp5373
asg51
I0
sba(iNavigator_0_0663
NODE
p5374
(dp5375
g43
(lp5376
I0
aI0
aI0
aI0
asg45
(lp5377
(I23
I17
tp5378
a(I24
I18
tp5379
a(I23
I19
tp5380
asg47
(lp5381
(I24
I18
tp5382
a(I22
I18
tp5383
a(I23
I19
tp5384
a(I23
I17
tp5385
asg51
I0
sba(iNavigator_0_0663
NODE
p5386
(dp5387
g43
(lp5388
I0
aI0
aI0
aI0
asg45
(lp5389
(I23
I18
tp5390
a(I24
I19
tp5391
a(I23
I20
tp5392
asg47
(lp5393
(I24
I19
tp5394
a(I22
I19
tp5395
a(I23
I20
tp5396
a(I23
I18
tp5397
asg51
I0
sba(iNavigator_0_0663
NODE
p5398
(dp5399
g43
(lp5400
I0
aI0
aI0
aI0
asg45
(lp5401
(I23
I19
tp5402
a(I23
I21
tp5403
asg47
(lp5404
(I24
I20
tp5405
a(I22
I20
tp5406
a(I23
I21
tp5407
a(I23
I19
tp5408
asg51
I0
sba(iNavigator_0_0663
NODE
p5409
(dp5410
g43
(lp5411
I0
aI0
aI0
aI0
asg45
(lp5412
(I23
I20
tp5413
a(I22
I21
tp5414
a(I24
I21
tp5415
a(I23
I22
tp5416
asg47
(lp5417
(I24
I21
tp5418
a(I22
I21
tp5419
a(I23
I22
tp5420
a(I23
I20
tp5421
asg51
I0
sba(iNavigator_0_0663
NODE
p5422
(dp5423
g43
(lp5424
I0
aI0
aI0
aI0
asg45
(lp5425
(I23
I21
tp5426
a(I22
I22
tp5427
a(I24
I22
tp5428
a(I23
I23
tp5429
asg47
(lp5430
(I24
I22
tp5431
a(I22
I22
tp5432
a(I23
I23
tp5433
a(I23
I21
tp5434
asg51
I0
sba(iNavigator_0_0663
NODE
p5435
(dp5436
g43
(lp5437
I0
aI0
aI0
aI0
asg45
(lp5438
(I23
I22
tp5439
a(I22
I23
tp5440
a(I24
I23
tp5441
a(I23
I24
tp5442
asg47
(lp5443
(I24
I23
tp5444
a(I22
I23
tp5445
a(I23
I24
tp5446
a(I23
I22
tp5447
asg51
I0
sba(iNavigator_0_0663
NODE
p5448
(dp5449
g43
(lp5450
I0
aI0
aI0
aI0
asg45
(lp5451
(I23
I23
tp5452
a(I24
I24
tp5453
asg47
(lp5454
(I24
I24
tp5455
a(I22
I24
tp5456
a(I23
I23
tp5457
asg51
I0
sbaa(lp5458
(iNavigator_0_0663
NODE
p5459
(dp5460
g43
(lp5461
I0
aI0
aI0
aI0
asg45
(lp5462
sg47
(lp5463
(I23
I0
tp5464
a(I24
I1
tp5465
asg51
I0
sba(iNavigator_0_0663
NODE
p5466
(dp5467
g43
(lp5468
I0
aI0
aI0
aI0
asg45
(lp5469
sg47
(lp5470
(I23
I1
tp5471
a(I24
I2
tp5472
a(I24
I0
tp5473
asg51
I0
sba(iNavigator_0_0663
NODE
p5474
(dp5475
g43
(lp5476
I0
aI0
aI0
aI0
asg45
(lp5477
sg47
(lp5478
(I23
I2
tp5479
a(I24
I3
tp5480
a(I24
I1
tp5481
asg51
I0
sba(iNavigator_0_0663
NODE
p5482
(dp5483
g43
(lp5484
I0
aI0
aI0
aI0
asg45
(lp5485
sg47
(lp5486
(I23
I3
tp5487
a(I24
I4
tp5488
a(I24
I2
tp5489
asg51
I0
sba(iNavigator_0_0663
NODE
p5490
(dp5491
g43
(lp5492
I0
aI0
aI0
aI0
asg45
(lp5493
sg47
(lp5494
(I23
I4
tp5495
a(I24
I5
tp5496
a(I24
I3
tp5497
asg51
I0
sba(iNavigator_0_0663
NODE
p5498
(dp5499
g43
(lp5500
I0
aI0
aI0
aI0
asg45
(lp5501
sg47
(lp5502
(I23
I5
tp5503
a(I24
I6
tp5504
a(I24
I4
tp5505
asg51
I0
sba(iNavigator_0_0663
NODE
p5506
(dp5507
g43
(lp5508
I0
aI0
aI0
aI0
asg45
(lp5509
sg47
(lp5510
(I23
I6
tp5511
a(I24
I7
tp5512
a(I24
I5
tp5513
asg51
I0
sba(iNavigator_0_0663
NODE
p5514
(dp5515
g43
(lp5516
I0
aI0
aI0
aI0
asg45
(lp5517
sg47
(lp5518
(I23
I7
tp5519
a(I24
I8
tp5520
a(I24
I6
tp5521
asg51
I0
sba(iNavigator_0_0663
NODE
p5522
(dp5523
g43
(lp5524
I0
aI0
aI0
aI0
asg45
(lp5525
sg47
(lp5526
(I23
I8
tp5527
a(I24
I9
tp5528
a(I24
I7
tp5529
asg51
I0
sba(iNavigator_0_0663
NODE
p5530
(dp5531
g43
(lp5532
I0
aI0
aI0
aI0
asg45
(lp5533
sg47
(lp5534
(I23
I9
tp5535
a(I24
I10
tp5536
a(I24
I8
tp5537
asg51
I0
sba(iNavigator_0_0663
NODE
p5538
(dp5539
g43
(lp5540
I0
aI0
aI0
aI0
asg45
(lp5541
sg47
(lp5542
(I23
I10
tp5543
a(I24
I11
tp5544
a(I24
I9
tp5545
asg51
I0
sba(iNavigator_0_0663
NODE
p5546
(dp5547
g43
(lp5548
I0
aI0
aI0
aI0
asg45
(lp5549
sg47
(lp5550
(I23
I11
tp5551
a(I24
I12
tp5552
a(I24
I10
tp5553
asg51
I0
sba(iNavigator_0_0663
NODE
p5554
(dp5555
g43
(lp5556
I0
aI0
aI0
aI0
asg45
(lp5557
sg47
(lp5558
(I23
I12
tp5559
a(I24
I13
tp5560
a(I24
I11
tp5561
asg51
I0
sba(iNavigator_0_0663
NODE
p5562
(dp5563
g43
(lp5564
I0
aI0
aI0
aI0
asg45
(lp5565
sg47
(lp5566
(I23
I13
tp5567
a(I24
I14
tp5568
a(I24
I12
tp5569
asg51
I0
sba(iNavigator_0_0663
NODE
p5570
(dp5571
g43
(lp5572
I0
aI0
aI0
aI0
asg45
(lp5573
sg47
(lp5574
(I23
I14
tp5575
a(I24
I15
tp5576
a(I24
I13
tp5577
asg51
I0
sba(iNavigator_0_0663
NODE
p5578
(dp5579
g43
(lp5580
I0
aI0
aI0
aI0
asg45
(lp5581
sg47
(lp5582
(I23
I15
tp5583
a(I24
I16
tp5584
a(I24
I14
tp5585
asg51
I0
sba(iNavigator_0_0663
NODE
p5586
(dp5587
g43
(lp5588
I0
aI0
aI0
aI0
asg45
(lp5589
sg47
(lp5590
(I23
I16
tp5591
a(I24
I17
tp5592
a(I24
I15
tp5593
asg51
I0
sba(iNavigator_0_0663
NODE
p5594
(dp5595
g43
(lp5596
I0
aI0
aI0
aI0
asg45
(lp5597
(I23
I17
tp5598
asg47
(lp5599
(I23
I17
tp5600
a(I24
I18
tp5601
a(I24
I16
tp5602
asg51
I0
sba(iNavigator_0_0663
NODE
p5603
(dp5604
g43
(lp5605
I0
aI0
aI0
aI0
asg45
(lp5606
(I23
I18
tp5607
asg47
(lp5608
(I23
I18
tp5609
a(I24
I19
tp5610
a(I24
I17
tp5611
asg51
I0
sba(iNavigator_0_0663
NODE
p5612
(dp5613
g43
(lp5614
I0
aI0
aI0
aI0
asg45
(lp5615
(I23
I19
tp5616
a(I24
I20
tp5617
asg47
(lp5618
(I23
I19
tp5619
a(I24
I20
tp5620
a(I24
I18
tp5621
asg51
I0
sba(iNavigator_0_0663
NODE
p5622
(dp5623
g43
(lp5624
I0
aI0
aI0
aI0
asg45
(lp5625
(I24
I19
tp5626
a(I24
I21
tp5627
asg47
(lp5628
(I23
I20
tp5629
a(I24
I21
tp5630
a(I24
I19
tp5631
asg51
I0
sba(iNavigator_0_0663
NODE
p5632
(dp5633
g43
(lp5634
I0
aI0
aI0
aI0
asg45
(lp5635
(I24
I20
tp5636
a(I23
I21
tp5637
a(I24
I22
tp5638
asg47
(lp5639
(I23
I21
tp5640
a(I24
I22
tp5641
a(I24
I20
tp5642
asg51
I0
sba(iNavigator_0_0663
NODE
p5643
(dp5644
g43
(lp5645
I0
aI0
aI0
aI0
asg45
(lp5646
(I24
I21
tp5647
a(I23
I22
tp5648
a(I24
I23
tp5649
asg47
(lp5650
(I23
I22
tp5651
a(I24
I23
tp5652
a(I24
I21
tp5653
asg51
I0
sba(iNavigator_0_0663
NODE
p5654
(dp5655
g43
(lp5656
I0
aI0
aI0
aI0
asg45
(lp5657
(I24
I22
tp5658
a(I23
I23
tp5659
a(I24
I24
tp5660
asg47
(lp5661
(I23
I23
tp5662
a(I24
I24
tp5663
a(I24
I22
tp5664
asg51
I0
sba(iNavigator_0_0663
NODE
p5665
(dp5666
g43
(lp5667
I0
aI0
aI0
aI0
asg45
(lp5668
(I24
I23
tp5669
a(I23
I24
tp5670
asg47
(lp5671
(I23
I24
tp5672
a(I24
I23
tp5673
asg51
I0
sbaasS'x'
p5674
I25
sS'y'
p5675
I25
sS'PotentialList'
p5676
(lp5677
sS'Length'
p5678
I40
sb(lp5679
(lp5680
(lp5681
S'Coatrack'
p5682
aS'Objects/Coatrack_vrc.wrl'
p5683
aS'None'
p5684
ag5684
aI1
aI-1
aI0
aS'yellow'
p5685
aaF842.0
aF-4.0
aF682.0
aF225.0
aa(lp5686
(lp5687
S'Sofa'
p5688
aS'Objects/Sofa02_vrc.wrl'
p5689
ag5684
ag5684
aI1
aI-1
aI0
aS'orange'
p5690
aaF882.0
aF-4.0
aF682.0
aF225.0
aa(lp5691
(lp5692
S'Swing'
p5693
aS'Objects/swing.wrl'
p5694
ag5684
ag5684
aI1
aI-1
aI0
aS'pink'
p5695
aaF922.0
aF-4.0
aF762.0
aF225.0
aa(lp5696
g5687
aF962.0
aF-4.0
aF762.0
aF225.0
aa(lp5697
g5681
aF922.0
aF-4.0
aF842.0
aF225.0
aa(lp5698
(lp5699
S'Chair'
p5700
aS'Objects/Chair42_vrc.wrl'
p5701
ag5684
ag5684
aI1
aI-1
aI0
aS'blue'
p5702
aaF962.0
aF-4.0
aF882.0
aF225.0
aa(lp5703
(lp5704
S'Easel'
p5705
aS'Objects/Easel_vrc.wrl'
p5706
ag5684
ag5684
aI1
aI-1
aI0
aS'cyan'
p5707
aaF802.0
aF-4.0
aF922.0
aF225.0
aa(lp5708
g5692
aF962.0
aF-4.0
aF922.0
aF225.0
aa(lp5709
(lp5710
S'Barstool'
p5711
aS'Objects/Barstool_vrc.wrl'
p5712
ag5684
ag5684
aI1
aI-1
aI0
aS'green'
p5713
aaF762.0
aF-4.0
aF962.0
aF225.0
aa(lp5714
g5699
aF802.0
aF-4.0
aF962.0
aF225.0
aa(lp5715
g5687
aF882.0
aF-4.0
aF962.0
aF225.0
aa(lp5716
g5710
ag5699
ag5681
a(lp5717
S'Computer'
p5718
aS'Objects/computer.wrl'
p5719
ag5684
ag5684
aI1
aI-1
aI0
aS'magenta'
p5720
aag5704
ag5687
a(lp5721
S'Bench'
p5722
aS'Objects/Sofa05_vrc.wrl'
p5723
ag5684
ag5684
aI1
aI-1
aI0
aS'purple'
p5724
aag5692
a(lp5725
(g5710
I5
tp5726
a(g5699
I5
tp5727
a(g5681
I5
tp5728
a(g5717
I5
tp5729
a(g5704
I5
tp5730
a(g5687
I5
tp5731
a(g5721
I5
tp5732
a(g5692
I5
tp5733
a(lp5734
(lp5735
F2.0
aF-4.0
aF2.0
aF225.0
aa(lp5736
(lp5737
(lp5738
(I1
(lp5739
F880.0
aF-680.0
aS'None'
p5740
S'None'
p5741
tp5742
a(I2
(lp5743
F840.0
aF-920.0
aS'None'
p5744
S'None'
p5745
tp5746
a(I3
(lp5747
F760.0
aF-920.0
aS'None'
p5748
S'None'
p5749
tp5750
a(I4
(lp5751
F960.0
aF-840.0
aS'None'
p5752
S'None'
p5753
tp5754
a(I5
(lp5755
F920.0
aF-720.0
aS'None'
p5756
S'None'
p5757
tp5758
a(I6
(lp5759
F880.0
aF-920.0
aS'None'
p5760
S'None'
p5761
tp5762
a(I7
(lp5763
F840.0
aF-840.0
aS'None'
p5764
S'None'
p5765
tp5766
atp5767
.